Component: ARM Compiler 5.06 update 6 (build 750) Tool: armlink [4d35ed]

==============================================================================

Section Cross References

    stm32f0xx_hal_i2c.o(i.HAL_I2C_DeInit) refers to stm32f0xx_hal_i2c.o(i.HAL_I2C_MspDeInit) for HAL_I2C_MspDeInit
    stm32f0xx_hal_i2c.o(i.HAL_I2C_DisableListen_IT) refers to stm32f0xx_hal_i2c.o(i._ZN41_INTERNAL_19_stm32f0xx_hal_i2c_c_0eb271f415I2C_Disable_IRQEP19__I2C_HandleTypeDeft) for [local to stm32f0xx_hal_i2c_c]::I2C_Disable_IRQ(__I2C_HandleTypeDef*, unsigned short)
    stm32f0xx_hal_i2c.o(i.HAL_I2C_ER_IRQHandler) refers to stm32f0xx_hal_i2c.o(i._ZN41_INTERNAL_19_stm32f0xx_hal_i2c_c_0eb271f411I2C_ITErrorEP19__I2C_HandleTypeDefj) for [local to stm32f0xx_hal_i2c_c]::I2C_ITError(__I2C_HandleTypeDef*, unsigned)
    stm32f0xx_hal_i2c.o(i.HAL_I2C_EnableListen_IT) refers to stm32f0xx_hal_i2c.o(i._ZN41_INTERNAL_19_stm32f0xx_hal_i2c_c_0eb271f414I2C_Enable_IRQEP19__I2C_HandleTypeDeft) for [local to stm32f0xx_hal_i2c_c]::I2C_Enable_IRQ(__I2C_HandleTypeDef*, unsigned short)
    stm32f0xx_hal_i2c.o(i.HAL_I2C_EnableListen_IT) refers to stm32f0xx_hal_i2c.o(i._ZN41_INTERNAL_19_stm32f0xx_hal_i2c_c_0eb271f416I2C_Slave_ISR_ITEP19__I2C_HandleTypeDefjj) for [local to stm32f0xx_hal_i2c_c]::I2C_Slave_ISR_IT(__I2C_HandleTypeDef*, unsigned, unsigned)
    stm32f0xx_hal_i2c.o(i.HAL_I2C_Init) refers to stm32f0xx_hal_i2c.o(i.HAL_I2C_MspInit) for HAL_I2C_MspInit
    stm32f0xx_hal_i2c.o(i.HAL_I2C_IsDeviceReady) refers to stm32f0xx_hal.o(i.HAL_GetTick) for HAL_GetTick
    stm32f0xx_hal_i2c.o(i.HAL_I2C_IsDeviceReady) refers to stm32f0xx_hal_i2c.o(i._ZN41_INTERNAL_19_stm32f0xx_hal_i2c_c_0eb271f426I2C_WaitOnFlagUntilTimeoutEP19__I2C_HandleTypeDefj10FlagStatusjj) for [local to stm32f0xx_hal_i2c_c]::I2C_WaitOnFlagUntilTimeout(__I2C_HandleTypeDef*, unsigned, FlagStatus, unsigned, unsigned)
    stm32f0xx_hal_i2c.o(i.HAL_I2C_Master_Abort_IT) refers to stm32f0xx_hal_i2c.o(i._ZN41_INTERNAL_19_stm32f0xx_hal_i2c_c_0eb271f415I2C_Disable_IRQEP19__I2C_HandleTypeDeft) for [local to stm32f0xx_hal_i2c_c]::I2C_Disable_IRQ(__I2C_HandleTypeDef*, unsigned short)
    stm32f0xx_hal_i2c.o(i.HAL_I2C_Master_Abort_IT) refers to stm32f0xx_hal_i2c.o(i._ZN41_INTERNAL_19_stm32f0xx_hal_i2c_c_0eb271f418I2C_TransferConfigEP19__I2C_HandleTypeDefthjj) for [local to stm32f0xx_hal_i2c_c]::I2C_TransferConfig(__I2C_HandleTypeDef*, unsigned short, unsigned char, unsigned, unsigned)
    stm32f0xx_hal_i2c.o(i.HAL_I2C_Master_Abort_IT) refers to stm32f0xx_hal_i2c.o(i._ZN41_INTERNAL_19_stm32f0xx_hal_i2c_c_0eb271f414I2C_Enable_IRQEP19__I2C_HandleTypeDeft) for [local to stm32f0xx_hal_i2c_c]::I2C_Enable_IRQ(__I2C_HandleTypeDef*, unsigned short)
    stm32f0xx_hal_i2c.o(i.HAL_I2C_Master_Receive) refers to stm32f0xx_hal.o(i.HAL_GetTick) for HAL_GetTick
    stm32f0xx_hal_i2c.o(i.HAL_I2C_Master_Receive) refers to stm32f0xx_hal_i2c.o(i._ZN41_INTERNAL_19_stm32f0xx_hal_i2c_c_0eb271f426I2C_WaitOnFlagUntilTimeoutEP19__I2C_HandleTypeDefj10FlagStatusjj) for [local to stm32f0xx_hal_i2c_c]::I2C_WaitOnFlagUntilTimeout(__I2C_HandleTypeDef*, unsigned, FlagStatus, unsigned, unsigned)
    stm32f0xx_hal_i2c.o(i.HAL_I2C_Master_Receive) refers to stm32f0xx_hal_i2c.o(i._ZN41_INTERNAL_19_stm32f0xx_hal_i2c_c_0eb271f418I2C_TransferConfigEP19__I2C_HandleTypeDefthjj) for [local to stm32f0xx_hal_i2c_c]::I2C_TransferConfig(__I2C_HandleTypeDef*, unsigned short, unsigned char, unsigned, unsigned)
    stm32f0xx_hal_i2c.o(i.HAL_I2C_Master_Receive) refers to stm32f0xx_hal_i2c.o(i._ZN41_INTERNAL_19_stm32f0xx_hal_i2c_c_0eb271f430I2C_WaitOnRXNEFlagUntilTimeoutEP19__I2C_HandleTypeDefjj) for [local to stm32f0xx_hal_i2c_c]::I2C_WaitOnRXNEFlagUntilTimeout(__I2C_HandleTypeDef*, unsigned, unsigned)
    stm32f0xx_hal_i2c.o(i.HAL_I2C_Master_Receive) refers to stm32f0xx_hal_i2c.o(i._ZN41_INTERNAL_19_stm32f0xx_hal_i2c_c_0eb271f430I2C_WaitOnSTOPFlagUntilTimeoutEP19__I2C_HandleTypeDefjj) for [local to stm32f0xx_hal_i2c_c]::I2C_WaitOnSTOPFlagUntilTimeout(__I2C_HandleTypeDef*, unsigned, unsigned)
    stm32f0xx_hal_i2c.o(i.HAL_I2C_Master_Receive_DMA) refers to stm32f0xx_hal_dma.o(i.HAL_DMA_Start_IT) for HAL_DMA_Start_IT
    stm32f0xx_hal_i2c.o(i.HAL_I2C_Master_Receive_DMA) refers to stm32f0xx_hal_i2c.o(i._ZN41_INTERNAL_19_stm32f0xx_hal_i2c_c_0eb271f418I2C_TransferConfigEP19__I2C_HandleTypeDefthjj) for [local to stm32f0xx_hal_i2c_c]::I2C_TransferConfig(__I2C_HandleTypeDef*, unsigned short, unsigned char, unsigned, unsigned)
    stm32f0xx_hal_i2c.o(i.HAL_I2C_Master_Receive_DMA) refers to stm32f0xx_hal_i2c.o(i._ZN41_INTERNAL_19_stm32f0xx_hal_i2c_c_0eb271f414I2C_Enable_IRQEP19__I2C_HandleTypeDeft) for [local to stm32f0xx_hal_i2c_c]::I2C_Enable_IRQ(__I2C_HandleTypeDef*, unsigned short)
    stm32f0xx_hal_i2c.o(i.HAL_I2C_Master_Receive_DMA) refers to stm32f0xx_hal_i2c.o(i._ZN41_INTERNAL_19_stm32f0xx_hal_i2c_c_0eb271f418I2C_Master_ISR_DMAEP19__I2C_HandleTypeDefjj) for [local to stm32f0xx_hal_i2c_c]::I2C_Master_ISR_DMA(__I2C_HandleTypeDef*, unsigned, unsigned)
    stm32f0xx_hal_i2c.o(i.HAL_I2C_Master_Receive_DMA) refers to stm32f0xx_hal_i2c.o(i._ZN41_INTERNAL_19_stm32f0xx_hal_i2c_c_0eb271f424I2C_DMAMasterReceiveCpltEP19__DMA_HandleTypeDef) for [local to stm32f0xx_hal_i2c_c]::I2C_DMAMasterReceiveCplt(__DMA_HandleTypeDef*)
    stm32f0xx_hal_i2c.o(i.HAL_I2C_Master_Receive_DMA) refers to stm32f0xx_hal_i2c.o(i._ZN41_INTERNAL_19_stm32f0xx_hal_i2c_c_0eb271f412I2C_DMAErrorEP19__DMA_HandleTypeDef) for [local to stm32f0xx_hal_i2c_c]::I2C_DMAError(__DMA_HandleTypeDef*)
    stm32f0xx_hal_i2c.o(i.HAL_I2C_Master_Receive_DMA) refers to stm32f0xx_hal_i2c.o(i._ZN41_INTERNAL_19_stm32f0xx_hal_i2c_c_0eb271f417I2C_Master_ISR_ITEP19__I2C_HandleTypeDefjj) for [local to stm32f0xx_hal_i2c_c]::I2C_Master_ISR_IT(__I2C_HandleTypeDef*, unsigned, unsigned)
    stm32f0xx_hal_i2c.o(i.HAL_I2C_Master_Receive_IT) refers to stm32f0xx_hal_i2c.o(i._ZN41_INTERNAL_19_stm32f0xx_hal_i2c_c_0eb271f418I2C_TransferConfigEP19__I2C_HandleTypeDefthjj) for [local to stm32f0xx_hal_i2c_c]::I2C_TransferConfig(__I2C_HandleTypeDef*, unsigned short, unsigned char, unsigned, unsigned)
    stm32f0xx_hal_i2c.o(i.HAL_I2C_Master_Receive_IT) refers to stm32f0xx_hal_i2c.o(i._ZN41_INTERNAL_19_stm32f0xx_hal_i2c_c_0eb271f414I2C_Enable_IRQEP19__I2C_HandleTypeDeft) for [local to stm32f0xx_hal_i2c_c]::I2C_Enable_IRQ(__I2C_HandleTypeDef*, unsigned short)
    stm32f0xx_hal_i2c.o(i.HAL_I2C_Master_Receive_IT) refers to stm32f0xx_hal_i2c.o(i._ZN41_INTERNAL_19_stm32f0xx_hal_i2c_c_0eb271f417I2C_Master_ISR_ITEP19__I2C_HandleTypeDefjj) for [local to stm32f0xx_hal_i2c_c]::I2C_Master_ISR_IT(__I2C_HandleTypeDef*, unsigned, unsigned)
    stm32f0xx_hal_i2c.o(i.HAL_I2C_Master_Sequential_Receive_IT) refers to stm32f0xx_hal_i2c.o(i._ZN41_INTERNAL_19_stm32f0xx_hal_i2c_c_0eb271f418I2C_TransferConfigEP19__I2C_HandleTypeDefthjj) for [local to stm32f0xx_hal_i2c_c]::I2C_TransferConfig(__I2C_HandleTypeDef*, unsigned short, unsigned char, unsigned, unsigned)
    stm32f0xx_hal_i2c.o(i.HAL_I2C_Master_Sequential_Receive_IT) refers to stm32f0xx_hal_i2c.o(i._ZN41_INTERNAL_19_stm32f0xx_hal_i2c_c_0eb271f414I2C_Enable_IRQEP19__I2C_HandleTypeDeft) for [local to stm32f0xx_hal_i2c_c]::I2C_Enable_IRQ(__I2C_HandleTypeDef*, unsigned short)
    stm32f0xx_hal_i2c.o(i.HAL_I2C_Master_Sequential_Receive_IT) refers to stm32f0xx_hal_i2c.o(i._ZN41_INTERNAL_19_stm32f0xx_hal_i2c_c_0eb271f417I2C_Master_ISR_ITEP19__I2C_HandleTypeDefjj) for [local to stm32f0xx_hal_i2c_c]::I2C_Master_ISR_IT(__I2C_HandleTypeDef*, unsigned, unsigned)
    stm32f0xx_hal_i2c.o(i.HAL_I2C_Master_Sequential_Transmit_IT) refers to stm32f0xx_hal_i2c.o(i._ZN41_INTERNAL_19_stm32f0xx_hal_i2c_c_0eb271f418I2C_TransferConfigEP19__I2C_HandleTypeDefthjj) for [local to stm32f0xx_hal_i2c_c]::I2C_TransferConfig(__I2C_HandleTypeDef*, unsigned short, unsigned char, unsigned, unsigned)
    stm32f0xx_hal_i2c.o(i.HAL_I2C_Master_Sequential_Transmit_IT) refers to stm32f0xx_hal_i2c.o(i._ZN41_INTERNAL_19_stm32f0xx_hal_i2c_c_0eb271f414I2C_Enable_IRQEP19__I2C_HandleTypeDeft) for [local to stm32f0xx_hal_i2c_c]::I2C_Enable_IRQ(__I2C_HandleTypeDef*, unsigned short)
    stm32f0xx_hal_i2c.o(i.HAL_I2C_Master_Sequential_Transmit_IT) refers to stm32f0xx_hal_i2c.o(i._ZN41_INTERNAL_19_stm32f0xx_hal_i2c_c_0eb271f417I2C_Master_ISR_ITEP19__I2C_HandleTypeDefjj) for [local to stm32f0xx_hal_i2c_c]::I2C_Master_ISR_IT(__I2C_HandleTypeDef*, unsigned, unsigned)
    stm32f0xx_hal_i2c.o(i.HAL_I2C_Master_Transmit) refers to stm32f0xx_hal.o(i.HAL_GetTick) for HAL_GetTick
    stm32f0xx_hal_i2c.o(i.HAL_I2C_Master_Transmit) refers to stm32f0xx_hal_i2c.o(i._ZN41_INTERNAL_19_stm32f0xx_hal_i2c_c_0eb271f426I2C_WaitOnFlagUntilTimeoutEP19__I2C_HandleTypeDefj10FlagStatusjj) for [local to stm32f0xx_hal_i2c_c]::I2C_WaitOnFlagUntilTimeout(__I2C_HandleTypeDef*, unsigned, FlagStatus, unsigned, unsigned)
    stm32f0xx_hal_i2c.o(i.HAL_I2C_Master_Transmit) refers to stm32f0xx_hal_i2c.o(i._ZN41_INTERNAL_19_stm32f0xx_hal_i2c_c_0eb271f418I2C_TransferConfigEP19__I2C_HandleTypeDefthjj) for [local to stm32f0xx_hal_i2c_c]::I2C_TransferConfig(__I2C_HandleTypeDef*, unsigned short, unsigned char, unsigned, unsigned)
    stm32f0xx_hal_i2c.o(i.HAL_I2C_Master_Transmit) refers to stm32f0xx_hal_i2c.o(i._ZN41_INTERNAL_19_stm32f0xx_hal_i2c_c_0eb271f430I2C_WaitOnTXISFlagUntilTimeoutEP19__I2C_HandleTypeDefjj) for [local to stm32f0xx_hal_i2c_c]::I2C_WaitOnTXISFlagUntilTimeout(__I2C_HandleTypeDef*, unsigned, unsigned)
    stm32f0xx_hal_i2c.o(i.HAL_I2C_Master_Transmit) refers to stm32f0xx_hal_i2c.o(i._ZN41_INTERNAL_19_stm32f0xx_hal_i2c_c_0eb271f430I2C_WaitOnSTOPFlagUntilTimeoutEP19__I2C_HandleTypeDefjj) for [local to stm32f0xx_hal_i2c_c]::I2C_WaitOnSTOPFlagUntilTimeout(__I2C_HandleTypeDef*, unsigned, unsigned)
    stm32f0xx_hal_i2c.o(i.HAL_I2C_Master_Transmit_DMA) refers to stm32f0xx_hal_dma.o(i.HAL_DMA_Start_IT) for HAL_DMA_Start_IT
    stm32f0xx_hal_i2c.o(i.HAL_I2C_Master_Transmit_DMA) refers to stm32f0xx_hal_i2c.o(i._ZN41_INTERNAL_19_stm32f0xx_hal_i2c_c_0eb271f418I2C_TransferConfigEP19__I2C_HandleTypeDefthjj) for [local to stm32f0xx_hal_i2c_c]::I2C_TransferConfig(__I2C_HandleTypeDef*, unsigned short, unsigned char, unsigned, unsigned)
    stm32f0xx_hal_i2c.o(i.HAL_I2C_Master_Transmit_DMA) refers to stm32f0xx_hal_i2c.o(i._ZN41_INTERNAL_19_stm32f0xx_hal_i2c_c_0eb271f414I2C_Enable_IRQEP19__I2C_HandleTypeDeft) for [local to stm32f0xx_hal_i2c_c]::I2C_Enable_IRQ(__I2C_HandleTypeDef*, unsigned short)
    stm32f0xx_hal_i2c.o(i.HAL_I2C_Master_Transmit_DMA) refers to stm32f0xx_hal_i2c.o(i._ZN41_INTERNAL_19_stm32f0xx_hal_i2c_c_0eb271f418I2C_Master_ISR_DMAEP19__I2C_HandleTypeDefjj) for [local to stm32f0xx_hal_i2c_c]::I2C_Master_ISR_DMA(__I2C_HandleTypeDef*, unsigned, unsigned)
    stm32f0xx_hal_i2c.o(i.HAL_I2C_Master_Transmit_DMA) refers to stm32f0xx_hal_i2c.o(i._ZN41_INTERNAL_19_stm32f0xx_hal_i2c_c_0eb271f425I2C_DMAMasterTransmitCpltEP19__DMA_HandleTypeDef) for [local to stm32f0xx_hal_i2c_c]::I2C_DMAMasterTransmitCplt(__DMA_HandleTypeDef*)
    stm32f0xx_hal_i2c.o(i.HAL_I2C_Master_Transmit_DMA) refers to stm32f0xx_hal_i2c.o(i._ZN41_INTERNAL_19_stm32f0xx_hal_i2c_c_0eb271f412I2C_DMAErrorEP19__DMA_HandleTypeDef) for [local to stm32f0xx_hal_i2c_c]::I2C_DMAError(__DMA_HandleTypeDef*)
    stm32f0xx_hal_i2c.o(i.HAL_I2C_Master_Transmit_DMA) refers to stm32f0xx_hal_i2c.o(i._ZN41_INTERNAL_19_stm32f0xx_hal_i2c_c_0eb271f417I2C_Master_ISR_ITEP19__I2C_HandleTypeDefjj) for [local to stm32f0xx_hal_i2c_c]::I2C_Master_ISR_IT(__I2C_HandleTypeDef*, unsigned, unsigned)
    stm32f0xx_hal_i2c.o(i.HAL_I2C_Master_Transmit_IT) refers to stm32f0xx_hal_i2c.o(i._ZN41_INTERNAL_19_stm32f0xx_hal_i2c_c_0eb271f418I2C_TransferConfigEP19__I2C_HandleTypeDefthjj) for [local to stm32f0xx_hal_i2c_c]::I2C_TransferConfig(__I2C_HandleTypeDef*, unsigned short, unsigned char, unsigned, unsigned)
    stm32f0xx_hal_i2c.o(i.HAL_I2C_Master_Transmit_IT) refers to stm32f0xx_hal_i2c.o(i._ZN41_INTERNAL_19_stm32f0xx_hal_i2c_c_0eb271f414I2C_Enable_IRQEP19__I2C_HandleTypeDeft) for [local to stm32f0xx_hal_i2c_c]::I2C_Enable_IRQ(__I2C_HandleTypeDef*, unsigned short)
    stm32f0xx_hal_i2c.o(i.HAL_I2C_Master_Transmit_IT) refers to stm32f0xx_hal_i2c.o(i._ZN41_INTERNAL_19_stm32f0xx_hal_i2c_c_0eb271f417I2C_Master_ISR_ITEP19__I2C_HandleTypeDefjj) for [local to stm32f0xx_hal_i2c_c]::I2C_Master_ISR_IT(__I2C_HandleTypeDef*, unsigned, unsigned)
    stm32f0xx_hal_i2c.o(i.HAL_I2C_Mem_Read) refers to stm32f0xx_hal.o(i.HAL_GetTick) for HAL_GetTick
    stm32f0xx_hal_i2c.o(i.HAL_I2C_Mem_Read) refers to stm32f0xx_hal_i2c.o(i._ZN41_INTERNAL_19_stm32f0xx_hal_i2c_c_0eb271f426I2C_WaitOnFlagUntilTimeoutEP19__I2C_HandleTypeDefj10FlagStatusjj) for [local to stm32f0xx_hal_i2c_c]::I2C_WaitOnFlagUntilTimeout(__I2C_HandleTypeDef*, unsigned, FlagStatus, unsigned, unsigned)
    stm32f0xx_hal_i2c.o(i.HAL_I2C_Mem_Read) refers to stm32f0xx_hal_i2c.o(i._ZN41_INTERNAL_19_stm32f0xx_hal_i2c_c_0eb271f421I2C_RequestMemoryReadEP19__I2C_HandleTypeDeftttjj) for [local to stm32f0xx_hal_i2c_c]::I2C_RequestMemoryRead(__I2C_HandleTypeDef*, unsigned short, unsigned short, unsigned short, unsigned, unsigned)
    stm32f0xx_hal_i2c.o(i.HAL_I2C_Mem_Read) refers to stm32f0xx_hal_i2c.o(i._ZN41_INTERNAL_19_stm32f0xx_hal_i2c_c_0eb271f418I2C_TransferConfigEP19__I2C_HandleTypeDefthjj) for [local to stm32f0xx_hal_i2c_c]::I2C_TransferConfig(__I2C_HandleTypeDef*, unsigned short, unsigned char, unsigned, unsigned)
    stm32f0xx_hal_i2c.o(i.HAL_I2C_Mem_Read) refers to stm32f0xx_hal_i2c.o(i._ZN41_INTERNAL_19_stm32f0xx_hal_i2c_c_0eb271f430I2C_WaitOnSTOPFlagUntilTimeoutEP19__I2C_HandleTypeDefjj) for [local to stm32f0xx_hal_i2c_c]::I2C_WaitOnSTOPFlagUntilTimeout(__I2C_HandleTypeDef*, unsigned, unsigned)
    stm32f0xx_hal_i2c.o(i.HAL_I2C_Mem_Read_DMA) refers to stm32f0xx_hal.o(i.HAL_GetTick) for HAL_GetTick
    stm32f0xx_hal_i2c.o(i.HAL_I2C_Mem_Read_DMA) refers to stm32f0xx_hal_i2c.o(i._ZN41_INTERNAL_19_stm32f0xx_hal_i2c_c_0eb271f421I2C_RequestMemoryReadEP19__I2C_HandleTypeDeftttjj) for [local to stm32f0xx_hal_i2c_c]::I2C_RequestMemoryRead(__I2C_HandleTypeDef*, unsigned short, unsigned short, unsigned short, unsigned, unsigned)
    stm32f0xx_hal_i2c.o(i.HAL_I2C_Mem_Read_DMA) refers to stm32f0xx_hal_dma.o(i.HAL_DMA_Start_IT) for HAL_DMA_Start_IT
    stm32f0xx_hal_i2c.o(i.HAL_I2C_Mem_Read_DMA) refers to stm32f0xx_hal_i2c.o(i._ZN41_INTERNAL_19_stm32f0xx_hal_i2c_c_0eb271f418I2C_TransferConfigEP19__I2C_HandleTypeDefthjj) for [local to stm32f0xx_hal_i2c_c]::I2C_TransferConfig(__I2C_HandleTypeDef*, unsigned short, unsigned char, unsigned, unsigned)
    stm32f0xx_hal_i2c.o(i.HAL_I2C_Mem_Read_DMA) refers to stm32f0xx_hal_i2c.o(i._ZN41_INTERNAL_19_stm32f0xx_hal_i2c_c_0eb271f414I2C_Enable_IRQEP19__I2C_HandleTypeDeft) for [local to stm32f0xx_hal_i2c_c]::I2C_Enable_IRQ(__I2C_HandleTypeDef*, unsigned short)
    stm32f0xx_hal_i2c.o(i.HAL_I2C_Mem_Read_DMA) refers to stm32f0xx_hal_i2c.o(i._ZN41_INTERNAL_19_stm32f0xx_hal_i2c_c_0eb271f418I2C_Master_ISR_DMAEP19__I2C_HandleTypeDefjj) for [local to stm32f0xx_hal_i2c_c]::I2C_Master_ISR_DMA(__I2C_HandleTypeDef*, unsigned, unsigned)
    stm32f0xx_hal_i2c.o(i.HAL_I2C_Mem_Read_DMA) refers to stm32f0xx_hal_i2c.o(i._ZN41_INTERNAL_19_stm32f0xx_hal_i2c_c_0eb271f424I2C_DMAMasterReceiveCpltEP19__DMA_HandleTypeDef) for [local to stm32f0xx_hal_i2c_c]::I2C_DMAMasterReceiveCplt(__DMA_HandleTypeDef*)
    stm32f0xx_hal_i2c.o(i.HAL_I2C_Mem_Read_DMA) refers to stm32f0xx_hal_i2c.o(i._ZN41_INTERNAL_19_stm32f0xx_hal_i2c_c_0eb271f412I2C_DMAErrorEP19__DMA_HandleTypeDef) for [local to stm32f0xx_hal_i2c_c]::I2C_DMAError(__DMA_HandleTypeDef*)
    stm32f0xx_hal_i2c.o(i.HAL_I2C_Mem_Read_IT) refers to stm32f0xx_hal.o(i.HAL_GetTick) for HAL_GetTick
    stm32f0xx_hal_i2c.o(i.HAL_I2C_Mem_Read_IT) refers to stm32f0xx_hal_i2c.o(i._ZN41_INTERNAL_19_stm32f0xx_hal_i2c_c_0eb271f421I2C_RequestMemoryReadEP19__I2C_HandleTypeDeftttjj) for [local to stm32f0xx_hal_i2c_c]::I2C_RequestMemoryRead(__I2C_HandleTypeDef*, unsigned short, unsigned short, unsigned short, unsigned, unsigned)
    stm32f0xx_hal_i2c.o(i.HAL_I2C_Mem_Read_IT) refers to stm32f0xx_hal_i2c.o(i._ZN41_INTERNAL_19_stm32f0xx_hal_i2c_c_0eb271f418I2C_TransferConfigEP19__I2C_HandleTypeDefthjj) for [local to stm32f0xx_hal_i2c_c]::I2C_TransferConfig(__I2C_HandleTypeDef*, unsigned short, unsigned char, unsigned, unsigned)
    stm32f0xx_hal_i2c.o(i.HAL_I2C_Mem_Read_IT) refers to stm32f0xx_hal_i2c.o(i._ZN41_INTERNAL_19_stm32f0xx_hal_i2c_c_0eb271f414I2C_Enable_IRQEP19__I2C_HandleTypeDeft) for [local to stm32f0xx_hal_i2c_c]::I2C_Enable_IRQ(__I2C_HandleTypeDef*, unsigned short)
    stm32f0xx_hal_i2c.o(i.HAL_I2C_Mem_Read_IT) refers to stm32f0xx_hal_i2c.o(i._ZN41_INTERNAL_19_stm32f0xx_hal_i2c_c_0eb271f417I2C_Master_ISR_ITEP19__I2C_HandleTypeDefjj) for [local to stm32f0xx_hal_i2c_c]::I2C_Master_ISR_IT(__I2C_HandleTypeDef*, unsigned, unsigned)
    stm32f0xx_hal_i2c.o(i.HAL_I2C_Mem_Write) refers to stm32f0xx_hal.o(i.HAL_GetTick) for HAL_GetTick
    stm32f0xx_hal_i2c.o(i.HAL_I2C_Mem_Write) refers to stm32f0xx_hal_i2c.o(i._ZN41_INTERNAL_19_stm32f0xx_hal_i2c_c_0eb271f426I2C_WaitOnFlagUntilTimeoutEP19__I2C_HandleTypeDefj10FlagStatusjj) for [local to stm32f0xx_hal_i2c_c]::I2C_WaitOnFlagUntilTimeout(__I2C_HandleTypeDef*, unsigned, FlagStatus, unsigned, unsigned)
    stm32f0xx_hal_i2c.o(i.HAL_I2C_Mem_Write) refers to stm32f0xx_hal_i2c.o(i._ZN41_INTERNAL_19_stm32f0xx_hal_i2c_c_0eb271f422I2C_RequestMemoryWriteEP19__I2C_HandleTypeDeftttjj) for [local to stm32f0xx_hal_i2c_c]::I2C_RequestMemoryWrite(__I2C_HandleTypeDef*, unsigned short, unsigned short, unsigned short, unsigned, unsigned)
    stm32f0xx_hal_i2c.o(i.HAL_I2C_Mem_Write) refers to stm32f0xx_hal_i2c.o(i._ZN41_INTERNAL_19_stm32f0xx_hal_i2c_c_0eb271f418I2C_TransferConfigEP19__I2C_HandleTypeDefthjj) for [local to stm32f0xx_hal_i2c_c]::I2C_TransferConfig(__I2C_HandleTypeDef*, unsigned short, unsigned char, unsigned, unsigned)
    stm32f0xx_hal_i2c.o(i.HAL_I2C_Mem_Write) refers to stm32f0xx_hal_i2c.o(i._ZN41_INTERNAL_19_stm32f0xx_hal_i2c_c_0eb271f430I2C_WaitOnTXISFlagUntilTimeoutEP19__I2C_HandleTypeDefjj) for [local to stm32f0xx_hal_i2c_c]::I2C_WaitOnTXISFlagUntilTimeout(__I2C_HandleTypeDef*, unsigned, unsigned)
    stm32f0xx_hal_i2c.o(i.HAL_I2C_Mem_Write) refers to stm32f0xx_hal_i2c.o(i._ZN41_INTERNAL_19_stm32f0xx_hal_i2c_c_0eb271f430I2C_WaitOnSTOPFlagUntilTimeoutEP19__I2C_HandleTypeDefjj) for [local to stm32f0xx_hal_i2c_c]::I2C_WaitOnSTOPFlagUntilTimeout(__I2C_HandleTypeDef*, unsigned, unsigned)
    stm32f0xx_hal_i2c.o(i.HAL_I2C_Mem_Write_DMA) refers to stm32f0xx_hal.o(i.HAL_GetTick) for HAL_GetTick
    stm32f0xx_hal_i2c.o(i.HAL_I2C_Mem_Write_DMA) refers to stm32f0xx_hal_i2c.o(i._ZN41_INTERNAL_19_stm32f0xx_hal_i2c_c_0eb271f422I2C_RequestMemoryWriteEP19__I2C_HandleTypeDeftttjj) for [local to stm32f0xx_hal_i2c_c]::I2C_RequestMemoryWrite(__I2C_HandleTypeDef*, unsigned short, unsigned short, unsigned short, unsigned, unsigned)
    stm32f0xx_hal_i2c.o(i.HAL_I2C_Mem_Write_DMA) refers to stm32f0xx_hal_dma.o(i.HAL_DMA_Start_IT) for HAL_DMA_Start_IT
    stm32f0xx_hal_i2c.o(i.HAL_I2C_Mem_Write_DMA) refers to stm32f0xx_hal_i2c.o(i._ZN41_INTERNAL_19_stm32f0xx_hal_i2c_c_0eb271f418I2C_TransferConfigEP19__I2C_HandleTypeDefthjj) for [local to stm32f0xx_hal_i2c_c]::I2C_TransferConfig(__I2C_HandleTypeDef*, unsigned short, unsigned char, unsigned, unsigned)
    stm32f0xx_hal_i2c.o(i.HAL_I2C_Mem_Write_DMA) refers to stm32f0xx_hal_i2c.o(i._ZN41_INTERNAL_19_stm32f0xx_hal_i2c_c_0eb271f414I2C_Enable_IRQEP19__I2C_HandleTypeDeft) for [local to stm32f0xx_hal_i2c_c]::I2C_Enable_IRQ(__I2C_HandleTypeDef*, unsigned short)
    stm32f0xx_hal_i2c.o(i.HAL_I2C_Mem_Write_DMA) refers to stm32f0xx_hal_i2c.o(i._ZN41_INTERNAL_19_stm32f0xx_hal_i2c_c_0eb271f418I2C_Master_ISR_DMAEP19__I2C_HandleTypeDefjj) for [local to stm32f0xx_hal_i2c_c]::I2C_Master_ISR_DMA(__I2C_HandleTypeDef*, unsigned, unsigned)
    stm32f0xx_hal_i2c.o(i.HAL_I2C_Mem_Write_DMA) refers to stm32f0xx_hal_i2c.o(i._ZN41_INTERNAL_19_stm32f0xx_hal_i2c_c_0eb271f425I2C_DMAMasterTransmitCpltEP19__DMA_HandleTypeDef) for [local to stm32f0xx_hal_i2c_c]::I2C_DMAMasterTransmitCplt(__DMA_HandleTypeDef*)
    stm32f0xx_hal_i2c.o(i.HAL_I2C_Mem_Write_DMA) refers to stm32f0xx_hal_i2c.o(i._ZN41_INTERNAL_19_stm32f0xx_hal_i2c_c_0eb271f412I2C_DMAErrorEP19__DMA_HandleTypeDef) for [local to stm32f0xx_hal_i2c_c]::I2C_DMAError(__DMA_HandleTypeDef*)
    stm32f0xx_hal_i2c.o(i.HAL_I2C_Mem_Write_IT) refers to stm32f0xx_hal.o(i.HAL_GetTick) for HAL_GetTick
    stm32f0xx_hal_i2c.o(i.HAL_I2C_Mem_Write_IT) refers to stm32f0xx_hal_i2c.o(i._ZN41_INTERNAL_19_stm32f0xx_hal_i2c_c_0eb271f422I2C_RequestMemoryWriteEP19__I2C_HandleTypeDeftttjj) for [local to stm32f0xx_hal_i2c_c]::I2C_RequestMemoryWrite(__I2C_HandleTypeDef*, unsigned short, unsigned short, unsigned short, unsigned, unsigned)
    stm32f0xx_hal_i2c.o(i.HAL_I2C_Mem_Write_IT) refers to stm32f0xx_hal_i2c.o(i._ZN41_INTERNAL_19_stm32f0xx_hal_i2c_c_0eb271f418I2C_TransferConfigEP19__I2C_HandleTypeDefthjj) for [local to stm32f0xx_hal_i2c_c]::I2C_TransferConfig(__I2C_HandleTypeDef*, unsigned short, unsigned char, unsigned, unsigned)
    stm32f0xx_hal_i2c.o(i.HAL_I2C_Mem_Write_IT) refers to stm32f0xx_hal_i2c.o(i._ZN41_INTERNAL_19_stm32f0xx_hal_i2c_c_0eb271f414I2C_Enable_IRQEP19__I2C_HandleTypeDeft) for [local to stm32f0xx_hal_i2c_c]::I2C_Enable_IRQ(__I2C_HandleTypeDef*, unsigned short)
    stm32f0xx_hal_i2c.o(i.HAL_I2C_Mem_Write_IT) refers to stm32f0xx_hal_i2c.o(i._ZN41_INTERNAL_19_stm32f0xx_hal_i2c_c_0eb271f417I2C_Master_ISR_ITEP19__I2C_HandleTypeDefjj) for [local to stm32f0xx_hal_i2c_c]::I2C_Master_ISR_IT(__I2C_HandleTypeDef*, unsigned, unsigned)
    stm32f0xx_hal_i2c.o(i.HAL_I2C_Slave_Receive) refers to stm32f0xx_hal.o(i.HAL_GetTick) for HAL_GetTick
    stm32f0xx_hal_i2c.o(i.HAL_I2C_Slave_Receive) refers to stm32f0xx_hal_i2c.o(i._ZN41_INTERNAL_19_stm32f0xx_hal_i2c_c_0eb271f426I2C_WaitOnFlagUntilTimeoutEP19__I2C_HandleTypeDefj10FlagStatusjj) for [local to stm32f0xx_hal_i2c_c]::I2C_WaitOnFlagUntilTimeout(__I2C_HandleTypeDef*, unsigned, FlagStatus, unsigned, unsigned)
    stm32f0xx_hal_i2c.o(i.HAL_I2C_Slave_Receive) refers to stm32f0xx_hal_i2c.o(i._ZN41_INTERNAL_19_stm32f0xx_hal_i2c_c_0eb271f430I2C_WaitOnRXNEFlagUntilTimeoutEP19__I2C_HandleTypeDefjj) for [local to stm32f0xx_hal_i2c_c]::I2C_WaitOnRXNEFlagUntilTimeout(__I2C_HandleTypeDef*, unsigned, unsigned)
    stm32f0xx_hal_i2c.o(i.HAL_I2C_Slave_Receive) refers to stm32f0xx_hal_i2c.o(i._ZN41_INTERNAL_19_stm32f0xx_hal_i2c_c_0eb271f430I2C_WaitOnSTOPFlagUntilTimeoutEP19__I2C_HandleTypeDefjj) for [local to stm32f0xx_hal_i2c_c]::I2C_WaitOnSTOPFlagUntilTimeout(__I2C_HandleTypeDef*, unsigned, unsigned)
    stm32f0xx_hal_i2c.o(i.HAL_I2C_Slave_Receive_DMA) refers to stm32f0xx_hal_dma.o(i.HAL_DMA_Start_IT) for HAL_DMA_Start_IT
    stm32f0xx_hal_i2c.o(i.HAL_I2C_Slave_Receive_DMA) refers to stm32f0xx_hal_i2c.o(i._ZN41_INTERNAL_19_stm32f0xx_hal_i2c_c_0eb271f414I2C_Enable_IRQEP19__I2C_HandleTypeDeft) for [local to stm32f0xx_hal_i2c_c]::I2C_Enable_IRQ(__I2C_HandleTypeDef*, unsigned short)
    stm32f0xx_hal_i2c.o(i.HAL_I2C_Slave_Receive_DMA) refers to stm32f0xx_hal_i2c.o(i._ZN41_INTERNAL_19_stm32f0xx_hal_i2c_c_0eb271f417I2C_Slave_ISR_DMAEP19__I2C_HandleTypeDefjj) for [local to stm32f0xx_hal_i2c_c]::I2C_Slave_ISR_DMA(__I2C_HandleTypeDef*, unsigned, unsigned)
    stm32f0xx_hal_i2c.o(i.HAL_I2C_Slave_Receive_DMA) refers to stm32f0xx_hal_i2c.o(i._ZN41_INTERNAL_19_stm32f0xx_hal_i2c_c_0eb271f423I2C_DMASlaveReceiveCpltEP19__DMA_HandleTypeDef) for [local to stm32f0xx_hal_i2c_c]::I2C_DMASlaveReceiveCplt(__DMA_HandleTypeDef*)
    stm32f0xx_hal_i2c.o(i.HAL_I2C_Slave_Receive_DMA) refers to stm32f0xx_hal_i2c.o(i._ZN41_INTERNAL_19_stm32f0xx_hal_i2c_c_0eb271f412I2C_DMAErrorEP19__DMA_HandleTypeDef) for [local to stm32f0xx_hal_i2c_c]::I2C_DMAError(__DMA_HandleTypeDef*)
    stm32f0xx_hal_i2c.o(i.HAL_I2C_Slave_Receive_IT) refers to stm32f0xx_hal_i2c.o(i._ZN41_INTERNAL_19_stm32f0xx_hal_i2c_c_0eb271f414I2C_Enable_IRQEP19__I2C_HandleTypeDeft) for [local to stm32f0xx_hal_i2c_c]::I2C_Enable_IRQ(__I2C_HandleTypeDef*, unsigned short)
    stm32f0xx_hal_i2c.o(i.HAL_I2C_Slave_Receive_IT) refers to stm32f0xx_hal_i2c.o(i._ZN41_INTERNAL_19_stm32f0xx_hal_i2c_c_0eb271f416I2C_Slave_ISR_ITEP19__I2C_HandleTypeDefjj) for [local to stm32f0xx_hal_i2c_c]::I2C_Slave_ISR_IT(__I2C_HandleTypeDef*, unsigned, unsigned)
    stm32f0xx_hal_i2c.o(i.HAL_I2C_Slave_Sequential_Receive_IT) refers to stm32f0xx_hal_i2c.o(i._ZN41_INTERNAL_19_stm32f0xx_hal_i2c_c_0eb271f415I2C_Disable_IRQEP19__I2C_HandleTypeDeft) for [local to stm32f0xx_hal_i2c_c]::I2C_Disable_IRQ(__I2C_HandleTypeDef*, unsigned short)
    stm32f0xx_hal_i2c.o(i.HAL_I2C_Slave_Sequential_Receive_IT) refers to stm32f0xx_hal_i2c.o(i._ZN41_INTERNAL_19_stm32f0xx_hal_i2c_c_0eb271f414I2C_Enable_IRQEP19__I2C_HandleTypeDeft) for [local to stm32f0xx_hal_i2c_c]::I2C_Enable_IRQ(__I2C_HandleTypeDef*, unsigned short)
    stm32f0xx_hal_i2c.o(i.HAL_I2C_Slave_Sequential_Receive_IT) refers to stm32f0xx_hal_i2c.o(i._ZN41_INTERNAL_19_stm32f0xx_hal_i2c_c_0eb271f416I2C_Slave_ISR_ITEP19__I2C_HandleTypeDefjj) for [local to stm32f0xx_hal_i2c_c]::I2C_Slave_ISR_IT(__I2C_HandleTypeDef*, unsigned, unsigned)
    stm32f0xx_hal_i2c.o(i.HAL_I2C_Slave_Sequential_Transmit_IT) refers to stm32f0xx_hal_i2c.o(i._ZN41_INTERNAL_19_stm32f0xx_hal_i2c_c_0eb271f415I2C_Disable_IRQEP19__I2C_HandleTypeDeft) for [local to stm32f0xx_hal_i2c_c]::I2C_Disable_IRQ(__I2C_HandleTypeDef*, unsigned short)
    stm32f0xx_hal_i2c.o(i.HAL_I2C_Slave_Sequential_Transmit_IT) refers to stm32f0xx_hal_i2c.o(i._ZN41_INTERNAL_19_stm32f0xx_hal_i2c_c_0eb271f414I2C_Enable_IRQEP19__I2C_HandleTypeDeft) for [local to stm32f0xx_hal_i2c_c]::I2C_Enable_IRQ(__I2C_HandleTypeDef*, unsigned short)
    stm32f0xx_hal_i2c.o(i.HAL_I2C_Slave_Sequential_Transmit_IT) refers to stm32f0xx_hal_i2c.o(i._ZN41_INTERNAL_19_stm32f0xx_hal_i2c_c_0eb271f416I2C_Slave_ISR_ITEP19__I2C_HandleTypeDefjj) for [local to stm32f0xx_hal_i2c_c]::I2C_Slave_ISR_IT(__I2C_HandleTypeDef*, unsigned, unsigned)
    stm32f0xx_hal_i2c.o(i.HAL_I2C_Slave_Transmit) refers to stm32f0xx_hal.o(i.HAL_GetTick) for HAL_GetTick
    stm32f0xx_hal_i2c.o(i.HAL_I2C_Slave_Transmit) refers to stm32f0xx_hal_i2c.o(i._ZN41_INTERNAL_19_stm32f0xx_hal_i2c_c_0eb271f426I2C_WaitOnFlagUntilTimeoutEP19__I2C_HandleTypeDefj10FlagStatusjj) for [local to stm32f0xx_hal_i2c_c]::I2C_WaitOnFlagUntilTimeout(__I2C_HandleTypeDef*, unsigned, FlagStatus, unsigned, unsigned)
    stm32f0xx_hal_i2c.o(i.HAL_I2C_Slave_Transmit) refers to stm32f0xx_hal_i2c.o(i._ZN41_INTERNAL_19_stm32f0xx_hal_i2c_c_0eb271f430I2C_WaitOnTXISFlagUntilTimeoutEP19__I2C_HandleTypeDefjj) for [local to stm32f0xx_hal_i2c_c]::I2C_WaitOnTXISFlagUntilTimeout(__I2C_HandleTypeDef*, unsigned, unsigned)
    stm32f0xx_hal_i2c.o(i.HAL_I2C_Slave_Transmit) refers to stm32f0xx_hal_i2c.o(i._ZN41_INTERNAL_19_stm32f0xx_hal_i2c_c_0eb271f430I2C_WaitOnSTOPFlagUntilTimeoutEP19__I2C_HandleTypeDefjj) for [local to stm32f0xx_hal_i2c_c]::I2C_WaitOnSTOPFlagUntilTimeout(__I2C_HandleTypeDef*, unsigned, unsigned)
    stm32f0xx_hal_i2c.o(i.HAL_I2C_Slave_Transmit_DMA) refers to stm32f0xx_hal_dma.o(i.HAL_DMA_Start_IT) for HAL_DMA_Start_IT
    stm32f0xx_hal_i2c.o(i.HAL_I2C_Slave_Transmit_DMA) refers to stm32f0xx_hal_i2c.o(i._ZN41_INTERNAL_19_stm32f0xx_hal_i2c_c_0eb271f414I2C_Enable_IRQEP19__I2C_HandleTypeDeft) for [local to stm32f0xx_hal_i2c_c]::I2C_Enable_IRQ(__I2C_HandleTypeDef*, unsigned short)
    stm32f0xx_hal_i2c.o(i.HAL_I2C_Slave_Transmit_DMA) refers to stm32f0xx_hal_i2c.o(i._ZN41_INTERNAL_19_stm32f0xx_hal_i2c_c_0eb271f417I2C_Slave_ISR_DMAEP19__I2C_HandleTypeDefjj) for [local to stm32f0xx_hal_i2c_c]::I2C_Slave_ISR_DMA(__I2C_HandleTypeDef*, unsigned, unsigned)
    stm32f0xx_hal_i2c.o(i.HAL_I2C_Slave_Transmit_DMA) refers to stm32f0xx_hal_i2c.o(i._ZN41_INTERNAL_19_stm32f0xx_hal_i2c_c_0eb271f424I2C_DMASlaveTransmitCpltEP19__DMA_HandleTypeDef) for [local to stm32f0xx_hal_i2c_c]::I2C_DMASlaveTransmitCplt(__DMA_HandleTypeDef*)
    stm32f0xx_hal_i2c.o(i.HAL_I2C_Slave_Transmit_DMA) refers to stm32f0xx_hal_i2c.o(i._ZN41_INTERNAL_19_stm32f0xx_hal_i2c_c_0eb271f412I2C_DMAErrorEP19__DMA_HandleTypeDef) for [local to stm32f0xx_hal_i2c_c]::I2C_DMAError(__DMA_HandleTypeDef*)
    stm32f0xx_hal_i2c.o(i.HAL_I2C_Slave_Transmit_IT) refers to stm32f0xx_hal_i2c.o(i._ZN41_INTERNAL_19_stm32f0xx_hal_i2c_c_0eb271f414I2C_Enable_IRQEP19__I2C_HandleTypeDeft) for [local to stm32f0xx_hal_i2c_c]::I2C_Enable_IRQ(__I2C_HandleTypeDef*, unsigned short)
    stm32f0xx_hal_i2c.o(i.HAL_I2C_Slave_Transmit_IT) refers to stm32f0xx_hal_i2c.o(i._ZN41_INTERNAL_19_stm32f0xx_hal_i2c_c_0eb271f416I2C_Slave_ISR_ITEP19__I2C_HandleTypeDefjj) for [local to stm32f0xx_hal_i2c_c]::I2C_Slave_ISR_IT(__I2C_HandleTypeDef*, unsigned, unsigned)
    stm32f0xx_hal_i2c.o(i._ZN41_INTERNAL_19_stm32f0xx_hal_i2c_c_0eb271f411I2C_ITErrorEP19__I2C_HandleTypeDefj) refers to stm32f0xx_hal_i2c.o(i._ZN41_INTERNAL_19_stm32f0xx_hal_i2c_c_0eb271f415I2C_Disable_IRQEP19__I2C_HandleTypeDeft) for [local to stm32f0xx_hal_i2c_c]::I2C_Disable_IRQ(__I2C_HandleTypeDef*, unsigned short)
    stm32f0xx_hal_i2c.o(i._ZN41_INTERNAL_19_stm32f0xx_hal_i2c_c_0eb271f411I2C_ITErrorEP19__I2C_HandleTypeDefj) refers to stm32f0xx_hal_dma.o(i.HAL_DMA_Abort_IT) for HAL_DMA_Abort_IT
    stm32f0xx_hal_i2c.o(i._ZN41_INTERNAL_19_stm32f0xx_hal_i2c_c_0eb271f411I2C_ITErrorEP19__I2C_HandleTypeDefj) refers to stm32f0xx_hal_i2c.o(i.HAL_I2C_ErrorCallback) for HAL_I2C_ErrorCallback
    stm32f0xx_hal_i2c.o(i._ZN41_INTERNAL_19_stm32f0xx_hal_i2c_c_0eb271f411I2C_ITErrorEP19__I2C_HandleTypeDefj) refers to stm32f0xx_hal_i2c.o(i.HAL_I2C_AbortCpltCallback) for HAL_I2C_AbortCpltCallback
    stm32f0xx_hal_i2c.o(i._ZN41_INTERNAL_19_stm32f0xx_hal_i2c_c_0eb271f411I2C_ITErrorEP19__I2C_HandleTypeDefj) refers to stm32f0xx_hal_i2c.o(i._ZN41_INTERNAL_19_stm32f0xx_hal_i2c_c_0eb271f412I2C_DMAAbortEP19__DMA_HandleTypeDef) for [local to stm32f0xx_hal_i2c_c]::I2C_DMAAbort(__DMA_HandleTypeDef*)
    stm32f0xx_hal_i2c.o(i._ZN41_INTERNAL_19_stm32f0xx_hal_i2c_c_0eb271f411I2C_ITErrorEP19__I2C_HandleTypeDefj) refers to stm32f0xx_hal_i2c.o(i._ZN41_INTERNAL_19_stm32f0xx_hal_i2c_c_0eb271f416I2C_Slave_ISR_ITEP19__I2C_HandleTypeDefjj) for [local to stm32f0xx_hal_i2c_c]::I2C_Slave_ISR_IT(__I2C_HandleTypeDef*, unsigned, unsigned)
    stm32f0xx_hal_i2c.o(i._ZN41_INTERNAL_19_stm32f0xx_hal_i2c_c_0eb271f412I2C_DMAAbortEP19__DMA_HandleTypeDef) refers to stm32f0xx_hal_i2c.o(i.HAL_I2C_ErrorCallback) for HAL_I2C_ErrorCallback
    stm32f0xx_hal_i2c.o(i._ZN41_INTERNAL_19_stm32f0xx_hal_i2c_c_0eb271f412I2C_DMAAbortEP19__DMA_HandleTypeDef) refers to stm32f0xx_hal_i2c.o(i.HAL_I2C_AbortCpltCallback) for HAL_I2C_AbortCpltCallback
    stm32f0xx_hal_i2c.o(i._ZN41_INTERNAL_19_stm32f0xx_hal_i2c_c_0eb271f412I2C_DMAErrorEP19__DMA_HandleTypeDef) refers to stm32f0xx_hal_i2c.o(i._ZN41_INTERNAL_19_stm32f0xx_hal_i2c_c_0eb271f411I2C_ITErrorEP19__I2C_HandleTypeDefj) for [local to stm32f0xx_hal_i2c_c]::I2C_ITError(__I2C_HandleTypeDef*, unsigned)
    stm32f0xx_hal_i2c.o(i._ZN41_INTERNAL_19_stm32f0xx_hal_i2c_c_0eb271f414I2C_Enable_IRQEP19__I2C_HandleTypeDeft) refers to stm32f0xx_hal_i2c.o(i._ZN41_INTERNAL_19_stm32f0xx_hal_i2c_c_0eb271f418I2C_Master_ISR_DMAEP19__I2C_HandleTypeDefjj) for [local to stm32f0xx_hal_i2c_c]::I2C_Master_ISR_DMA(__I2C_HandleTypeDef*, unsigned, unsigned)
    stm32f0xx_hal_i2c.o(i._ZN41_INTERNAL_19_stm32f0xx_hal_i2c_c_0eb271f414I2C_Enable_IRQEP19__I2C_HandleTypeDeft) refers to stm32f0xx_hal_i2c.o(i._ZN41_INTERNAL_19_stm32f0xx_hal_i2c_c_0eb271f417I2C_Slave_ISR_DMAEP19__I2C_HandleTypeDefjj) for [local to stm32f0xx_hal_i2c_c]::I2C_Slave_ISR_DMA(__I2C_HandleTypeDef*, unsigned, unsigned)
    stm32f0xx_hal_i2c.o(i._ZN41_INTERNAL_19_stm32f0xx_hal_i2c_c_0eb271f414I2C_ITAddrCpltEP19__I2C_HandleTypeDefj) refers to stm32f0xx_hal_i2c.o(i._ZN41_INTERNAL_19_stm32f0xx_hal_i2c_c_0eb271f415I2C_Disable_IRQEP19__I2C_HandleTypeDeft) for [local to stm32f0xx_hal_i2c_c]::I2C_Disable_IRQ(__I2C_HandleTypeDef*, unsigned short)
    stm32f0xx_hal_i2c.o(i._ZN41_INTERNAL_19_stm32f0xx_hal_i2c_c_0eb271f414I2C_ITAddrCpltEP19__I2C_HandleTypeDefj) refers to stm32f0xx_hal_i2c.o(i.HAL_I2C_AddrCallback) for HAL_I2C_AddrCallback
    stm32f0xx_hal_i2c.o(i._ZN41_INTERNAL_19_stm32f0xx_hal_i2c_c_0eb271f415I2C_ITSlaveCpltEP19__I2C_HandleTypeDefj) refers to stm32f0xx_hal_i2c.o(i._ZN41_INTERNAL_19_stm32f0xx_hal_i2c_c_0eb271f415I2C_Disable_IRQEP19__I2C_HandleTypeDeft) for [local to stm32f0xx_hal_i2c_c]::I2C_Disable_IRQ(__I2C_HandleTypeDef*, unsigned short)
    stm32f0xx_hal_i2c.o(i._ZN41_INTERNAL_19_stm32f0xx_hal_i2c_c_0eb271f415I2C_ITSlaveCpltEP19__I2C_HandleTypeDefj) refers to stm32f0xx_hal_i2c.o(i._ZN41_INTERNAL_19_stm32f0xx_hal_i2c_c_0eb271f414I2C_Flush_TXDREP19__I2C_HandleTypeDef) for [local to stm32f0xx_hal_i2c_c]::I2C_Flush_TXDR(__I2C_HandleTypeDef*)
    stm32f0xx_hal_i2c.o(i._ZN41_INTERNAL_19_stm32f0xx_hal_i2c_c_0eb271f415I2C_ITSlaveCpltEP19__I2C_HandleTypeDefj) refers to stm32f0xx_hal_i2c.o(i._ZN41_INTERNAL_19_stm32f0xx_hal_i2c_c_0eb271f411I2C_ITErrorEP19__I2C_HandleTypeDefj) for [local to stm32f0xx_hal_i2c_c]::I2C_ITError(__I2C_HandleTypeDef*, unsigned)
    stm32f0xx_hal_i2c.o(i._ZN41_INTERNAL_19_stm32f0xx_hal_i2c_c_0eb271f415I2C_ITSlaveCpltEP19__I2C_HandleTypeDefj) refers to stm32f0xx_hal_i2c.o(i._ZN41_INTERNAL_19_stm32f0xx_hal_i2c_c_0eb271f416I2C_ITListenCpltEP19__I2C_HandleTypeDefj) for [local to stm32f0xx_hal_i2c_c]::I2C_ITListenCplt(__I2C_HandleTypeDef*, unsigned)
    stm32f0xx_hal_i2c.o(i._ZN41_INTERNAL_19_stm32f0xx_hal_i2c_c_0eb271f415I2C_ITSlaveCpltEP19__I2C_HandleTypeDefj) refers to stm32f0xx_hal_i2c.o(i.HAL_I2C_ListenCpltCallback) for HAL_I2C_ListenCpltCallback
    stm32f0xx_hal_i2c.o(i._ZN41_INTERNAL_19_stm32f0xx_hal_i2c_c_0eb271f415I2C_ITSlaveCpltEP19__I2C_HandleTypeDefj) refers to stm32f0xx_hal_i2c.o(i.HAL_I2C_SlaveTxCpltCallback) for HAL_I2C_SlaveTxCpltCallback
    stm32f0xx_hal_i2c.o(i._ZN41_INTERNAL_19_stm32f0xx_hal_i2c_c_0eb271f415I2C_ITSlaveCpltEP19__I2C_HandleTypeDefj) refers to stm32f0xx_hal_i2c.o(i.HAL_I2C_SlaveRxCpltCallback) for HAL_I2C_SlaveRxCpltCallback
    stm32f0xx_hal_i2c.o(i._ZN41_INTERNAL_19_stm32f0xx_hal_i2c_c_0eb271f416I2C_ITListenCpltEP19__I2C_HandleTypeDefj) refers to stm32f0xx_hal_i2c.o(i._ZN41_INTERNAL_19_stm32f0xx_hal_i2c_c_0eb271f415I2C_Disable_IRQEP19__I2C_HandleTypeDeft) for [local to stm32f0xx_hal_i2c_c]::I2C_Disable_IRQ(__I2C_HandleTypeDef*, unsigned short)
    stm32f0xx_hal_i2c.o(i._ZN41_INTERNAL_19_stm32f0xx_hal_i2c_c_0eb271f416I2C_ITListenCpltEP19__I2C_HandleTypeDefj) refers to stm32f0xx_hal_i2c.o(i.HAL_I2C_ListenCpltCallback) for HAL_I2C_ListenCpltCallback
    stm32f0xx_hal_i2c.o(i._ZN41_INTERNAL_19_stm32f0xx_hal_i2c_c_0eb271f416I2C_ITMasterCpltEP19__I2C_HandleTypeDefj) refers to stm32f0xx_hal_i2c.o(i._ZN41_INTERNAL_19_stm32f0xx_hal_i2c_c_0eb271f414I2C_Flush_TXDREP19__I2C_HandleTypeDef) for [local to stm32f0xx_hal_i2c_c]::I2C_Flush_TXDR(__I2C_HandleTypeDef*)
    stm32f0xx_hal_i2c.o(i._ZN41_INTERNAL_19_stm32f0xx_hal_i2c_c_0eb271f416I2C_ITMasterCpltEP19__I2C_HandleTypeDefj) refers to stm32f0xx_hal_i2c.o(i._ZN41_INTERNAL_19_stm32f0xx_hal_i2c_c_0eb271f415I2C_Disable_IRQEP19__I2C_HandleTypeDeft) for [local to stm32f0xx_hal_i2c_c]::I2C_Disable_IRQ(__I2C_HandleTypeDef*, unsigned short)
    stm32f0xx_hal_i2c.o(i._ZN41_INTERNAL_19_stm32f0xx_hal_i2c_c_0eb271f416I2C_ITMasterCpltEP19__I2C_HandleTypeDefj) refers to stm32f0xx_hal_i2c.o(i.HAL_I2C_MasterRxCpltCallback) for HAL_I2C_MasterRxCpltCallback
    stm32f0xx_hal_i2c.o(i._ZN41_INTERNAL_19_stm32f0xx_hal_i2c_c_0eb271f416I2C_ITMasterCpltEP19__I2C_HandleTypeDefj) refers to stm32f0xx_hal_i2c.o(i._ZN41_INTERNAL_19_stm32f0xx_hal_i2c_c_0eb271f411I2C_ITErrorEP19__I2C_HandleTypeDefj) for [local to stm32f0xx_hal_i2c_c]::I2C_ITError(__I2C_HandleTypeDef*, unsigned)
    stm32f0xx_hal_i2c.o(i._ZN41_INTERNAL_19_stm32f0xx_hal_i2c_c_0eb271f416I2C_ITMasterCpltEP19__I2C_HandleTypeDefj) refers to stm32f0xx_hal_i2c.o(i.HAL_I2C_MasterTxCpltCallback) for HAL_I2C_MasterTxCpltCallback
    stm32f0xx_hal_i2c.o(i._ZN41_INTERNAL_19_stm32f0xx_hal_i2c_c_0eb271f416I2C_ITMasterCpltEP19__I2C_HandleTypeDefj) refers to stm32f0xx_hal_i2c.o(i.HAL_I2C_MemTxCpltCallback) for HAL_I2C_MemTxCpltCallback
    stm32f0xx_hal_i2c.o(i._ZN41_INTERNAL_19_stm32f0xx_hal_i2c_c_0eb271f416I2C_ITMasterCpltEP19__I2C_HandleTypeDefj) refers to stm32f0xx_hal_i2c.o(i.HAL_I2C_MemRxCpltCallback) for HAL_I2C_MemRxCpltCallback
    stm32f0xx_hal_i2c.o(i._ZN41_INTERNAL_19_stm32f0xx_hal_i2c_c_0eb271f416I2C_Slave_ISR_ITEP19__I2C_HandleTypeDefjj) refers to stm32f0xx_hal_i2c.o(i._ZN41_INTERNAL_19_stm32f0xx_hal_i2c_c_0eb271f416I2C_ITListenCpltEP19__I2C_HandleTypeDefj) for [local to stm32f0xx_hal_i2c_c]::I2C_ITListenCplt(__I2C_HandleTypeDef*, unsigned)
    stm32f0xx_hal_i2c.o(i._ZN41_INTERNAL_19_stm32f0xx_hal_i2c_c_0eb271f416I2C_Slave_ISR_ITEP19__I2C_HandleTypeDefjj) refers to stm32f0xx_hal_i2c.o(i._ZN41_INTERNAL_19_stm32f0xx_hal_i2c_c_0eb271f414I2C_Flush_TXDREP19__I2C_HandleTypeDef) for [local to stm32f0xx_hal_i2c_c]::I2C_Flush_TXDR(__I2C_HandleTypeDef*)
    stm32f0xx_hal_i2c.o(i._ZN41_INTERNAL_19_stm32f0xx_hal_i2c_c_0eb271f416I2C_Slave_ISR_ITEP19__I2C_HandleTypeDefjj) refers to stm32f0xx_hal_i2c.o(i._ZN41_INTERNAL_19_stm32f0xx_hal_i2c_c_0eb271f414I2C_ITAddrCpltEP19__I2C_HandleTypeDefj) for [local to stm32f0xx_hal_i2c_c]::I2C_ITAddrCplt(__I2C_HandleTypeDef*, unsigned)
    stm32f0xx_hal_i2c.o(i._ZN41_INTERNAL_19_stm32f0xx_hal_i2c_c_0eb271f416I2C_Slave_ISR_ITEP19__I2C_HandleTypeDefjj) refers to stm32f0xx_hal_i2c.o(i._ZN41_INTERNAL_19_stm32f0xx_hal_i2c_c_0eb271f425I2C_ITSlaveSequentialCpltEP19__I2C_HandleTypeDef) for [local to stm32f0xx_hal_i2c_c]::I2C_ITSlaveSequentialCplt(__I2C_HandleTypeDef*)
    stm32f0xx_hal_i2c.o(i._ZN41_INTERNAL_19_stm32f0xx_hal_i2c_c_0eb271f416I2C_Slave_ISR_ITEP19__I2C_HandleTypeDefjj) refers to stm32f0xx_hal_i2c.o(i._ZN41_INTERNAL_19_stm32f0xx_hal_i2c_c_0eb271f415I2C_ITSlaveCpltEP19__I2C_HandleTypeDefj) for [local to stm32f0xx_hal_i2c_c]::I2C_ITSlaveCplt(__I2C_HandleTypeDef*, unsigned)
    stm32f0xx_hal_i2c.o(i._ZN41_INTERNAL_19_stm32f0xx_hal_i2c_c_0eb271f417I2C_Master_ISR_ITEP19__I2C_HandleTypeDefjj) refers to stm32f0xx_hal_i2c.o(i._ZN41_INTERNAL_19_stm32f0xx_hal_i2c_c_0eb271f414I2C_Flush_TXDREP19__I2C_HandleTypeDef) for [local to stm32f0xx_hal_i2c_c]::I2C_Flush_TXDR(__I2C_HandleTypeDef*)
    stm32f0xx_hal_i2c.o(i._ZN41_INTERNAL_19_stm32f0xx_hal_i2c_c_0eb271f417I2C_Master_ISR_ITEP19__I2C_HandleTypeDefjj) refers to stm32f0xx_hal_i2c.o(i._ZN41_INTERNAL_19_stm32f0xx_hal_i2c_c_0eb271f418I2C_TransferConfigEP19__I2C_HandleTypeDefthjj) for [local to stm32f0xx_hal_i2c_c]::I2C_TransferConfig(__I2C_HandleTypeDef*, unsigned short, unsigned char, unsigned, unsigned)
    stm32f0xx_hal_i2c.o(i._ZN41_INTERNAL_19_stm32f0xx_hal_i2c_c_0eb271f417I2C_Master_ISR_ITEP19__I2C_HandleTypeDefjj) refers to stm32f0xx_hal_i2c.o(i._ZN41_INTERNAL_19_stm32f0xx_hal_i2c_c_0eb271f411I2C_ITErrorEP19__I2C_HandleTypeDefj) for [local to stm32f0xx_hal_i2c_c]::I2C_ITError(__I2C_HandleTypeDef*, unsigned)
    stm32f0xx_hal_i2c.o(i._ZN41_INTERNAL_19_stm32f0xx_hal_i2c_c_0eb271f417I2C_Master_ISR_ITEP19__I2C_HandleTypeDefjj) refers to stm32f0xx_hal_i2c.o(i._ZN41_INTERNAL_19_stm32f0xx_hal_i2c_c_0eb271f416I2C_ITMasterCpltEP19__I2C_HandleTypeDefj) for [local to stm32f0xx_hal_i2c_c]::I2C_ITMasterCplt(__I2C_HandleTypeDef*, unsigned)
    stm32f0xx_hal_i2c.o(i._ZN41_INTERNAL_19_stm32f0xx_hal_i2c_c_0eb271f417I2C_Master_ISR_ITEP19__I2C_HandleTypeDefjj) refers to stm32f0xx_hal_i2c.o(i._ZN41_INTERNAL_19_stm32f0xx_hal_i2c_c_0eb271f426I2C_ITMasterSequentialCpltEP19__I2C_HandleTypeDef) for [local to stm32f0xx_hal_i2c_c]::I2C_ITMasterSequentialCplt(__I2C_HandleTypeDef*)
    stm32f0xx_hal_i2c.o(i._ZN41_INTERNAL_19_stm32f0xx_hal_i2c_c_0eb271f417I2C_Slave_ISR_DMAEP19__I2C_HandleTypeDefjj) refers to stm32f0xx_hal_i2c.o(i._ZN41_INTERNAL_19_stm32f0xx_hal_i2c_c_0eb271f415I2C_ITSlaveCpltEP19__I2C_HandleTypeDefj) for [local to stm32f0xx_hal_i2c_c]::I2C_ITSlaveCplt(__I2C_HandleTypeDef*, unsigned)
    stm32f0xx_hal_i2c.o(i._ZN41_INTERNAL_19_stm32f0xx_hal_i2c_c_0eb271f418I2C_Master_ISR_DMAEP19__I2C_HandleTypeDefjj) refers to stm32f0xx_hal_i2c.o(i._ZN41_INTERNAL_19_stm32f0xx_hal_i2c_c_0eb271f414I2C_Enable_IRQEP19__I2C_HandleTypeDeft) for [local to stm32f0xx_hal_i2c_c]::I2C_Enable_IRQ(__I2C_HandleTypeDef*, unsigned short)
    stm32f0xx_hal_i2c.o(i._ZN41_INTERNAL_19_stm32f0xx_hal_i2c_c_0eb271f418I2C_Master_ISR_DMAEP19__I2C_HandleTypeDefjj) refers to stm32f0xx_hal_i2c.o(i._ZN41_INTERNAL_19_stm32f0xx_hal_i2c_c_0eb271f414I2C_Flush_TXDREP19__I2C_HandleTypeDef) for [local to stm32f0xx_hal_i2c_c]::I2C_Flush_TXDR(__I2C_HandleTypeDef*)
    stm32f0xx_hal_i2c.o(i._ZN41_INTERNAL_19_stm32f0xx_hal_i2c_c_0eb271f418I2C_Master_ISR_DMAEP19__I2C_HandleTypeDefjj) refers to stm32f0xx_hal_i2c.o(i._ZN41_INTERNAL_19_stm32f0xx_hal_i2c_c_0eb271f418I2C_TransferConfigEP19__I2C_HandleTypeDefthjj) for [local to stm32f0xx_hal_i2c_c]::I2C_TransferConfig(__I2C_HandleTypeDef*, unsigned short, unsigned char, unsigned, unsigned)
    stm32f0xx_hal_i2c.o(i._ZN41_INTERNAL_19_stm32f0xx_hal_i2c_c_0eb271f418I2C_Master_ISR_DMAEP19__I2C_HandleTypeDefjj) refers to stm32f0xx_hal_i2c.o(i._ZN41_INTERNAL_19_stm32f0xx_hal_i2c_c_0eb271f411I2C_ITErrorEP19__I2C_HandleTypeDefj) for [local to stm32f0xx_hal_i2c_c]::I2C_ITError(__I2C_HandleTypeDef*, unsigned)
    stm32f0xx_hal_i2c.o(i._ZN41_INTERNAL_19_stm32f0xx_hal_i2c_c_0eb271f418I2C_Master_ISR_DMAEP19__I2C_HandleTypeDefjj) refers to stm32f0xx_hal_i2c.o(i._ZN41_INTERNAL_19_stm32f0xx_hal_i2c_c_0eb271f416I2C_ITMasterCpltEP19__I2C_HandleTypeDefj) for [local to stm32f0xx_hal_i2c_c]::I2C_ITMasterCplt(__I2C_HandleTypeDef*, unsigned)
    stm32f0xx_hal_i2c.o(i._ZN41_INTERNAL_19_stm32f0xx_hal_i2c_c_0eb271f421I2C_RequestMemoryReadEP19__I2C_HandleTypeDeftttjj) refers to stm32f0xx_hal_i2c.o(i._ZN41_INTERNAL_19_stm32f0xx_hal_i2c_c_0eb271f418I2C_TransferConfigEP19__I2C_HandleTypeDefthjj) for [local to stm32f0xx_hal_i2c_c]::I2C_TransferConfig(__I2C_HandleTypeDef*, unsigned short, unsigned char, unsigned, unsigned)
    stm32f0xx_hal_i2c.o(i._ZN41_INTERNAL_19_stm32f0xx_hal_i2c_c_0eb271f421I2C_RequestMemoryReadEP19__I2C_HandleTypeDeftttjj) refers to stm32f0xx_hal_i2c.o(i._ZN41_INTERNAL_19_stm32f0xx_hal_i2c_c_0eb271f430I2C_WaitOnTXISFlagUntilTimeoutEP19__I2C_HandleTypeDefjj) for [local to stm32f0xx_hal_i2c_c]::I2C_WaitOnTXISFlagUntilTimeout(__I2C_HandleTypeDef*, unsigned, unsigned)
    stm32f0xx_hal_i2c.o(i._ZN41_INTERNAL_19_stm32f0xx_hal_i2c_c_0eb271f421I2C_RequestMemoryReadEP19__I2C_HandleTypeDeftttjj) refers to stm32f0xx_hal_i2c.o(i._ZN41_INTERNAL_19_stm32f0xx_hal_i2c_c_0eb271f426I2C_WaitOnFlagUntilTimeoutEP19__I2C_HandleTypeDefj10FlagStatusjj) for [local to stm32f0xx_hal_i2c_c]::I2C_WaitOnFlagUntilTimeout(__I2C_HandleTypeDef*, unsigned, FlagStatus, unsigned, unsigned)
    stm32f0xx_hal_i2c.o(i._ZN41_INTERNAL_19_stm32f0xx_hal_i2c_c_0eb271f422I2C_RequestMemoryWriteEP19__I2C_HandleTypeDeftttjj) refers to stm32f0xx_hal_i2c.o(i._ZN41_INTERNAL_19_stm32f0xx_hal_i2c_c_0eb271f418I2C_TransferConfigEP19__I2C_HandleTypeDefthjj) for [local to stm32f0xx_hal_i2c_c]::I2C_TransferConfig(__I2C_HandleTypeDef*, unsigned short, unsigned char, unsigned, unsigned)
    stm32f0xx_hal_i2c.o(i._ZN41_INTERNAL_19_stm32f0xx_hal_i2c_c_0eb271f422I2C_RequestMemoryWriteEP19__I2C_HandleTypeDeftttjj) refers to stm32f0xx_hal_i2c.o(i._ZN41_INTERNAL_19_stm32f0xx_hal_i2c_c_0eb271f430I2C_WaitOnTXISFlagUntilTimeoutEP19__I2C_HandleTypeDefjj) for [local to stm32f0xx_hal_i2c_c]::I2C_WaitOnTXISFlagUntilTimeout(__I2C_HandleTypeDef*, unsigned, unsigned)
    stm32f0xx_hal_i2c.o(i._ZN41_INTERNAL_19_stm32f0xx_hal_i2c_c_0eb271f422I2C_RequestMemoryWriteEP19__I2C_HandleTypeDeftttjj) refers to stm32f0xx_hal_i2c.o(i._ZN41_INTERNAL_19_stm32f0xx_hal_i2c_c_0eb271f426I2C_WaitOnFlagUntilTimeoutEP19__I2C_HandleTypeDefj10FlagStatusjj) for [local to stm32f0xx_hal_i2c_c]::I2C_WaitOnFlagUntilTimeout(__I2C_HandleTypeDef*, unsigned, FlagStatus, unsigned, unsigned)
    stm32f0xx_hal_i2c.o(i._ZN41_INTERNAL_19_stm32f0xx_hal_i2c_c_0eb271f423I2C_IsAcknowledgeFailedEP19__I2C_HandleTypeDefjj) refers to stm32f0xx_hal.o(i.HAL_GetTick) for HAL_GetTick
    stm32f0xx_hal_i2c.o(i._ZN41_INTERNAL_19_stm32f0xx_hal_i2c_c_0eb271f423I2C_IsAcknowledgeFailedEP19__I2C_HandleTypeDefjj) refers to stm32f0xx_hal_i2c.o(i._ZN41_INTERNAL_19_stm32f0xx_hal_i2c_c_0eb271f414I2C_Flush_TXDREP19__I2C_HandleTypeDef) for [local to stm32f0xx_hal_i2c_c]::I2C_Flush_TXDR(__I2C_HandleTypeDef*)
    stm32f0xx_hal_i2c.o(i._ZN41_INTERNAL_19_stm32f0xx_hal_i2c_c_0eb271f424I2C_DMAMasterReceiveCpltEP19__DMA_HandleTypeDef) refers to stm32f0xx_hal_i2c.o(i._ZN41_INTERNAL_19_stm32f0xx_hal_i2c_c_0eb271f414I2C_Enable_IRQEP19__I2C_HandleTypeDeft) for [local to stm32f0xx_hal_i2c_c]::I2C_Enable_IRQ(__I2C_HandleTypeDef*, unsigned short)
    stm32f0xx_hal_i2c.o(i._ZN41_INTERNAL_19_stm32f0xx_hal_i2c_c_0eb271f424I2C_DMAMasterReceiveCpltEP19__DMA_HandleTypeDef) refers to stm32f0xx_hal_dma.o(i.HAL_DMA_Start_IT) for HAL_DMA_Start_IT
    stm32f0xx_hal_i2c.o(i._ZN41_INTERNAL_19_stm32f0xx_hal_i2c_c_0eb271f425I2C_DMAMasterTransmitCpltEP19__DMA_HandleTypeDef) refers to stm32f0xx_hal_i2c.o(i._ZN41_INTERNAL_19_stm32f0xx_hal_i2c_c_0eb271f414I2C_Enable_IRQEP19__I2C_HandleTypeDeft) for [local to stm32f0xx_hal_i2c_c]::I2C_Enable_IRQ(__I2C_HandleTypeDef*, unsigned short)
    stm32f0xx_hal_i2c.o(i._ZN41_INTERNAL_19_stm32f0xx_hal_i2c_c_0eb271f425I2C_DMAMasterTransmitCpltEP19__DMA_HandleTypeDef) refers to stm32f0xx_hal_dma.o(i.HAL_DMA_Start_IT) for HAL_DMA_Start_IT
    stm32f0xx_hal_i2c.o(i._ZN41_INTERNAL_19_stm32f0xx_hal_i2c_c_0eb271f425I2C_ITSlaveSequentialCpltEP19__I2C_HandleTypeDef) refers to stm32f0xx_hal_i2c.o(i._ZN41_INTERNAL_19_stm32f0xx_hal_i2c_c_0eb271f415I2C_Disable_IRQEP19__I2C_HandleTypeDeft) for [local to stm32f0xx_hal_i2c_c]::I2C_Disable_IRQ(__I2C_HandleTypeDef*, unsigned short)
    stm32f0xx_hal_i2c.o(i._ZN41_INTERNAL_19_stm32f0xx_hal_i2c_c_0eb271f425I2C_ITSlaveSequentialCpltEP19__I2C_HandleTypeDef) refers to stm32f0xx_hal_i2c.o(i.HAL_I2C_SlaveRxCpltCallback) for HAL_I2C_SlaveRxCpltCallback
    stm32f0xx_hal_i2c.o(i._ZN41_INTERNAL_19_stm32f0xx_hal_i2c_c_0eb271f425I2C_ITSlaveSequentialCpltEP19__I2C_HandleTypeDef) refers to stm32f0xx_hal_i2c.o(i.HAL_I2C_SlaveTxCpltCallback) for HAL_I2C_SlaveTxCpltCallback
    stm32f0xx_hal_i2c.o(i._ZN41_INTERNAL_19_stm32f0xx_hal_i2c_c_0eb271f426I2C_ITMasterSequentialCpltEP19__I2C_HandleTypeDef) refers to stm32f0xx_hal_i2c.o(i._ZN41_INTERNAL_19_stm32f0xx_hal_i2c_c_0eb271f415I2C_Disable_IRQEP19__I2C_HandleTypeDeft) for [local to stm32f0xx_hal_i2c_c]::I2C_Disable_IRQ(__I2C_HandleTypeDef*, unsigned short)
    stm32f0xx_hal_i2c.o(i._ZN41_INTERNAL_19_stm32f0xx_hal_i2c_c_0eb271f426I2C_ITMasterSequentialCpltEP19__I2C_HandleTypeDef) refers to stm32f0xx_hal_i2c.o(i.HAL_I2C_MasterRxCpltCallback) for HAL_I2C_MasterRxCpltCallback
    stm32f0xx_hal_i2c.o(i._ZN41_INTERNAL_19_stm32f0xx_hal_i2c_c_0eb271f426I2C_ITMasterSequentialCpltEP19__I2C_HandleTypeDef) refers to stm32f0xx_hal_i2c.o(i.HAL_I2C_MasterTxCpltCallback) for HAL_I2C_MasterTxCpltCallback
    stm32f0xx_hal_i2c.o(i._ZN41_INTERNAL_19_stm32f0xx_hal_i2c_c_0eb271f426I2C_WaitOnFlagUntilTimeoutEP19__I2C_HandleTypeDefj10FlagStatusjj) refers to stm32f0xx_hal.o(i.HAL_GetTick) for HAL_GetTick
    stm32f0xx_hal_i2c.o(i._ZN41_INTERNAL_19_stm32f0xx_hal_i2c_c_0eb271f430I2C_WaitOnRXNEFlagUntilTimeoutEP19__I2C_HandleTypeDefjj) refers to stm32f0xx_hal_i2c.o(i._ZN41_INTERNAL_19_stm32f0xx_hal_i2c_c_0eb271f423I2C_IsAcknowledgeFailedEP19__I2C_HandleTypeDefjj) for [local to stm32f0xx_hal_i2c_c]::I2C_IsAcknowledgeFailed(__I2C_HandleTypeDef*, unsigned, unsigned)
    stm32f0xx_hal_i2c.o(i._ZN41_INTERNAL_19_stm32f0xx_hal_i2c_c_0eb271f430I2C_WaitOnRXNEFlagUntilTimeoutEP19__I2C_HandleTypeDefjj) refers to stm32f0xx_hal.o(i.HAL_GetTick) for HAL_GetTick
    stm32f0xx_hal_i2c.o(i._ZN41_INTERNAL_19_stm32f0xx_hal_i2c_c_0eb271f430I2C_WaitOnSTOPFlagUntilTimeoutEP19__I2C_HandleTypeDefjj) refers to stm32f0xx_hal_i2c.o(i._ZN41_INTERNAL_19_stm32f0xx_hal_i2c_c_0eb271f423I2C_IsAcknowledgeFailedEP19__I2C_HandleTypeDefjj) for [local to stm32f0xx_hal_i2c_c]::I2C_IsAcknowledgeFailed(__I2C_HandleTypeDef*, unsigned, unsigned)
    stm32f0xx_hal_i2c.o(i._ZN41_INTERNAL_19_stm32f0xx_hal_i2c_c_0eb271f430I2C_WaitOnSTOPFlagUntilTimeoutEP19__I2C_HandleTypeDefjj) refers to stm32f0xx_hal.o(i.HAL_GetTick) for HAL_GetTick
    stm32f0xx_hal_i2c.o(i._ZN41_INTERNAL_19_stm32f0xx_hal_i2c_c_0eb271f430I2C_WaitOnTXISFlagUntilTimeoutEP19__I2C_HandleTypeDefjj) refers to stm32f0xx_hal_i2c.o(i._ZN41_INTERNAL_19_stm32f0xx_hal_i2c_c_0eb271f423I2C_IsAcknowledgeFailedEP19__I2C_HandleTypeDefjj) for [local to stm32f0xx_hal_i2c_c]::I2C_IsAcknowledgeFailed(__I2C_HandleTypeDef*, unsigned, unsigned)
    stm32f0xx_hal_i2c.o(i._ZN41_INTERNAL_19_stm32f0xx_hal_i2c_c_0eb271f430I2C_WaitOnTXISFlagUntilTimeoutEP19__I2C_HandleTypeDefjj) refers to stm32f0xx_hal.o(i.HAL_GetTick) for HAL_GetTick
    stm32f0xx_hal_i2c.o(.ARM.exidx) refers to stm32f0xx_hal_i2c.o(i.HAL_I2C_MspInit) for i.HAL_I2C_MspInit
    stm32f0xx_hal_i2c.o(.ARM.exidx) refers to stm32f0xx_hal_i2c.o(i.HAL_I2C_Init) for i.HAL_I2C_Init
    stm32f0xx_hal_i2c.o(.ARM.exidx) refers to stm32f0xx_hal_i2c.o(i.HAL_I2C_MspDeInit) for i.HAL_I2C_MspDeInit
    stm32f0xx_hal_i2c.o(.ARM.exidx) refers to stm32f0xx_hal_i2c.o(i.HAL_I2C_DeInit) for i.HAL_I2C_DeInit
    stm32f0xx_hal_i2c.o(.ARM.exidx) refers to stm32f0xx_hal_i2c.o(i._ZN41_INTERNAL_19_stm32f0xx_hal_i2c_c_0eb271f414I2C_Flush_TXDREP19__I2C_HandleTypeDef) for i._ZN41_INTERNAL_19_stm32f0xx_hal_i2c_c_0eb271f414I2C_Flush_TXDREP19__I2C_HandleTypeDef
    stm32f0xx_hal_i2c.o(.ARM.exidx) refers to stm32f0xx_hal_i2c.o(i._ZN41_INTERNAL_19_stm32f0xx_hal_i2c_c_0eb271f423I2C_IsAcknowledgeFailedEP19__I2C_HandleTypeDefjj) for i._ZN41_INTERNAL_19_stm32f0xx_hal_i2c_c_0eb271f423I2C_IsAcknowledgeFailedEP19__I2C_HandleTypeDefjj
    stm32f0xx_hal_i2c.o(.ARM.exidx) refers to stm32f0xx_hal_i2c.o(i._ZN41_INTERNAL_19_stm32f0xx_hal_i2c_c_0eb271f430I2C_WaitOnSTOPFlagUntilTimeoutEP19__I2C_HandleTypeDefjj) for i._ZN41_INTERNAL_19_stm32f0xx_hal_i2c_c_0eb271f430I2C_WaitOnSTOPFlagUntilTimeoutEP19__I2C_HandleTypeDefjj
    stm32f0xx_hal_i2c.o(.ARM.exidx) refers to stm32f0xx_hal_i2c.o(i._ZN41_INTERNAL_19_stm32f0xx_hal_i2c_c_0eb271f426I2C_WaitOnFlagUntilTimeoutEP19__I2C_HandleTypeDefj10FlagStatusjj) for i._ZN41_INTERNAL_19_stm32f0xx_hal_i2c_c_0eb271f426I2C_WaitOnFlagUntilTimeoutEP19__I2C_HandleTypeDefj10FlagStatusjj
    stm32f0xx_hal_i2c.o(.ARM.exidx) refers to stm32f0xx_hal_i2c.o(i._ZN41_INTERNAL_19_stm32f0xx_hal_i2c_c_0eb271f430I2C_WaitOnTXISFlagUntilTimeoutEP19__I2C_HandleTypeDefjj) for i._ZN41_INTERNAL_19_stm32f0xx_hal_i2c_c_0eb271f430I2C_WaitOnTXISFlagUntilTimeoutEP19__I2C_HandleTypeDefjj
    stm32f0xx_hal_i2c.o(.ARM.exidx) refers to stm32f0xx_hal_i2c.o(i.HAL_I2C_Master_Transmit) for i.HAL_I2C_Master_Transmit
    stm32f0xx_hal_i2c.o(.ARM.exidx) refers to stm32f0xx_hal_i2c.o(i._ZN41_INTERNAL_19_stm32f0xx_hal_i2c_c_0eb271f430I2C_WaitOnRXNEFlagUntilTimeoutEP19__I2C_HandleTypeDefjj) for i._ZN41_INTERNAL_19_stm32f0xx_hal_i2c_c_0eb271f430I2C_WaitOnRXNEFlagUntilTimeoutEP19__I2C_HandleTypeDefjj
    stm32f0xx_hal_i2c.o(.ARM.exidx) refers to stm32f0xx_hal_i2c.o(i.HAL_I2C_Master_Receive) for i.HAL_I2C_Master_Receive
    stm32f0xx_hal_i2c.o(.ARM.exidx) refers to stm32f0xx_hal_i2c.o(i.HAL_I2C_Slave_Transmit) for i.HAL_I2C_Slave_Transmit
    stm32f0xx_hal_i2c.o(.ARM.exidx) refers to stm32f0xx_hal_i2c.o(i.HAL_I2C_Slave_Receive) for i.HAL_I2C_Slave_Receive
    stm32f0xx_hal_i2c.o(.ARM.exidx) refers to stm32f0xx_hal_i2c.o(i.HAL_I2C_SlaveTxCpltCallback) for i.HAL_I2C_SlaveTxCpltCallback
    stm32f0xx_hal_i2c.o(.ARM.exidx) refers to stm32f0xx_hal_i2c.o(i.HAL_I2C_SlaveRxCpltCallback) for i.HAL_I2C_SlaveRxCpltCallback
    stm32f0xx_hal_i2c.o(.ARM.exidx) refers to stm32f0xx_hal_i2c.o(i.HAL_I2C_ListenCpltCallback) for i.HAL_I2C_ListenCpltCallback
    stm32f0xx_hal_i2c.o(.ARM.exidx) refers to stm32f0xx_hal_i2c.o(i._ZN41_INTERNAL_19_stm32f0xx_hal_i2c_c_0eb271f415I2C_Disable_IRQEP19__I2C_HandleTypeDeft) for i._ZN41_INTERNAL_19_stm32f0xx_hal_i2c_c_0eb271f415I2C_Disable_IRQEP19__I2C_HandleTypeDeft
    stm32f0xx_hal_i2c.o(.ARM.exidx) refers to stm32f0xx_hal_i2c.o(i._ZN41_INTERNAL_19_stm32f0xx_hal_i2c_c_0eb271f416I2C_ITListenCpltEP19__I2C_HandleTypeDefj) for i._ZN41_INTERNAL_19_stm32f0xx_hal_i2c_c_0eb271f416I2C_ITListenCpltEP19__I2C_HandleTypeDefj
    stm32f0xx_hal_i2c.o(.ARM.exidx) refers to stm32f0xx_hal_i2c.o(i.HAL_I2C_ErrorCallback) for i.HAL_I2C_ErrorCallback
    stm32f0xx_hal_i2c.o(.ARM.exidx) refers to stm32f0xx_hal_i2c.o(i.HAL_I2C_AbortCpltCallback) for i.HAL_I2C_AbortCpltCallback
    stm32f0xx_hal_i2c.o(.ARM.exidx) refers to stm32f0xx_hal_i2c.o(i._ZN41_INTERNAL_19_stm32f0xx_hal_i2c_c_0eb271f412I2C_DMAAbortEP19__DMA_HandleTypeDef) for i._ZN41_INTERNAL_19_stm32f0xx_hal_i2c_c_0eb271f412I2C_DMAAbortEP19__DMA_HandleTypeDef
    stm32f0xx_hal_i2c.o(.ARM.exidx) refers to stm32f0xx_hal_i2c.o(i._ZN41_INTERNAL_19_stm32f0xx_hal_i2c_c_0eb271f425I2C_ITSlaveSequentialCpltEP19__I2C_HandleTypeDef) for i._ZN41_INTERNAL_19_stm32f0xx_hal_i2c_c_0eb271f425I2C_ITSlaveSequentialCpltEP19__I2C_HandleTypeDef
    stm32f0xx_hal_i2c.o(.ARM.exidx) refers to stm32f0xx_hal_i2c.o(i.HAL_I2C_AddrCallback) for i.HAL_I2C_AddrCallback
    stm32f0xx_hal_i2c.o(.ARM.exidx) refers to stm32f0xx_hal_i2c.o(i._ZN41_INTERNAL_19_stm32f0xx_hal_i2c_c_0eb271f416I2C_Slave_ISR_ITEP19__I2C_HandleTypeDefjj) for i._ZN41_INTERNAL_19_stm32f0xx_hal_i2c_c_0eb271f416I2C_Slave_ISR_ITEP19__I2C_HandleTypeDefjj
    stm32f0xx_hal_i2c.o(.ARM.exidx) refers to stm32f0xx_hal_i2c.o(i._ZN41_INTERNAL_19_stm32f0xx_hal_i2c_c_0eb271f411I2C_ITErrorEP19__I2C_HandleTypeDefj) for i._ZN41_INTERNAL_19_stm32f0xx_hal_i2c_c_0eb271f411I2C_ITErrorEP19__I2C_HandleTypeDefj
    stm32f0xx_hal_i2c.o(.ARM.exidx) refers to stm32f0xx_hal_i2c.o(i._ZN41_INTERNAL_19_stm32f0xx_hal_i2c_c_0eb271f415I2C_ITSlaveCpltEP19__I2C_HandleTypeDefj) for i._ZN41_INTERNAL_19_stm32f0xx_hal_i2c_c_0eb271f415I2C_ITSlaveCpltEP19__I2C_HandleTypeDefj
    stm32f0xx_hal_i2c.o(.ARM.exidx) refers to stm32f0xx_hal_i2c.o(i._ZN41_INTERNAL_19_stm32f0xx_hal_i2c_c_0eb271f417I2C_Slave_ISR_DMAEP19__I2C_HandleTypeDefjj) for i._ZN41_INTERNAL_19_stm32f0xx_hal_i2c_c_0eb271f417I2C_Slave_ISR_DMAEP19__I2C_HandleTypeDefjj
    stm32f0xx_hal_i2c.o(.ARM.exidx) refers to stm32f0xx_hal_i2c.o(i.HAL_I2C_MasterRxCpltCallback) for i.HAL_I2C_MasterRxCpltCallback
    stm32f0xx_hal_i2c.o(.ARM.exidx) refers to stm32f0xx_hal_i2c.o(i.HAL_I2C_MemRxCpltCallback) for i.HAL_I2C_MemRxCpltCallback
    stm32f0xx_hal_i2c.o(.ARM.exidx) refers to stm32f0xx_hal_i2c.o(i.HAL_I2C_MasterTxCpltCallback) for i.HAL_I2C_MasterTxCpltCallback
    stm32f0xx_hal_i2c.o(.ARM.exidx) refers to stm32f0xx_hal_i2c.o(i.HAL_I2C_MemTxCpltCallback) for i.HAL_I2C_MemTxCpltCallback
    stm32f0xx_hal_i2c.o(.ARM.exidx) refers to stm32f0xx_hal_i2c.o(i._ZN41_INTERNAL_19_stm32f0xx_hal_i2c_c_0eb271f416I2C_ITMasterCpltEP19__I2C_HandleTypeDefj) for i._ZN41_INTERNAL_19_stm32f0xx_hal_i2c_c_0eb271f416I2C_ITMasterCpltEP19__I2C_HandleTypeDefj
    stm32f0xx_hal_i2c.o(.ARM.exidx) refers to stm32f0xx_hal_i2c.o(i._ZN41_INTERNAL_19_stm32f0xx_hal_i2c_c_0eb271f418I2C_Master_ISR_DMAEP19__I2C_HandleTypeDefjj) for i._ZN41_INTERNAL_19_stm32f0xx_hal_i2c_c_0eb271f418I2C_Master_ISR_DMAEP19__I2C_HandleTypeDefjj
    stm32f0xx_hal_i2c.o(.ARM.exidx) refers to stm32f0xx_hal_i2c.o(i._ZN41_INTERNAL_19_stm32f0xx_hal_i2c_c_0eb271f414I2C_Enable_IRQEP19__I2C_HandleTypeDeft) for i._ZN41_INTERNAL_19_stm32f0xx_hal_i2c_c_0eb271f414I2C_Enable_IRQEP19__I2C_HandleTypeDeft
    stm32f0xx_hal_i2c.o(.ARM.exidx) refers to stm32f0xx_hal_i2c.o(i._ZN41_INTERNAL_19_stm32f0xx_hal_i2c_c_0eb271f426I2C_ITMasterSequentialCpltEP19__I2C_HandleTypeDef) for i._ZN41_INTERNAL_19_stm32f0xx_hal_i2c_c_0eb271f426I2C_ITMasterSequentialCpltEP19__I2C_HandleTypeDef
    stm32f0xx_hal_i2c.o(.ARM.exidx) refers to stm32f0xx_hal_i2c.o(i._ZN41_INTERNAL_19_stm32f0xx_hal_i2c_c_0eb271f417I2C_Master_ISR_ITEP19__I2C_HandleTypeDefjj) for i._ZN41_INTERNAL_19_stm32f0xx_hal_i2c_c_0eb271f417I2C_Master_ISR_ITEP19__I2C_HandleTypeDefjj
    stm32f0xx_hal_i2c.o(.ARM.exidx) refers to stm32f0xx_hal_i2c.o(i.HAL_I2C_Master_Transmit_IT) for i.HAL_I2C_Master_Transmit_IT
    stm32f0xx_hal_i2c.o(.ARM.exidx) refers to stm32f0xx_hal_i2c.o(i.HAL_I2C_Master_Receive_IT) for i.HAL_I2C_Master_Receive_IT
    stm32f0xx_hal_i2c.o(.ARM.exidx) refers to stm32f0xx_hal_i2c.o(i.HAL_I2C_Slave_Transmit_IT) for i.HAL_I2C_Slave_Transmit_IT
    stm32f0xx_hal_i2c.o(.ARM.exidx) refers to stm32f0xx_hal_i2c.o(i.HAL_I2C_Slave_Receive_IT) for i.HAL_I2C_Slave_Receive_IT
    stm32f0xx_hal_i2c.o(.ARM.exidx) refers to stm32f0xx_hal_i2c.o(i._ZN41_INTERNAL_19_stm32f0xx_hal_i2c_c_0eb271f412I2C_DMAErrorEP19__DMA_HandleTypeDef) for i._ZN41_INTERNAL_19_stm32f0xx_hal_i2c_c_0eb271f412I2C_DMAErrorEP19__DMA_HandleTypeDef
    stm32f0xx_hal_i2c.o(.ARM.exidx) refers to stm32f0xx_hal_i2c.o(i._ZN41_INTERNAL_19_stm32f0xx_hal_i2c_c_0eb271f425I2C_DMAMasterTransmitCpltEP19__DMA_HandleTypeDef) for i._ZN41_INTERNAL_19_stm32f0xx_hal_i2c_c_0eb271f425I2C_DMAMasterTransmitCpltEP19__DMA_HandleTypeDef
    stm32f0xx_hal_i2c.o(.ARM.exidx) refers to stm32f0xx_hal_i2c.o(i.HAL_I2C_Master_Transmit_DMA) for i.HAL_I2C_Master_Transmit_DMA
    stm32f0xx_hal_i2c.o(.ARM.exidx) refers to stm32f0xx_hal_i2c.o(i._ZN41_INTERNAL_19_stm32f0xx_hal_i2c_c_0eb271f424I2C_DMAMasterReceiveCpltEP19__DMA_HandleTypeDef) for i._ZN41_INTERNAL_19_stm32f0xx_hal_i2c_c_0eb271f424I2C_DMAMasterReceiveCpltEP19__DMA_HandleTypeDef
    stm32f0xx_hal_i2c.o(.ARM.exidx) refers to stm32f0xx_hal_i2c.o(i.HAL_I2C_Master_Receive_DMA) for i.HAL_I2C_Master_Receive_DMA
    stm32f0xx_hal_i2c.o(.ARM.exidx) refers to stm32f0xx_hal_i2c.o(i._ZN41_INTERNAL_19_stm32f0xx_hal_i2c_c_0eb271f424I2C_DMASlaveTransmitCpltEP19__DMA_HandleTypeDef) for i._ZN41_INTERNAL_19_stm32f0xx_hal_i2c_c_0eb271f424I2C_DMASlaveTransmitCpltEP19__DMA_HandleTypeDef
    stm32f0xx_hal_i2c.o(.ARM.exidx) refers to stm32f0xx_hal_i2c.o(i.HAL_I2C_Slave_Transmit_DMA) for i.HAL_I2C_Slave_Transmit_DMA
    stm32f0xx_hal_i2c.o(.ARM.exidx) refers to stm32f0xx_hal_i2c.o(i._ZN41_INTERNAL_19_stm32f0xx_hal_i2c_c_0eb271f423I2C_DMASlaveReceiveCpltEP19__DMA_HandleTypeDef) for i._ZN41_INTERNAL_19_stm32f0xx_hal_i2c_c_0eb271f423I2C_DMASlaveReceiveCpltEP19__DMA_HandleTypeDef
    stm32f0xx_hal_i2c.o(.ARM.exidx) refers to stm32f0xx_hal_i2c.o(i.HAL_I2C_Slave_Receive_DMA) for i.HAL_I2C_Slave_Receive_DMA
    stm32f0xx_hal_i2c.o(.ARM.exidx) refers to stm32f0xx_hal_i2c.o(i._ZN41_INTERNAL_19_stm32f0xx_hal_i2c_c_0eb271f422I2C_RequestMemoryWriteEP19__I2C_HandleTypeDeftttjj) for i._ZN41_INTERNAL_19_stm32f0xx_hal_i2c_c_0eb271f422I2C_RequestMemoryWriteEP19__I2C_HandleTypeDeftttjj
    stm32f0xx_hal_i2c.o(.ARM.exidx) refers to stm32f0xx_hal_i2c.o(i.HAL_I2C_Mem_Write) for i.HAL_I2C_Mem_Write
    stm32f0xx_hal_i2c.o(.ARM.exidx) refers to stm32f0xx_hal_i2c.o(i._ZN41_INTERNAL_19_stm32f0xx_hal_i2c_c_0eb271f421I2C_RequestMemoryReadEP19__I2C_HandleTypeDeftttjj) for i._ZN41_INTERNAL_19_stm32f0xx_hal_i2c_c_0eb271f421I2C_RequestMemoryReadEP19__I2C_HandleTypeDeftttjj
    stm32f0xx_hal_i2c.o(.ARM.exidx) refers to stm32f0xx_hal_i2c.o(i.HAL_I2C_Mem_Read) for i.HAL_I2C_Mem_Read
    stm32f0xx_hal_i2c.o(.ARM.exidx) refers to stm32f0xx_hal_i2c.o(i.HAL_I2C_Mem_Write_IT) for i.HAL_I2C_Mem_Write_IT
    stm32f0xx_hal_i2c.o(.ARM.exidx) refers to stm32f0xx_hal_i2c.o(i.HAL_I2C_Mem_Read_IT) for i.HAL_I2C_Mem_Read_IT
    stm32f0xx_hal_i2c.o(.ARM.exidx) refers to stm32f0xx_hal_i2c.o(i.HAL_I2C_Mem_Write_DMA) for i.HAL_I2C_Mem_Write_DMA
    stm32f0xx_hal_i2c.o(.ARM.exidx) refers to stm32f0xx_hal_i2c.o(i.HAL_I2C_Mem_Read_DMA) for i.HAL_I2C_Mem_Read_DMA
    stm32f0xx_hal_i2c.o(.ARM.exidx) refers to stm32f0xx_hal_i2c.o(i.HAL_I2C_IsDeviceReady) for i.HAL_I2C_IsDeviceReady
    stm32f0xx_hal_i2c.o(.ARM.exidx) refers to stm32f0xx_hal_i2c.o(i.HAL_I2C_Master_Sequential_Transmit_IT) for i.HAL_I2C_Master_Sequential_Transmit_IT
    stm32f0xx_hal_i2c.o(.ARM.exidx) refers to stm32f0xx_hal_i2c.o(i.HAL_I2C_Master_Sequential_Receive_IT) for i.HAL_I2C_Master_Sequential_Receive_IT
    stm32f0xx_hal_i2c.o(.ARM.exidx) refers to stm32f0xx_hal_i2c.o(i.HAL_I2C_Slave_Sequential_Transmit_IT) for i.HAL_I2C_Slave_Sequential_Transmit_IT
    stm32f0xx_hal_i2c.o(.ARM.exidx) refers to stm32f0xx_hal_i2c.o(i.HAL_I2C_Slave_Sequential_Receive_IT) for i.HAL_I2C_Slave_Sequential_Receive_IT
    stm32f0xx_hal_i2c.o(.ARM.exidx) refers to stm32f0xx_hal_i2c.o(i.HAL_I2C_EnableListen_IT) for i.HAL_I2C_EnableListen_IT
    stm32f0xx_hal_i2c.o(.ARM.exidx) refers to stm32f0xx_hal_i2c.o(i.HAL_I2C_DisableListen_IT) for i.HAL_I2C_DisableListen_IT
    stm32f0xx_hal_i2c.o(.ARM.exidx) refers to stm32f0xx_hal_i2c.o(i.HAL_I2C_Master_Abort_IT) for i.HAL_I2C_Master_Abort_IT
    stm32f0xx_hal_i2c.o(.ARM.exidx) refers to stm32f0xx_hal_i2c.o(i.HAL_I2C_EV_IRQHandler) for i.HAL_I2C_EV_IRQHandler
    stm32f0xx_hal_i2c.o(.ARM.exidx) refers to stm32f0xx_hal_i2c.o(i.HAL_I2C_ER_IRQHandler) for i.HAL_I2C_ER_IRQHandler
    stm32f0xx_hal_i2c.o(.ARM.exidx) refers to stm32f0xx_hal_i2c.o(i.HAL_I2C_GetState) for i.HAL_I2C_GetState
    stm32f0xx_hal_i2c.o(.ARM.exidx) refers to stm32f0xx_hal_i2c.o(i.HAL_I2C_GetMode) for i.HAL_I2C_GetMode
    stm32f0xx_hal_i2c.o(.ARM.exidx) refers to stm32f0xx_hal_i2c.o(i.HAL_I2C_GetError) for i.HAL_I2C_GetError
    stm32f0xx_hal_i2c.o(.ARM.exidx) refers to stm32f0xx_hal_i2c.o(i._ZN41_INTERNAL_19_stm32f0xx_hal_i2c_c_0eb271f418I2C_TransferConfigEP19__I2C_HandleTypeDefthjj) for i._ZN41_INTERNAL_19_stm32f0xx_hal_i2c_c_0eb271f418I2C_TransferConfigEP19__I2C_HandleTypeDefthjj
    stm32f0xx_hal_i2c.o(.ARM.exidx) refers to stm32f0xx_hal_i2c.o(i._ZN41_INTERNAL_19_stm32f0xx_hal_i2c_c_0eb271f414I2C_ITAddrCpltEP19__I2C_HandleTypeDefj) for i._ZN41_INTERNAL_19_stm32f0xx_hal_i2c_c_0eb271f414I2C_ITAddrCpltEP19__I2C_HandleTypeDefj
    stm32f0xx_hal_dma.o(i.HAL_DMA_DeInit) refers to stm32f0xx_hal_dma.o(i._ZN41_INTERNAL_19_stm32f0xx_hal_dma_c_c25f65ec23DMA_CalcBaseAndBitshiftEP19__DMA_HandleTypeDef) for [local to stm32f0xx_hal_dma_c]::DMA_CalcBaseAndBitshift(__DMA_HandleTypeDef*)
    stm32f0xx_hal_dma.o(i.HAL_DMA_Init) refers to stm32f0xx_hal_dma.o(i._ZN41_INTERNAL_19_stm32f0xx_hal_dma_c_c25f65ec23DMA_CalcBaseAndBitshiftEP19__DMA_HandleTypeDef) for [local to stm32f0xx_hal_dma_c]::DMA_CalcBaseAndBitshift(__DMA_HandleTypeDef*)
    stm32f0xx_hal_dma.o(i.HAL_DMA_PollForTransfer) refers to stm32f0xx_hal.o(i.HAL_GetTick) for HAL_GetTick
    stm32f0xx_hal_dma.o(i.HAL_DMA_Start) refers to stm32f0xx_hal_dma.o(i._ZN41_INTERNAL_19_stm32f0xx_hal_dma_c_c25f65ec13DMA_SetConfigEP19__DMA_HandleTypeDefjjj) for [local to stm32f0xx_hal_dma_c]::DMA_SetConfig(__DMA_HandleTypeDef*, unsigned, unsigned, unsigned)
    stm32f0xx_hal_dma.o(i.HAL_DMA_Start_IT) refers to stm32f0xx_hal_dma.o(i._ZN41_INTERNAL_19_stm32f0xx_hal_dma_c_c25f65ec13DMA_SetConfigEP19__DMA_HandleTypeDefjjj) for [local to stm32f0xx_hal_dma_c]::DMA_SetConfig(__DMA_HandleTypeDef*, unsigned, unsigned, unsigned)
    stm32f0xx_hal_dma.o(i.HAL_DMA_UnRegisterCallback) refers to stm32f0xx_hal_dma.o(i.__ARM_common_switch8) for __ARM_common_switch8
    stm32f0xx_hal_dma.o(i._ZN41_INTERNAL_19_stm32f0xx_hal_dma_c_c25f65ec23DMA_CalcBaseAndBitshiftEP19__DMA_HandleTypeDef) refers to aeabi_sdiv.o(.text) for __aeabi_uidivmod
    stm32f0xx_hal_dma.o(.ARM.exidx) refers to stm32f0xx_hal_dma.o(i.HAL_DMA_Init) for i.HAL_DMA_Init
    stm32f0xx_hal_dma.o(.ARM.exidx) refers to stm32f0xx_hal_dma.o(i.HAL_DMA_DeInit) for i.HAL_DMA_DeInit
    stm32f0xx_hal_dma.o(.ARM.exidx) refers to stm32f0xx_hal_dma.o(i._ZN41_INTERNAL_19_stm32f0xx_hal_dma_c_c25f65ec13DMA_SetConfigEP19__DMA_HandleTypeDefjjj) for i._ZN41_INTERNAL_19_stm32f0xx_hal_dma_c_c25f65ec13DMA_SetConfigEP19__DMA_HandleTypeDefjjj
    stm32f0xx_hal_dma.o(.ARM.exidx) refers to stm32f0xx_hal_dma.o(i.HAL_DMA_Start) for i.HAL_DMA_Start
    stm32f0xx_hal_dma.o(.ARM.exidx) refers to stm32f0xx_hal_dma.o(i.HAL_DMA_Start_IT) for i.HAL_DMA_Start_IT
    stm32f0xx_hal_dma.o(.ARM.exidx) refers to stm32f0xx_hal_dma.o(i.HAL_DMA_Abort) for i.HAL_DMA_Abort
    stm32f0xx_hal_dma.o(.ARM.exidx) refers to stm32f0xx_hal_dma.o(i.HAL_DMA_Abort_IT) for i.HAL_DMA_Abort_IT
    stm32f0xx_hal_dma.o(.ARM.exidx) refers to stm32f0xx_hal_dma.o(i.HAL_DMA_PollForTransfer) for i.HAL_DMA_PollForTransfer
    stm32f0xx_hal_dma.o(.ARM.exidx) refers to stm32f0xx_hal_dma.o(i.HAL_DMA_IRQHandler) for i.HAL_DMA_IRQHandler
    stm32f0xx_hal_dma.o(.ARM.exidx) refers to stm32f0xx_hal_dma.o(i._Z24HAL_DMA_RegisterCallbackP19__DMA_HandleTypeDef25HAL_DMA_CallbackIDTypeDefPFvS0_E) for i._Z24HAL_DMA_RegisterCallbackP19__DMA_HandleTypeDef25HAL_DMA_CallbackIDTypeDefPFvS0_E
    stm32f0xx_hal_dma.o(.ARM.exidx) refers to stm32f0xx_hal_dma.o(i.HAL_DMA_UnRegisterCallback) for i.HAL_DMA_UnRegisterCallback
    stm32f0xx_hal_dma.o(.ARM.exidx) refers to stm32f0xx_hal_dma.o(i.HAL_DMA_GetState) for i.HAL_DMA_GetState
    stm32f0xx_hal_dma.o(.ARM.exidx) refers to stm32f0xx_hal_dma.o(i.HAL_DMA_GetError) for i.HAL_DMA_GetError
    stm32f0xx_hal_dma.o(.ARM.exidx) refers to stm32f0xx_hal_dma.o(i._ZN41_INTERNAL_19_stm32f0xx_hal_dma_c_c25f65ec23DMA_CalcBaseAndBitshiftEP19__DMA_HandleTypeDef) for i._ZN41_INTERNAL_19_stm32f0xx_hal_dma_c_c25f65ec23DMA_CalcBaseAndBitshiftEP19__DMA_HandleTypeDef
    stm32f0xx_hal_tsc.o(i.HAL_TSC_DeInit) refers to stm32f0xx_hal_msp.o(i.HAL_TSC_MspDeInit) for HAL_TSC_MspDeInit
    stm32f0xx_hal_tsc.o(i.HAL_TSC_IOConfig) refers to stm32f0xx_hal_tsc.o(i._ZN41_INTERNAL_19_stm32f0xx_hal_tsc_c_c4cd125f18TSC_extract_groupsEj) for [local to stm32f0xx_hal_tsc_c]::TSC_extract_groups(unsigned)
    stm32f0xx_hal_tsc.o(i.HAL_TSC_IRQHandler) refers to stm32f0xx_hal_tsc.o(i.HAL_TSC_ErrorCallback) for HAL_TSC_ErrorCallback
    stm32f0xx_hal_tsc.o(i.HAL_TSC_IRQHandler) refers to stm32f0xx_hal_tsc.o(i.HAL_TSC_ConvCpltCallback) for HAL_TSC_ConvCpltCallback
    stm32f0xx_hal_tsc.o(i.HAL_TSC_Init) refers to stm32f0xx_hal_msp.o(i.HAL_TSC_MspInit) for HAL_TSC_MspInit
    stm32f0xx_hal_tsc.o(i.HAL_TSC_Init) refers to stm32f0xx_hal_tsc.o(i._ZN41_INTERNAL_19_stm32f0xx_hal_tsc_c_c4cd125f18TSC_extract_groupsEj) for [local to stm32f0xx_hal_tsc_c]::TSC_extract_groups(unsigned)
    stm32f0xx_hal_tsc.o(i.HAL_TSC_PollForAcquisition) refers to stm32f0xx_hal_tsc.o(i.HAL_TSC_GetState) for HAL_TSC_GetState
    stm32f0xx_hal_tsc.o(.ARM.exidx) refers to stm32f0xx_hal_tsc.o(i.HAL_TSC_MspInit) for i.HAL_TSC_MspInit
    stm32f0xx_hal_tsc.o(.ARM.exidx) refers to stm32f0xx_hal_tsc.o(i.HAL_TSC_Init) for i.HAL_TSC_Init
    stm32f0xx_hal_tsc.o(.ARM.exidx) refers to stm32f0xx_hal_tsc.o(i.HAL_TSC_MspDeInit) for i.HAL_TSC_MspDeInit
    stm32f0xx_hal_tsc.o(.ARM.exidx) refers to stm32f0xx_hal_tsc.o(i.HAL_TSC_DeInit) for i.HAL_TSC_DeInit
    stm32f0xx_hal_tsc.o(.ARM.exidx) refers to stm32f0xx_hal_tsc.o(i.HAL_TSC_Start) for i.HAL_TSC_Start
    stm32f0xx_hal_tsc.o(.ARM.exidx) refers to stm32f0xx_hal_tsc.o(i.HAL_TSC_Start_IT) for i.HAL_TSC_Start_IT
    stm32f0xx_hal_tsc.o(.ARM.exidx) refers to stm32f0xx_hal_tsc.o(i.HAL_TSC_Stop) for i.HAL_TSC_Stop
    stm32f0xx_hal_tsc.o(.ARM.exidx) refers to stm32f0xx_hal_tsc.o(i.HAL_TSC_Stop_IT) for i.HAL_TSC_Stop_IT
    stm32f0xx_hal_tsc.o(.ARM.exidx) refers to stm32f0xx_hal_tsc.o(i.HAL_TSC_GroupGetStatus) for i.HAL_TSC_GroupGetStatus
    stm32f0xx_hal_tsc.o(.ARM.exidx) refers to stm32f0xx_hal_tsc.o(i.HAL_TSC_GroupGetValue) for i.HAL_TSC_GroupGetValue
    stm32f0xx_hal_tsc.o(.ARM.exidx) refers to stm32f0xx_hal_tsc.o(i.HAL_TSC_IOConfig) for i.HAL_TSC_IOConfig
    stm32f0xx_hal_tsc.o(.ARM.exidx) refers to stm32f0xx_hal_tsc.o(i.HAL_TSC_IODischarge) for i.HAL_TSC_IODischarge
    stm32f0xx_hal_tsc.o(.ARM.exidx) refers to stm32f0xx_hal_tsc.o(i.HAL_TSC_GetState) for i.HAL_TSC_GetState
    stm32f0xx_hal_tsc.o(.ARM.exidx) refers to stm32f0xx_hal_tsc.o(i.HAL_TSC_PollForAcquisition) for i.HAL_TSC_PollForAcquisition
    stm32f0xx_hal_tsc.o(.ARM.exidx) refers to stm32f0xx_hal_tsc.o(i.HAL_TSC_ConvCpltCallback) for i.HAL_TSC_ConvCpltCallback
    stm32f0xx_hal_tsc.o(.ARM.exidx) refers to stm32f0xx_hal_tsc.o(i.HAL_TSC_ErrorCallback) for i.HAL_TSC_ErrorCallback
    stm32f0xx_hal_tsc.o(.ARM.exidx) refers to stm32f0xx_hal_tsc.o(i.HAL_TSC_IRQHandler) for i.HAL_TSC_IRQHandler
    stm32f0xx_hal_tsc.o(.ARM.exidx) refers to stm32f0xx_hal_tsc.o(i._ZN41_INTERNAL_19_stm32f0xx_hal_tsc_c_c4cd125f18TSC_extract_groupsEj) for i._ZN41_INTERNAL_19_stm32f0xx_hal_tsc_c_c4cd125f18TSC_extract_groupsEj
    stm32f0xx_hal_pwr_ex.o(i.HAL_PWREx_Vddio2Monitor_IRQHandler) refers to stm32f0xx_hal_pwr_ex.o(i.HAL_PWREx_Vddio2MonitorCallback) for HAL_PWREx_Vddio2MonitorCallback
    stm32f0xx_hal_pwr_ex.o(i.HAL_PWR_PVD_IRQHandler) refers to stm32f0xx_hal_pwr_ex.o(i.HAL_PWR_PVDCallback) for HAL_PWR_PVDCallback
    stm32f0xx_hal_pwr_ex.o(.ARM.exidx) refers to stm32f0xx_hal_pwr_ex.o(i.HAL_PWR_ConfigPVD) for i.HAL_PWR_ConfigPVD
    stm32f0xx_hal_pwr_ex.o(.ARM.exidx) refers to stm32f0xx_hal_pwr_ex.o(i.HAL_PWR_EnablePVD) for i.HAL_PWR_EnablePVD
    stm32f0xx_hal_pwr_ex.o(.ARM.exidx) refers to stm32f0xx_hal_pwr_ex.o(i.HAL_PWR_DisablePVD) for i.HAL_PWR_DisablePVD
    stm32f0xx_hal_pwr_ex.o(.ARM.exidx) refers to stm32f0xx_hal_pwr_ex.o(i.HAL_PWR_PVDCallback) for i.HAL_PWR_PVDCallback
    stm32f0xx_hal_pwr_ex.o(.ARM.exidx) refers to stm32f0xx_hal_pwr_ex.o(i.HAL_PWR_PVD_IRQHandler) for i.HAL_PWR_PVD_IRQHandler
    stm32f0xx_hal_pwr_ex.o(.ARM.exidx) refers to stm32f0xx_hal_pwr_ex.o(i.HAL_PWREx_EnableVddio2Monitor) for i.HAL_PWREx_EnableVddio2Monitor
    stm32f0xx_hal_pwr_ex.o(.ARM.exidx) refers to stm32f0xx_hal_pwr_ex.o(i.HAL_PWREx_DisableVddio2Monitor) for i.HAL_PWREx_DisableVddio2Monitor
    stm32f0xx_hal_pwr_ex.o(.ARM.exidx) refers to stm32f0xx_hal_pwr_ex.o(i.HAL_PWREx_Vddio2MonitorCallback) for i.HAL_PWREx_Vddio2MonitorCallback
    stm32f0xx_hal_pwr_ex.o(.ARM.exidx) refers to stm32f0xx_hal_pwr_ex.o(i.HAL_PWREx_Vddio2Monitor_IRQHandler) for i.HAL_PWREx_Vddio2Monitor_IRQHandler
    stm32f0xx_hal_flash_ex.o(i.HAL_FLASHEx_Erase) refers to stm32f0xx_hal_flash.o(i.FLASH_WaitForLastOperation) for FLASH_WaitForLastOperation
    stm32f0xx_hal_flash_ex.o(i.HAL_FLASHEx_Erase) refers to stm32f0xx_hal_flash_ex.o(i._ZN46_INTERNAL_24_stm32f0xx_hal_flash_ex_c_6648b60e15FLASH_MassEraseEv) for [local to stm32f0xx_hal_flash_ex_c]::FLASH_MassErase()
    stm32f0xx_hal_flash_ex.o(i.HAL_FLASHEx_Erase) refers to stm32f0xx_hal_flash_ex.o(i._Z15FLASH_PageErasej) for FLASH_PageErase(unsigned)
    stm32f0xx_hal_flash_ex.o(i.HAL_FLASHEx_Erase) refers to stm32f0xx_hal_flash.o(.bss) for pFlash
    stm32f0xx_hal_flash_ex.o(i.HAL_FLASHEx_Erase_IT) refers to stm32f0xx_hal_flash_ex.o(i._Z15FLASH_PageErasej) for FLASH_PageErase(unsigned)
    stm32f0xx_hal_flash_ex.o(i.HAL_FLASHEx_Erase_IT) refers to stm32f0xx_hal_flash_ex.o(i._ZN46_INTERNAL_24_stm32f0xx_hal_flash_ex_c_6648b60e15FLASH_MassEraseEv) for [local to stm32f0xx_hal_flash_ex_c]::FLASH_MassErase()
    stm32f0xx_hal_flash_ex.o(i.HAL_FLASHEx_Erase_IT) refers to stm32f0xx_hal_flash.o(.bss) for pFlash
    stm32f0xx_hal_flash_ex.o(i.HAL_FLASHEx_OBErase) refers to stm32f0xx_hal_flash_ex.o(i._ZN46_INTERNAL_24_stm32f0xx_hal_flash_ex_c_6648b60e15FLASH_OB_GetRDPEv) for [local to stm32f0xx_hal_flash_ex_c]::FLASH_OB_GetRDP()
    stm32f0xx_hal_flash_ex.o(i.HAL_FLASHEx_OBErase) refers to stm32f0xx_hal_flash.o(i.FLASH_WaitForLastOperation) for FLASH_WaitForLastOperation
    stm32f0xx_hal_flash_ex.o(i.HAL_FLASHEx_OBErase) refers to stm32f0xx_hal_flash_ex.o(i._ZN46_INTERNAL_24_stm32f0xx_hal_flash_ex_c_6648b60e24FLASH_OB_RDP_LevelConfigEh) for [local to stm32f0xx_hal_flash_ex_c]::FLASH_OB_RDP_LevelConfig(unsigned char)
    stm32f0xx_hal_flash_ex.o(i.HAL_FLASHEx_OBErase) refers to stm32f0xx_hal_flash.o(.bss) for pFlash
    stm32f0xx_hal_flash_ex.o(i.HAL_FLASHEx_OBGetConfig) refers to stm32f0xx_hal_flash_ex.o(i._ZN46_INTERNAL_24_stm32f0xx_hal_flash_ex_c_6648b60e15FLASH_OB_GetRDPEv) for [local to stm32f0xx_hal_flash_ex_c]::FLASH_OB_GetRDP()
    stm32f0xx_hal_flash_ex.o(i.HAL_FLASHEx_OBProgram) refers to stm32f0xx_hal_flash_ex.o(i._ZN46_INTERNAL_24_stm32f0xx_hal_flash_ex_c_6648b60e19FLASH_OB_DisableWRPEj) for [local to stm32f0xx_hal_flash_ex_c]::FLASH_OB_DisableWRP(unsigned)
    stm32f0xx_hal_flash_ex.o(i.HAL_FLASHEx_OBProgram) refers to stm32f0xx_hal_flash_ex.o(i._ZN46_INTERNAL_24_stm32f0xx_hal_flash_ex_c_6648b60e18FLASH_OB_EnableWRPEj) for [local to stm32f0xx_hal_flash_ex_c]::FLASH_OB_EnableWRP(unsigned)
    stm32f0xx_hal_flash_ex.o(i.HAL_FLASHEx_OBProgram) refers to stm32f0xx_hal_flash_ex.o(i._ZN46_INTERNAL_24_stm32f0xx_hal_flash_ex_c_6648b60e24FLASH_OB_RDP_LevelConfigEh) for [local to stm32f0xx_hal_flash_ex_c]::FLASH_OB_RDP_LevelConfig(unsigned char)
    stm32f0xx_hal_flash_ex.o(i.HAL_FLASHEx_OBProgram) refers to stm32f0xx_hal_flash.o(i.FLASH_WaitForLastOperation) for FLASH_WaitForLastOperation
    stm32f0xx_hal_flash_ex.o(i.HAL_FLASHEx_OBProgram) refers to stm32f0xx_hal_flash.o(.bss) for pFlash
    stm32f0xx_hal_flash_ex.o(i._Z15FLASH_PageErasej) refers to stm32f0xx_hal_flash.o(.bss) for pFlash
    stm32f0xx_hal_flash_ex.o(i._ZN46_INTERNAL_24_stm32f0xx_hal_flash_ex_c_6648b60e15FLASH_MassEraseEv) refers to stm32f0xx_hal_flash.o(.bss) for pFlash
    stm32f0xx_hal_flash_ex.o(i._ZN46_INTERNAL_24_stm32f0xx_hal_flash_ex_c_6648b60e18FLASH_OB_EnableWRPEj) refers to stm32f0xx_hal_flash.o(i.FLASH_WaitForLastOperation) for FLASH_WaitForLastOperation
    stm32f0xx_hal_flash_ex.o(i._ZN46_INTERNAL_24_stm32f0xx_hal_flash_ex_c_6648b60e18FLASH_OB_EnableWRPEj) refers to stm32f0xx_hal_flash_ex.o(i.HAL_FLASHEx_OBErase) for HAL_FLASHEx_OBErase
    stm32f0xx_hal_flash_ex.o(i._ZN46_INTERNAL_24_stm32f0xx_hal_flash_ex_c_6648b60e18FLASH_OB_EnableWRPEj) refers to stm32f0xx_hal_flash.o(.bss) for pFlash
    stm32f0xx_hal_flash_ex.o(i._ZN46_INTERNAL_24_stm32f0xx_hal_flash_ex_c_6648b60e19FLASH_OB_DisableWRPEj) refers to stm32f0xx_hal_flash.o(i.FLASH_WaitForLastOperation) for FLASH_WaitForLastOperation
    stm32f0xx_hal_flash_ex.o(i._ZN46_INTERNAL_24_stm32f0xx_hal_flash_ex_c_6648b60e19FLASH_OB_DisableWRPEj) refers to stm32f0xx_hal_flash_ex.o(i.HAL_FLASHEx_OBErase) for HAL_FLASHEx_OBErase
    stm32f0xx_hal_flash_ex.o(i._ZN46_INTERNAL_24_stm32f0xx_hal_flash_ex_c_6648b60e19FLASH_OB_DisableWRPEj) refers to stm32f0xx_hal_flash.o(.bss) for pFlash
    stm32f0xx_hal_flash_ex.o(i._ZN46_INTERNAL_24_stm32f0xx_hal_flash_ex_c_6648b60e24FLASH_OB_RDP_LevelConfigEh) refers to stm32f0xx_hal_flash.o(i.FLASH_WaitForLastOperation) for FLASH_WaitForLastOperation
    stm32f0xx_hal_flash_ex.o(i._ZN46_INTERNAL_24_stm32f0xx_hal_flash_ex_c_6648b60e24FLASH_OB_RDP_LevelConfigEh) refers to stm32f0xx_hal_flash.o(.bss) for pFlash
    stm32f0xx_hal_flash_ex.o(.ARM.exidx) refers to stm32f0xx_hal_flash_ex.o(i._Z15FLASH_PageErasej) for i._Z15FLASH_PageErasej
    stm32f0xx_hal_flash_ex.o(.ARM.exidx) refers to stm32f0xx_hal_flash_ex.o(i.HAL_FLASHEx_Erase) for i.HAL_FLASHEx_Erase
    stm32f0xx_hal_flash_ex.o(.ARM.exidx) refers to stm32f0xx_hal_flash_ex.o(i.HAL_FLASHEx_Erase_IT) for i.HAL_FLASHEx_Erase_IT
    stm32f0xx_hal_flash_ex.o(.ARM.exidx) refers to stm32f0xx_hal_flash_ex.o(i._ZN46_INTERNAL_24_stm32f0xx_hal_flash_ex_c_6648b60e24FLASH_OB_RDP_LevelConfigEh) for i._ZN46_INTERNAL_24_stm32f0xx_hal_flash_ex_c_6648b60e24FLASH_OB_RDP_LevelConfigEh
    stm32f0xx_hal_flash_ex.o(.ARM.exidx) refers to stm32f0xx_hal_flash_ex.o(i.HAL_FLASHEx_OBErase) for i.HAL_FLASHEx_OBErase
    stm32f0xx_hal_flash_ex.o(.ARM.exidx) refers to stm32f0xx_hal_flash_ex.o(i.HAL_FLASHEx_OBProgram) for i.HAL_FLASHEx_OBProgram
    stm32f0xx_hal_flash_ex.o(.ARM.exidx) refers to stm32f0xx_hal_flash_ex.o(i.HAL_FLASHEx_OBGetConfig) for i.HAL_FLASHEx_OBGetConfig
    stm32f0xx_hal_flash_ex.o(.ARM.exidx) refers to stm32f0xx_hal_flash_ex.o(i.HAL_FLASHEx_OBGetUserData) for i.HAL_FLASHEx_OBGetUserData
    stm32f0xx_hal_flash_ex.o(.ARM.exidx) refers to stm32f0xx_hal_flash_ex.o(i._ZN46_INTERNAL_24_stm32f0xx_hal_flash_ex_c_6648b60e15FLASH_MassEraseEv) for i._ZN46_INTERNAL_24_stm32f0xx_hal_flash_ex_c_6648b60e15FLASH_MassEraseEv
    stm32f0xx_hal_flash_ex.o(.ARM.exidx) refers to stm32f0xx_hal_flash_ex.o(i._ZN46_INTERNAL_24_stm32f0xx_hal_flash_ex_c_6648b60e15FLASH_OB_GetRDPEv) for i._ZN46_INTERNAL_24_stm32f0xx_hal_flash_ex_c_6648b60e15FLASH_OB_GetRDPEv
    stm32f0xx_hal_flash_ex.o(.ARM.exidx) refers to stm32f0xx_hal_flash_ex.o(i._ZN46_INTERNAL_24_stm32f0xx_hal_flash_ex_c_6648b60e19FLASH_OB_DisableWRPEj) for i._ZN46_INTERNAL_24_stm32f0xx_hal_flash_ex_c_6648b60e19FLASH_OB_DisableWRPEj
    stm32f0xx_hal_flash_ex.o(.ARM.exidx) refers to stm32f0xx_hal_flash_ex.o(i._ZN46_INTERNAL_24_stm32f0xx_hal_flash_ex_c_6648b60e18FLASH_OB_EnableWRPEj) for i._ZN46_INTERNAL_24_stm32f0xx_hal_flash_ex_c_6648b60e18FLASH_OB_EnableWRPEj
    stm32f0xx_hal_cortex.o(i.HAL_NVIC_SetPriority) refers to stm32f0xx_hal_cortex.o(i._ZN44_INTERNAL_22_stm32f0xx_hal_cortex_c_910ac08716NVIC_SetPriorityE9IRQn_Typej) for [local to stm32f0xx_hal_cortex_c]::NVIC_SetPriority(IRQn_Type, unsigned)
    stm32f0xx_hal_cortex.o(i.HAL_SYSTICK_Config) refers to stm32f0xx_hal_cortex.o(i._ZN44_INTERNAL_22_stm32f0xx_hal_cortex_c_910ac08716NVIC_SetPriorityE9IRQn_Typej) for [local to stm32f0xx_hal_cortex_c]::NVIC_SetPriority(IRQn_Type, unsigned)
    stm32f0xx_hal_cortex.o(i.HAL_SYSTICK_IRQHandler) refers to stm32f0xx_hal_cortex.o(i.HAL_SYSTICK_Callback) for HAL_SYSTICK_Callback
    stm32f0xx_hal_cortex.o(.ARM.exidx) refers to stm32f0xx_hal_cortex.o(i._ZN44_INTERNAL_22_stm32f0xx_hal_cortex_c_910ac08716NVIC_SetPriorityE9IRQn_Typej) for i._ZN44_INTERNAL_22_stm32f0xx_hal_cortex_c_910ac08716NVIC_SetPriorityE9IRQn_Typej
    stm32f0xx_hal_cortex.o(.ARM.exidx) refers to stm32f0xx_hal_cortex.o(i.HAL_NVIC_SetPriority) for i.HAL_NVIC_SetPriority
    stm32f0xx_hal_cortex.o(.ARM.exidx) refers to stm32f0xx_hal_cortex.o(i.HAL_NVIC_EnableIRQ) for i.HAL_NVIC_EnableIRQ
    stm32f0xx_hal_cortex.o(.ARM.exidx) refers to stm32f0xx_hal_cortex.o(i.HAL_NVIC_DisableIRQ) for i.HAL_NVIC_DisableIRQ
    stm32f0xx_hal_cortex.o(.ARM.exidx) refers to stm32f0xx_hal_cortex.o(i.HAL_NVIC_SystemReset) for i.HAL_NVIC_SystemReset
    stm32f0xx_hal_cortex.o(.ARM.exidx) refers to stm32f0xx_hal_cortex.o(i.HAL_SYSTICK_Config) for i.HAL_SYSTICK_Config
    stm32f0xx_hal_cortex.o(.ARM.exidx) refers to stm32f0xx_hal_cortex.o(i.HAL_NVIC_GetPriority) for i.HAL_NVIC_GetPriority
    stm32f0xx_hal_cortex.o(.ARM.exidx) refers to stm32f0xx_hal_cortex.o(i.HAL_NVIC_SetPendingIRQ) for i.HAL_NVIC_SetPendingIRQ
    stm32f0xx_hal_cortex.o(.ARM.exidx) refers to stm32f0xx_hal_cortex.o(i.HAL_NVIC_GetPendingIRQ) for i.HAL_NVIC_GetPendingIRQ
    stm32f0xx_hal_cortex.o(.ARM.exidx) refers to stm32f0xx_hal_cortex.o(i.HAL_NVIC_ClearPendingIRQ) for i.HAL_NVIC_ClearPendingIRQ
    stm32f0xx_hal_cortex.o(.ARM.exidx) refers to stm32f0xx_hal_cortex.o(i.HAL_SYSTICK_CLKSourceConfig) for i.HAL_SYSTICK_CLKSourceConfig
    stm32f0xx_hal_cortex.o(.ARM.exidx) refers to stm32f0xx_hal_cortex.o(i.HAL_SYSTICK_Callback) for i.HAL_SYSTICK_Callback
    stm32f0xx_hal_cortex.o(.ARM.exidx) refers to stm32f0xx_hal_cortex.o(i.HAL_SYSTICK_IRQHandler) for i.HAL_SYSTICK_IRQHandler
    stm32f0xx_hal_tim_ex.o(i.HAL_TIMEx_ConfigCommutationEvent_DMA) refers to stm32f0xx_hal_tim_ex.o(i.TIMEx_DMACommutationCplt) for TIMEx_DMACommutationCplt
    stm32f0xx_hal_tim_ex.o(i.HAL_TIMEx_ConfigCommutationEvent_DMA) refers to stm32f0xx_hal_tim.o(i.TIM_DMAError) for TIM_DMAError
    stm32f0xx_hal_tim_ex.o(i.HAL_TIMEx_HallSensor_DeInit) refers to stm32f0xx_hal_tim_ex.o(i.HAL_TIMEx_HallSensor_MspDeInit) for HAL_TIMEx_HallSensor_MspDeInit
    stm32f0xx_hal_tim_ex.o(i.HAL_TIMEx_HallSensor_Init) refers to stm32f0xx_hal_tim_ex.o(i.HAL_TIMEx_HallSensor_MspInit) for HAL_TIMEx_HallSensor_MspInit
    stm32f0xx_hal_tim_ex.o(i.HAL_TIMEx_HallSensor_Init) refers to stm32f0xx_hal_tim.o(i.TIM_Base_SetConfig) for TIM_Base_SetConfig
    stm32f0xx_hal_tim_ex.o(i.HAL_TIMEx_HallSensor_Init) refers to stm32f0xx_hal_tim.o(i.TIM_TI1_SetConfig) for TIM_TI1_SetConfig
    stm32f0xx_hal_tim_ex.o(i.HAL_TIMEx_HallSensor_Init) refers to stm32f0xx_hal_tim.o(i.TIM_OC2_SetConfig) for TIM_OC2_SetConfig
    stm32f0xx_hal_tim_ex.o(i.HAL_TIMEx_HallSensor_Start) refers to stm32f0xx_hal_tim.o(i.TIM_CCxChannelCmd) for TIM_CCxChannelCmd
    stm32f0xx_hal_tim_ex.o(i.HAL_TIMEx_HallSensor_Start_DMA) refers to stm32f0xx_hal_tim.o(i.TIM_CCxChannelCmd) for TIM_CCxChannelCmd
    stm32f0xx_hal_tim_ex.o(i.HAL_TIMEx_HallSensor_Start_DMA) refers to stm32f0xx_hal_dma.o(i.HAL_DMA_Start_IT) for HAL_DMA_Start_IT
    stm32f0xx_hal_tim_ex.o(i.HAL_TIMEx_HallSensor_Start_DMA) refers to stm32f0xx_hal_tim.o(i.TIM_DMACaptureCplt) for TIM_DMACaptureCplt
    stm32f0xx_hal_tim_ex.o(i.HAL_TIMEx_HallSensor_Start_DMA) refers to stm32f0xx_hal_tim.o(i.TIM_DMAError) for TIM_DMAError
    stm32f0xx_hal_tim_ex.o(i.HAL_TIMEx_HallSensor_Start_IT) refers to stm32f0xx_hal_tim.o(i.TIM_CCxChannelCmd) for TIM_CCxChannelCmd
    stm32f0xx_hal_tim_ex.o(i.HAL_TIMEx_HallSensor_Stop) refers to stm32f0xx_hal_tim.o(i.TIM_CCxChannelCmd) for TIM_CCxChannelCmd
    stm32f0xx_hal_tim_ex.o(i.HAL_TIMEx_HallSensor_Stop_DMA) refers to stm32f0xx_hal_tim.o(i.TIM_CCxChannelCmd) for TIM_CCxChannelCmd
    stm32f0xx_hal_tim_ex.o(i.HAL_TIMEx_HallSensor_Stop_IT) refers to stm32f0xx_hal_tim.o(i.TIM_CCxChannelCmd) for TIM_CCxChannelCmd
    stm32f0xx_hal_tim_ex.o(i.HAL_TIMEx_OCN_Start) refers to stm32f0xx_hal_tim_ex.o(i._ZN44_INTERNAL_22_stm32f0xx_hal_tim_ex_c_e8ef392018TIM_CCxNChannelCmdEP11TIM_TypeDefjj) for [local to stm32f0xx_hal_tim_ex_c]::TIM_CCxNChannelCmd(TIM_TypeDef*, unsigned, unsigned)
    stm32f0xx_hal_tim_ex.o(i.HAL_TIMEx_OCN_Start_DMA) refers to stm32f0xx_hal_dma.o(i.HAL_DMA_Start_IT) for HAL_DMA_Start_IT
    stm32f0xx_hal_tim_ex.o(i.HAL_TIMEx_OCN_Start_DMA) refers to stm32f0xx_hal_tim_ex.o(i._ZN44_INTERNAL_22_stm32f0xx_hal_tim_ex_c_e8ef392018TIM_CCxNChannelCmdEP11TIM_TypeDefjj) for [local to stm32f0xx_hal_tim_ex_c]::TIM_CCxNChannelCmd(TIM_TypeDef*, unsigned, unsigned)
    stm32f0xx_hal_tim_ex.o(i.HAL_TIMEx_OCN_Start_DMA) refers to stm32f0xx_hal_tim.o(i.TIM_DMADelayPulseCplt) for TIM_DMADelayPulseCplt
    stm32f0xx_hal_tim_ex.o(i.HAL_TIMEx_OCN_Start_DMA) refers to stm32f0xx_hal_tim.o(i.TIM_DMAError) for TIM_DMAError
    stm32f0xx_hal_tim_ex.o(i.HAL_TIMEx_OCN_Start_IT) refers to stm32f0xx_hal_tim_ex.o(i._ZN44_INTERNAL_22_stm32f0xx_hal_tim_ex_c_e8ef392018TIM_CCxNChannelCmdEP11TIM_TypeDefjj) for [local to stm32f0xx_hal_tim_ex_c]::TIM_CCxNChannelCmd(TIM_TypeDef*, unsigned, unsigned)
    stm32f0xx_hal_tim_ex.o(i.HAL_TIMEx_OCN_Stop) refers to stm32f0xx_hal_tim_ex.o(i._ZN44_INTERNAL_22_stm32f0xx_hal_tim_ex_c_e8ef392018TIM_CCxNChannelCmdEP11TIM_TypeDefjj) for [local to stm32f0xx_hal_tim_ex_c]::TIM_CCxNChannelCmd(TIM_TypeDef*, unsigned, unsigned)
    stm32f0xx_hal_tim_ex.o(i.HAL_TIMEx_OCN_Stop_DMA) refers to stm32f0xx_hal_tim_ex.o(i._ZN44_INTERNAL_22_stm32f0xx_hal_tim_ex_c_e8ef392018TIM_CCxNChannelCmdEP11TIM_TypeDefjj) for [local to stm32f0xx_hal_tim_ex_c]::TIM_CCxNChannelCmd(TIM_TypeDef*, unsigned, unsigned)
    stm32f0xx_hal_tim_ex.o(i.HAL_TIMEx_OCN_Stop_IT) refers to stm32f0xx_hal_tim_ex.o(i._ZN44_INTERNAL_22_stm32f0xx_hal_tim_ex_c_e8ef392018TIM_CCxNChannelCmdEP11TIM_TypeDefjj) for [local to stm32f0xx_hal_tim_ex_c]::TIM_CCxNChannelCmd(TIM_TypeDef*, unsigned, unsigned)
    stm32f0xx_hal_tim_ex.o(i.HAL_TIMEx_OnePulseN_Start) refers to stm32f0xx_hal_tim_ex.o(i._ZN44_INTERNAL_22_stm32f0xx_hal_tim_ex_c_e8ef392018TIM_CCxNChannelCmdEP11TIM_TypeDefjj) for [local to stm32f0xx_hal_tim_ex_c]::TIM_CCxNChannelCmd(TIM_TypeDef*, unsigned, unsigned)
    stm32f0xx_hal_tim_ex.o(i.HAL_TIMEx_OnePulseN_Start_IT) refers to stm32f0xx_hal_tim_ex.o(i._ZN44_INTERNAL_22_stm32f0xx_hal_tim_ex_c_e8ef392018TIM_CCxNChannelCmdEP11TIM_TypeDefjj) for [local to stm32f0xx_hal_tim_ex_c]::TIM_CCxNChannelCmd(TIM_TypeDef*, unsigned, unsigned)
    stm32f0xx_hal_tim_ex.o(i.HAL_TIMEx_OnePulseN_Stop) refers to stm32f0xx_hal_tim_ex.o(i._ZN44_INTERNAL_22_stm32f0xx_hal_tim_ex_c_e8ef392018TIM_CCxNChannelCmdEP11TIM_TypeDefjj) for [local to stm32f0xx_hal_tim_ex_c]::TIM_CCxNChannelCmd(TIM_TypeDef*, unsigned, unsigned)
    stm32f0xx_hal_tim_ex.o(i.HAL_TIMEx_OnePulseN_Stop_IT) refers to stm32f0xx_hal_tim_ex.o(i._ZN44_INTERNAL_22_stm32f0xx_hal_tim_ex_c_e8ef392018TIM_CCxNChannelCmdEP11TIM_TypeDefjj) for [local to stm32f0xx_hal_tim_ex_c]::TIM_CCxNChannelCmd(TIM_TypeDef*, unsigned, unsigned)
    stm32f0xx_hal_tim_ex.o(i.HAL_TIMEx_PWMN_Start) refers to stm32f0xx_hal_tim_ex.o(i._ZN44_INTERNAL_22_stm32f0xx_hal_tim_ex_c_e8ef392018TIM_CCxNChannelCmdEP11TIM_TypeDefjj) for [local to stm32f0xx_hal_tim_ex_c]::TIM_CCxNChannelCmd(TIM_TypeDef*, unsigned, unsigned)
    stm32f0xx_hal_tim_ex.o(i.HAL_TIMEx_PWMN_Start_DMA) refers to stm32f0xx_hal_dma.o(i.HAL_DMA_Start_IT) for HAL_DMA_Start_IT
    stm32f0xx_hal_tim_ex.o(i.HAL_TIMEx_PWMN_Start_DMA) refers to stm32f0xx_hal_tim_ex.o(i._ZN44_INTERNAL_22_stm32f0xx_hal_tim_ex_c_e8ef392018TIM_CCxNChannelCmdEP11TIM_TypeDefjj) for [local to stm32f0xx_hal_tim_ex_c]::TIM_CCxNChannelCmd(TIM_TypeDef*, unsigned, unsigned)
    stm32f0xx_hal_tim_ex.o(i.HAL_TIMEx_PWMN_Start_DMA) refers to stm32f0xx_hal_tim.o(i.TIM_DMADelayPulseCplt) for TIM_DMADelayPulseCplt
    stm32f0xx_hal_tim_ex.o(i.HAL_TIMEx_PWMN_Start_DMA) refers to stm32f0xx_hal_tim.o(i.TIM_DMAError) for TIM_DMAError
    stm32f0xx_hal_tim_ex.o(i.HAL_TIMEx_PWMN_Start_IT) refers to stm32f0xx_hal_tim_ex.o(i._ZN44_INTERNAL_22_stm32f0xx_hal_tim_ex_c_e8ef392018TIM_CCxNChannelCmdEP11TIM_TypeDefjj) for [local to stm32f0xx_hal_tim_ex_c]::TIM_CCxNChannelCmd(TIM_TypeDef*, unsigned, unsigned)
    stm32f0xx_hal_tim_ex.o(i.HAL_TIMEx_PWMN_Stop) refers to stm32f0xx_hal_tim_ex.o(i._ZN44_INTERNAL_22_stm32f0xx_hal_tim_ex_c_e8ef392018TIM_CCxNChannelCmdEP11TIM_TypeDefjj) for [local to stm32f0xx_hal_tim_ex_c]::TIM_CCxNChannelCmd(TIM_TypeDef*, unsigned, unsigned)
    stm32f0xx_hal_tim_ex.o(i.HAL_TIMEx_PWMN_Stop_DMA) refers to stm32f0xx_hal_tim_ex.o(i._ZN44_INTERNAL_22_stm32f0xx_hal_tim_ex_c_e8ef392018TIM_CCxNChannelCmdEP11TIM_TypeDefjj) for [local to stm32f0xx_hal_tim_ex_c]::TIM_CCxNChannelCmd(TIM_TypeDef*, unsigned, unsigned)
    stm32f0xx_hal_tim_ex.o(i.HAL_TIMEx_PWMN_Stop_IT) refers to stm32f0xx_hal_tim_ex.o(i._ZN44_INTERNAL_22_stm32f0xx_hal_tim_ex_c_e8ef392018TIM_CCxNChannelCmdEP11TIM_TypeDefjj) for [local to stm32f0xx_hal_tim_ex_c]::TIM_CCxNChannelCmd(TIM_TypeDef*, unsigned, unsigned)
    stm32f0xx_hal_tim_ex.o(i.HAL_TIM_ConfigOCrefClear) refers to stm32f0xx_hal_tim.o(i.TIM_ETR_SetConfig) for TIM_ETR_SetConfig
    stm32f0xx_hal_tim_ex.o(i.TIMEx_DMACommutationCplt) refers to stm32f0xx_hal_tim_ex.o(i.HAL_TIMEx_CommutationCallback) for HAL_TIMEx_CommutationCallback
    stm32f0xx_hal_tim_ex.o(.ARM.exidx) refers to stm32f0xx_hal_tim_ex.o(i.HAL_TIMEx_HallSensor_MspInit) for i.HAL_TIMEx_HallSensor_MspInit
    stm32f0xx_hal_tim_ex.o(.ARM.exidx) refers to stm32f0xx_hal_tim_ex.o(i.HAL_TIMEx_HallSensor_Init) for i.HAL_TIMEx_HallSensor_Init
    stm32f0xx_hal_tim_ex.o(.ARM.exidx) refers to stm32f0xx_hal_tim_ex.o(i.HAL_TIMEx_HallSensor_MspDeInit) for i.HAL_TIMEx_HallSensor_MspDeInit
    stm32f0xx_hal_tim_ex.o(.ARM.exidx) refers to stm32f0xx_hal_tim_ex.o(i.HAL_TIMEx_HallSensor_DeInit) for i.HAL_TIMEx_HallSensor_DeInit
    stm32f0xx_hal_tim_ex.o(.ARM.exidx) refers to stm32f0xx_hal_tim_ex.o(i.HAL_TIMEx_HallSensor_Start) for i.HAL_TIMEx_HallSensor_Start
    stm32f0xx_hal_tim_ex.o(.ARM.exidx) refers to stm32f0xx_hal_tim_ex.o(i.HAL_TIMEx_HallSensor_Stop) for i.HAL_TIMEx_HallSensor_Stop
    stm32f0xx_hal_tim_ex.o(.ARM.exidx) refers to stm32f0xx_hal_tim_ex.o(i.HAL_TIMEx_HallSensor_Start_IT) for i.HAL_TIMEx_HallSensor_Start_IT
    stm32f0xx_hal_tim_ex.o(.ARM.exidx) refers to stm32f0xx_hal_tim_ex.o(i.HAL_TIMEx_HallSensor_Stop_IT) for i.HAL_TIMEx_HallSensor_Stop_IT
    stm32f0xx_hal_tim_ex.o(.ARM.exidx) refers to stm32f0xx_hal_tim_ex.o(i.HAL_TIMEx_HallSensor_Start_DMA) for i.HAL_TIMEx_HallSensor_Start_DMA
    stm32f0xx_hal_tim_ex.o(.ARM.exidx) refers to stm32f0xx_hal_tim_ex.o(i.HAL_TIMEx_HallSensor_Stop_DMA) for i.HAL_TIMEx_HallSensor_Stop_DMA
    stm32f0xx_hal_tim_ex.o(.ARM.exidx) refers to stm32f0xx_hal_tim_ex.o(i.HAL_TIMEx_OCN_Start) for i.HAL_TIMEx_OCN_Start
    stm32f0xx_hal_tim_ex.o(.ARM.exidx) refers to stm32f0xx_hal_tim_ex.o(i.HAL_TIMEx_OCN_Stop) for i.HAL_TIMEx_OCN_Stop
    stm32f0xx_hal_tim_ex.o(.ARM.exidx) refers to stm32f0xx_hal_tim_ex.o(i.HAL_TIMEx_OCN_Start_IT) for i.HAL_TIMEx_OCN_Start_IT
    stm32f0xx_hal_tim_ex.o(.ARM.exidx) refers to stm32f0xx_hal_tim_ex.o(i.HAL_TIMEx_OCN_Stop_IT) for i.HAL_TIMEx_OCN_Stop_IT
    stm32f0xx_hal_tim_ex.o(.ARM.exidx) refers to stm32f0xx_hal_tim_ex.o(i.HAL_TIMEx_OCN_Start_DMA) for i.HAL_TIMEx_OCN_Start_DMA
    stm32f0xx_hal_tim_ex.o(.ARM.exidx) refers to stm32f0xx_hal_tim_ex.o(i.HAL_TIMEx_OCN_Stop_DMA) for i.HAL_TIMEx_OCN_Stop_DMA
    stm32f0xx_hal_tim_ex.o(.ARM.exidx) refers to stm32f0xx_hal_tim_ex.o(i.HAL_TIMEx_PWMN_Start) for i.HAL_TIMEx_PWMN_Start
    stm32f0xx_hal_tim_ex.o(.ARM.exidx) refers to stm32f0xx_hal_tim_ex.o(i.HAL_TIMEx_PWMN_Stop) for i.HAL_TIMEx_PWMN_Stop
    stm32f0xx_hal_tim_ex.o(.ARM.exidx) refers to stm32f0xx_hal_tim_ex.o(i.HAL_TIMEx_PWMN_Start_IT) for i.HAL_TIMEx_PWMN_Start_IT
    stm32f0xx_hal_tim_ex.o(.ARM.exidx) refers to stm32f0xx_hal_tim_ex.o(i.HAL_TIMEx_PWMN_Stop_IT) for i.HAL_TIMEx_PWMN_Stop_IT
    stm32f0xx_hal_tim_ex.o(.ARM.exidx) refers to stm32f0xx_hal_tim_ex.o(i.HAL_TIMEx_PWMN_Start_DMA) for i.HAL_TIMEx_PWMN_Start_DMA
    stm32f0xx_hal_tim_ex.o(.ARM.exidx) refers to stm32f0xx_hal_tim_ex.o(i.HAL_TIMEx_PWMN_Stop_DMA) for i.HAL_TIMEx_PWMN_Stop_DMA
    stm32f0xx_hal_tim_ex.o(.ARM.exidx) refers to stm32f0xx_hal_tim_ex.o(i.HAL_TIMEx_OnePulseN_Start) for i.HAL_TIMEx_OnePulseN_Start
    stm32f0xx_hal_tim_ex.o(.ARM.exidx) refers to stm32f0xx_hal_tim_ex.o(i.HAL_TIMEx_OnePulseN_Stop) for i.HAL_TIMEx_OnePulseN_Stop
    stm32f0xx_hal_tim_ex.o(.ARM.exidx) refers to stm32f0xx_hal_tim_ex.o(i.HAL_TIMEx_OnePulseN_Start_IT) for i.HAL_TIMEx_OnePulseN_Start_IT
    stm32f0xx_hal_tim_ex.o(.ARM.exidx) refers to stm32f0xx_hal_tim_ex.o(i.HAL_TIMEx_OnePulseN_Stop_IT) for i.HAL_TIMEx_OnePulseN_Stop_IT
    stm32f0xx_hal_tim_ex.o(.ARM.exidx) refers to stm32f0xx_hal_tim_ex.o(i.HAL_TIMEx_ConfigCommutationEvent) for i.HAL_TIMEx_ConfigCommutationEvent
    stm32f0xx_hal_tim_ex.o(.ARM.exidx) refers to stm32f0xx_hal_tim_ex.o(i.HAL_TIMEx_ConfigCommutationEvent_IT) for i.HAL_TIMEx_ConfigCommutationEvent_IT
    stm32f0xx_hal_tim_ex.o(.ARM.exidx) refers to stm32f0xx_hal_tim_ex.o(i.HAL_TIMEx_CommutationCallback) for i.HAL_TIMEx_CommutationCallback
    stm32f0xx_hal_tim_ex.o(.ARM.exidx) refers to stm32f0xx_hal_tim_ex.o(i.TIMEx_DMACommutationCplt) for i.TIMEx_DMACommutationCplt
    stm32f0xx_hal_tim_ex.o(.ARM.exidx) refers to stm32f0xx_hal_tim_ex.o(i.HAL_TIMEx_ConfigCommutationEvent_DMA) for i.HAL_TIMEx_ConfigCommutationEvent_DMA
    stm32f0xx_hal_tim_ex.o(.ARM.exidx) refers to stm32f0xx_hal_tim_ex.o(i.HAL_TIMEx_MasterConfigSynchronization) for i.HAL_TIMEx_MasterConfigSynchronization
    stm32f0xx_hal_tim_ex.o(.ARM.exidx) refers to stm32f0xx_hal_tim_ex.o(i.HAL_TIMEx_ConfigBreakDeadTime) for i.HAL_TIMEx_ConfigBreakDeadTime
    stm32f0xx_hal_tim_ex.o(.ARM.exidx) refers to stm32f0xx_hal_tim_ex.o(i.HAL_TIMEx_RemapConfig) for i.HAL_TIMEx_RemapConfig
    stm32f0xx_hal_tim_ex.o(.ARM.exidx) refers to stm32f0xx_hal_tim_ex.o(i.HAL_TIM_ConfigOCrefClear) for i.HAL_TIM_ConfigOCrefClear
    stm32f0xx_hal_tim_ex.o(.ARM.exidx) refers to stm32f0xx_hal_tim_ex.o(i.HAL_TIMEx_BreakCallback) for i.HAL_TIMEx_BreakCallback
    stm32f0xx_hal_tim_ex.o(.ARM.exidx) refers to stm32f0xx_hal_tim_ex.o(i.HAL_TIMEx_HallSensor_GetState) for i.HAL_TIMEx_HallSensor_GetState
    stm32f0xx_hal_tim_ex.o(.ARM.exidx) refers to stm32f0xx_hal_tim_ex.o(i._ZN44_INTERNAL_22_stm32f0xx_hal_tim_ex_c_e8ef392018TIM_CCxNChannelCmdEP11TIM_TypeDefjj) for i._ZN44_INTERNAL_22_stm32f0xx_hal_tim_ex_c_e8ef392018TIM_CCxNChannelCmdEP11TIM_TypeDefjj
    stm32f0xx_hal_rcc_ex.o(i.HAL_RCCEx_CRSWaitSynchronization) refers to stm32f0xx_hal.o(i.HAL_GetTick) for HAL_GetTick
    stm32f0xx_hal_rcc_ex.o(i.HAL_RCCEx_CRS_IRQHandler) refers to stm32f0xx_hal_rcc_ex.o(i.HAL_RCCEx_CRS_SyncOkCallback) for HAL_RCCEx_CRS_SyncOkCallback
    stm32f0xx_hal_rcc_ex.o(i.HAL_RCCEx_CRS_IRQHandler) refers to stm32f0xx_hal_rcc_ex.o(i.HAL_RCCEx_CRS_SyncWarnCallback) for HAL_RCCEx_CRS_SyncWarnCallback
    stm32f0xx_hal_rcc_ex.o(i.HAL_RCCEx_CRS_IRQHandler) refers to stm32f0xx_hal_rcc_ex.o(i.HAL_RCCEx_CRS_ExpectedSyncCallback) for HAL_RCCEx_CRS_ExpectedSyncCallback
    stm32f0xx_hal_rcc_ex.o(i.HAL_RCCEx_CRS_IRQHandler) refers to stm32f0xx_hal_rcc_ex.o(i.HAL_RCCEx_CRS_ErrorCallback) for HAL_RCCEx_CRS_ErrorCallback
    stm32f0xx_hal_rcc_ex.o(i.HAL_RCCEx_GetPeriphCLKFreq) refers to stm32f0xx_hal_rcc.o(i.HAL_RCC_GetPCLK1Freq) for HAL_RCC_GetPCLK1Freq
    stm32f0xx_hal_rcc_ex.o(i.HAL_RCCEx_GetPeriphCLKFreq) refers to stm32f0xx_hal_rcc.o(i.HAL_RCC_GetSysClockFreq) for HAL_RCC_GetSysClockFreq
    stm32f0xx_hal_rcc_ex.o(i.HAL_RCCEx_PeriphCLKConfig) refers to stm32f0xx_hal.o(i.HAL_GetTick) for HAL_GetTick
    stm32f0xx_hal_rcc_ex.o(.ARM.exidx) refers to stm32f0xx_hal_rcc_ex.o(i.HAL_RCCEx_PeriphCLKConfig) for i.HAL_RCCEx_PeriphCLKConfig
    stm32f0xx_hal_rcc_ex.o(.ARM.exidx) refers to stm32f0xx_hal_rcc_ex.o(i.HAL_RCCEx_GetPeriphCLKConfig) for i.HAL_RCCEx_GetPeriphCLKConfig
    stm32f0xx_hal_rcc_ex.o(.ARM.exidx) refers to stm32f0xx_hal_rcc_ex.o(i.HAL_RCCEx_GetPeriphCLKFreq) for i.HAL_RCCEx_GetPeriphCLKFreq
    stm32f0xx_hal_rcc_ex.o(.ARM.exidx) refers to stm32f0xx_hal_rcc_ex.o(i.HAL_RCCEx_CRSConfig) for i.HAL_RCCEx_CRSConfig
    stm32f0xx_hal_rcc_ex.o(.ARM.exidx) refers to stm32f0xx_hal_rcc_ex.o(i.HAL_RCCEx_CRSSoftwareSynchronizationGenerate) for i.HAL_RCCEx_CRSSoftwareSynchronizationGenerate
    stm32f0xx_hal_rcc_ex.o(.ARM.exidx) refers to stm32f0xx_hal_rcc_ex.o(i.HAL_RCCEx_CRSGetSynchronizationInfo) for i.HAL_RCCEx_CRSGetSynchronizationInfo
    stm32f0xx_hal_rcc_ex.o(.ARM.exidx) refers to stm32f0xx_hal_rcc_ex.o(i.HAL_RCCEx_CRSWaitSynchronization) for i.HAL_RCCEx_CRSWaitSynchronization
    stm32f0xx_hal_rcc_ex.o(.ARM.exidx) refers to stm32f0xx_hal_rcc_ex.o(i.HAL_RCCEx_CRS_ErrorCallback) for i.HAL_RCCEx_CRS_ErrorCallback
    stm32f0xx_hal_rcc_ex.o(.ARM.exidx) refers to stm32f0xx_hal_rcc_ex.o(i.HAL_RCCEx_CRS_ExpectedSyncCallback) for i.HAL_RCCEx_CRS_ExpectedSyncCallback
    stm32f0xx_hal_rcc_ex.o(.ARM.exidx) refers to stm32f0xx_hal_rcc_ex.o(i.HAL_RCCEx_CRS_SyncWarnCallback) for i.HAL_RCCEx_CRS_SyncWarnCallback
    stm32f0xx_hal_rcc_ex.o(.ARM.exidx) refers to stm32f0xx_hal_rcc_ex.o(i.HAL_RCCEx_CRS_SyncOkCallback) for i.HAL_RCCEx_CRS_SyncOkCallback
    stm32f0xx_hal_rcc_ex.o(.ARM.exidx) refers to stm32f0xx_hal_rcc_ex.o(i.HAL_RCCEx_CRS_IRQHandler) for i.HAL_RCCEx_CRS_IRQHandler
    stm32f0xx_hal_adc_ex.o(i.HAL_ADCEx_Calibration_Start) refers to stm32f0xx_hal.o(i.HAL_GetTick) for HAL_GetTick
    stm32f0xx_hal_adc_ex.o(.ARM.exidx) refers to stm32f0xx_hal_adc_ex.o(i.HAL_ADCEx_Calibration_Start) for i.HAL_ADCEx_Calibration_Start
    stm32f0xx_hal_pwr.o(.ARM.exidx) refers to stm32f0xx_hal_pwr.o(i.HAL_PWR_DeInit) for i.HAL_PWR_DeInit
    stm32f0xx_hal_pwr.o(.ARM.exidx) refers to stm32f0xx_hal_pwr.o(i.HAL_PWR_EnableBkUpAccess) for i.HAL_PWR_EnableBkUpAccess
    stm32f0xx_hal_pwr.o(.ARM.exidx) refers to stm32f0xx_hal_pwr.o(i.HAL_PWR_DisableBkUpAccess) for i.HAL_PWR_DisableBkUpAccess
    stm32f0xx_hal_pwr.o(.ARM.exidx) refers to stm32f0xx_hal_pwr.o(i.HAL_PWR_EnableWakeUpPin) for i.HAL_PWR_EnableWakeUpPin
    stm32f0xx_hal_pwr.o(.ARM.exidx) refers to stm32f0xx_hal_pwr.o(i.HAL_PWR_DisableWakeUpPin) for i.HAL_PWR_DisableWakeUpPin
    stm32f0xx_hal_pwr.o(.ARM.exidx) refers to stm32f0xx_hal_pwr.o(i.HAL_PWR_EnterSLEEPMode) for i.HAL_PWR_EnterSLEEPMode
    stm32f0xx_hal_pwr.o(.ARM.exidx) refers to stm32f0xx_hal_pwr.o(i.HAL_PWR_EnterSTOPMode) for i.HAL_PWR_EnterSTOPMode
    stm32f0xx_hal_pwr.o(.ARM.exidx) refers to stm32f0xx_hal_pwr.o(i.HAL_PWR_EnterSTANDBYMode) for i.HAL_PWR_EnterSTANDBYMode
    stm32f0xx_hal_pwr.o(.ARM.exidx) refers to stm32f0xx_hal_pwr.o(i.HAL_PWR_EnableSleepOnExit) for i.HAL_PWR_EnableSleepOnExit
    stm32f0xx_hal_pwr.o(.ARM.exidx) refers to stm32f0xx_hal_pwr.o(i.HAL_PWR_DisableSleepOnExit) for i.HAL_PWR_DisableSleepOnExit
    stm32f0xx_hal_pwr.o(.ARM.exidx) refers to stm32f0xx_hal_pwr.o(i.HAL_PWR_EnableSEVOnPend) for i.HAL_PWR_EnableSEVOnPend
    stm32f0xx_hal_pwr.o(.ARM.exidx) refers to stm32f0xx_hal_pwr.o(i.HAL_PWR_DisableSEVOnPend) for i.HAL_PWR_DisableSEVOnPend
    stm32f0xx_hal_adc.o(i.HAL_ADC_ConfigChannel) refers to aeabi_sdiv.o(.text) for __aeabi_uidivmod
    stm32f0xx_hal_adc.o(i.HAL_ADC_ConfigChannel) refers to system_stm32f0xx.o(.data) for SystemCoreClock
    stm32f0xx_hal_adc.o(i.HAL_ADC_DeInit) refers to stm32f0xx_hal_adc.o(i._ZN41_INTERNAL_19_stm32f0xx_hal_adc_c_52ef8f5018ADC_ConversionStopEP17ADC_HandleTypeDef) for [local to stm32f0xx_hal_adc_c]::ADC_ConversionStop(ADC_HandleTypeDef*)
    stm32f0xx_hal_adc.o(i.HAL_ADC_DeInit) refers to stm32f0xx_hal_msp.o(i.HAL_ADC_MspDeInit) for HAL_ADC_MspDeInit
    stm32f0xx_hal_adc.o(i.HAL_ADC_DeInit) refers to stm32f0xx_hal_adc.o(i._ZN41_INTERNAL_19_stm32f0xx_hal_adc_c_52ef8f5011ADC_DisableEP17ADC_HandleTypeDef) for [local to stm32f0xx_hal_adc_c]::ADC_Disable(ADC_HandleTypeDef*)
    stm32f0xx_hal_adc.o(i.HAL_ADC_IRQHandler) refers to stm32f0xx_hal_adc.o(i.HAL_ADC_ConvCpltCallback) for HAL_ADC_ConvCpltCallback
    stm32f0xx_hal_adc.o(i.HAL_ADC_IRQHandler) refers to stm32f0xx_hal_adc.o(i.HAL_ADC_LevelOutOfWindowCallback) for HAL_ADC_LevelOutOfWindowCallback
    stm32f0xx_hal_adc.o(i.HAL_ADC_IRQHandler) refers to stm32f0xx_hal_adc.o(i.HAL_ADC_ErrorCallback) for HAL_ADC_ErrorCallback
    stm32f0xx_hal_adc.o(i.HAL_ADC_Init) refers to stm32f0xx_hal_msp.o(i.HAL_ADC_MspInit) for HAL_ADC_MspInit
    stm32f0xx_hal_adc.o(i.HAL_ADC_PollForConversion) refers to stm32f0xx_hal.o(i.HAL_GetTick) for HAL_GetTick
    stm32f0xx_hal_adc.o(i.HAL_ADC_PollForEvent) refers to stm32f0xx_hal.o(i.HAL_GetTick) for HAL_GetTick
    stm32f0xx_hal_adc.o(i.HAL_ADC_Start) refers to stm32f0xx_hal_adc.o(i._ZN41_INTERNAL_19_stm32f0xx_hal_adc_c_52ef8f5010ADC_EnableEP17ADC_HandleTypeDef) for [local to stm32f0xx_hal_adc_c]::ADC_Enable(ADC_HandleTypeDef*)
    stm32f0xx_hal_adc.o(i.HAL_ADC_Start_DMA) refers to stm32f0xx_hal_adc.o(i._ZN41_INTERNAL_19_stm32f0xx_hal_adc_c_52ef8f5010ADC_EnableEP17ADC_HandleTypeDef) for [local to stm32f0xx_hal_adc_c]::ADC_Enable(ADC_HandleTypeDef*)
    stm32f0xx_hal_adc.o(i.HAL_ADC_Start_DMA) refers to stm32f0xx_hal_dma.o(i.HAL_DMA_Start_IT) for HAL_DMA_Start_IT
    stm32f0xx_hal_adc.o(i.HAL_ADC_Start_DMA) refers to stm32f0xx_hal_adc.o(i._ZN41_INTERNAL_19_stm32f0xx_hal_adc_c_52ef8f5015ADC_DMAConvCpltEP19__DMA_HandleTypeDef) for [local to stm32f0xx_hal_adc_c]::ADC_DMAConvCplt(__DMA_HandleTypeDef*)
    stm32f0xx_hal_adc.o(i.HAL_ADC_Start_DMA) refers to stm32f0xx_hal_adc.o(i._ZN41_INTERNAL_19_stm32f0xx_hal_adc_c_52ef8f5012ADC_DMAErrorEP19__DMA_HandleTypeDef) for [local to stm32f0xx_hal_adc_c]::ADC_DMAError(__DMA_HandleTypeDef*)
    stm32f0xx_hal_adc.o(i.HAL_ADC_Start_IT) refers to stm32f0xx_hal_adc.o(i._ZN41_INTERNAL_19_stm32f0xx_hal_adc_c_52ef8f5010ADC_EnableEP17ADC_HandleTypeDef) for [local to stm32f0xx_hal_adc_c]::ADC_Enable(ADC_HandleTypeDef*)
    stm32f0xx_hal_adc.o(i.HAL_ADC_Stop) refers to stm32f0xx_hal_adc.o(i._ZN41_INTERNAL_19_stm32f0xx_hal_adc_c_52ef8f5018ADC_ConversionStopEP17ADC_HandleTypeDef) for [local to stm32f0xx_hal_adc_c]::ADC_ConversionStop(ADC_HandleTypeDef*)
    stm32f0xx_hal_adc.o(i.HAL_ADC_Stop) refers to stm32f0xx_hal_adc.o(i._ZN41_INTERNAL_19_stm32f0xx_hal_adc_c_52ef8f5011ADC_DisableEP17ADC_HandleTypeDef) for [local to stm32f0xx_hal_adc_c]::ADC_Disable(ADC_HandleTypeDef*)
    stm32f0xx_hal_adc.o(i.HAL_ADC_Stop_DMA) refers to stm32f0xx_hal_adc.o(i._ZN41_INTERNAL_19_stm32f0xx_hal_adc_c_52ef8f5018ADC_ConversionStopEP17ADC_HandleTypeDef) for [local to stm32f0xx_hal_adc_c]::ADC_ConversionStop(ADC_HandleTypeDef*)
    stm32f0xx_hal_adc.o(i.HAL_ADC_Stop_DMA) refers to stm32f0xx_hal_dma.o(i.HAL_DMA_Abort) for HAL_DMA_Abort
    stm32f0xx_hal_adc.o(i.HAL_ADC_Stop_DMA) refers to stm32f0xx_hal_adc.o(i._ZN41_INTERNAL_19_stm32f0xx_hal_adc_c_52ef8f5011ADC_DisableEP17ADC_HandleTypeDef) for [local to stm32f0xx_hal_adc_c]::ADC_Disable(ADC_HandleTypeDef*)
    stm32f0xx_hal_adc.o(i.HAL_ADC_Stop_IT) refers to stm32f0xx_hal_adc.o(i._ZN41_INTERNAL_19_stm32f0xx_hal_adc_c_52ef8f5018ADC_ConversionStopEP17ADC_HandleTypeDef) for [local to stm32f0xx_hal_adc_c]::ADC_ConversionStop(ADC_HandleTypeDef*)
    stm32f0xx_hal_adc.o(i.HAL_ADC_Stop_IT) refers to stm32f0xx_hal_adc.o(i._ZN41_INTERNAL_19_stm32f0xx_hal_adc_c_52ef8f5011ADC_DisableEP17ADC_HandleTypeDef) for [local to stm32f0xx_hal_adc_c]::ADC_Disable(ADC_HandleTypeDef*)
    stm32f0xx_hal_adc.o(i._ZN41_INTERNAL_19_stm32f0xx_hal_adc_c_52ef8f5010ADC_EnableEP17ADC_HandleTypeDef) refers to aeabi_sdiv.o(.text) for __aeabi_uidivmod
    stm32f0xx_hal_adc.o(i._ZN41_INTERNAL_19_stm32f0xx_hal_adc_c_52ef8f5010ADC_EnableEP17ADC_HandleTypeDef) refers to stm32f0xx_hal.o(i.HAL_GetTick) for HAL_GetTick
    stm32f0xx_hal_adc.o(i._ZN41_INTERNAL_19_stm32f0xx_hal_adc_c_52ef8f5010ADC_EnableEP17ADC_HandleTypeDef) refers to system_stm32f0xx.o(.data) for SystemCoreClock
    stm32f0xx_hal_adc.o(i._ZN41_INTERNAL_19_stm32f0xx_hal_adc_c_52ef8f5011ADC_DisableEP17ADC_HandleTypeDef) refers to stm32f0xx_hal.o(i.HAL_GetTick) for HAL_GetTick
    stm32f0xx_hal_adc.o(i._ZN41_INTERNAL_19_stm32f0xx_hal_adc_c_52ef8f5012ADC_DMAErrorEP19__DMA_HandleTypeDef) refers to stm32f0xx_hal_adc.o(i.HAL_ADC_ErrorCallback) for HAL_ADC_ErrorCallback
    stm32f0xx_hal_adc.o(i._ZN41_INTERNAL_19_stm32f0xx_hal_adc_c_52ef8f5015ADC_DMAConvCpltEP19__DMA_HandleTypeDef) refers to stm32f0xx_hal_adc.o(i.HAL_ADC_ConvCpltCallback) for HAL_ADC_ConvCpltCallback
    stm32f0xx_hal_adc.o(i._ZN41_INTERNAL_19_stm32f0xx_hal_adc_c_52ef8f5018ADC_ConversionStopEP17ADC_HandleTypeDef) refers to stm32f0xx_hal.o(i.HAL_GetTick) for HAL_GetTick
    stm32f0xx_hal_adc.o(.ARM.exidx) refers to stm32f0xx_hal_adc.o(i.HAL_ADC_MspInit) for i.HAL_ADC_MspInit
    stm32f0xx_hal_adc.o(.ARM.exidx) refers to stm32f0xx_hal_adc.o(i.HAL_ADC_Init) for i.HAL_ADC_Init
    stm32f0xx_hal_adc.o(.ARM.exidx) refers to stm32f0xx_hal_adc.o(i.HAL_ADC_MspDeInit) for i.HAL_ADC_MspDeInit
    stm32f0xx_hal_adc.o(.ARM.exidx) refers to stm32f0xx_hal_adc.o(i._ZN41_INTERNAL_19_stm32f0xx_hal_adc_c_52ef8f5011ADC_DisableEP17ADC_HandleTypeDef) for i._ZN41_INTERNAL_19_stm32f0xx_hal_adc_c_52ef8f5011ADC_DisableEP17ADC_HandleTypeDef
    stm32f0xx_hal_adc.o(.ARM.exidx) refers to stm32f0xx_hal_adc.o(i._ZN41_INTERNAL_19_stm32f0xx_hal_adc_c_52ef8f5018ADC_ConversionStopEP17ADC_HandleTypeDef) for i._ZN41_INTERNAL_19_stm32f0xx_hal_adc_c_52ef8f5018ADC_ConversionStopEP17ADC_HandleTypeDef
    stm32f0xx_hal_adc.o(.ARM.exidx) refers to stm32f0xx_hal_adc.o(i.HAL_ADC_DeInit) for i.HAL_ADC_DeInit
    stm32f0xx_hal_adc.o(.ARM.exidx) refers to stm32f0xx_hal_adc.o(i._ZN41_INTERNAL_19_stm32f0xx_hal_adc_c_52ef8f5010ADC_EnableEP17ADC_HandleTypeDef) for i._ZN41_INTERNAL_19_stm32f0xx_hal_adc_c_52ef8f5010ADC_EnableEP17ADC_HandleTypeDef
    stm32f0xx_hal_adc.o(.ARM.exidx) refers to stm32f0xx_hal_adc.o(i.HAL_ADC_Start) for i.HAL_ADC_Start
    stm32f0xx_hal_adc.o(.ARM.exidx) refers to stm32f0xx_hal_adc.o(i.HAL_ADC_Stop) for i.HAL_ADC_Stop
    stm32f0xx_hal_adc.o(.ARM.exidx) refers to stm32f0xx_hal_adc.o(i.HAL_ADC_PollForConversion) for i.HAL_ADC_PollForConversion
    stm32f0xx_hal_adc.o(.ARM.exidx) refers to stm32f0xx_hal_adc.o(i.HAL_ADC_PollForEvent) for i.HAL_ADC_PollForEvent
    stm32f0xx_hal_adc.o(.ARM.exidx) refers to stm32f0xx_hal_adc.o(i.HAL_ADC_Start_IT) for i.HAL_ADC_Start_IT
    stm32f0xx_hal_adc.o(.ARM.exidx) refers to stm32f0xx_hal_adc.o(i.HAL_ADC_Stop_IT) for i.HAL_ADC_Stop_IT
    stm32f0xx_hal_adc.o(.ARM.exidx) refers to stm32f0xx_hal_adc.o(i.HAL_ADC_ErrorCallback) for i.HAL_ADC_ErrorCallback
    stm32f0xx_hal_adc.o(.ARM.exidx) refers to stm32f0xx_hal_adc.o(i._ZN41_INTERNAL_19_stm32f0xx_hal_adc_c_52ef8f5012ADC_DMAErrorEP19__DMA_HandleTypeDef) for i._ZN41_INTERNAL_19_stm32f0xx_hal_adc_c_52ef8f5012ADC_DMAErrorEP19__DMA_HandleTypeDef
    stm32f0xx_hal_adc.o(.ARM.exidx) refers to stm32f0xx_hal_adc.o(i.HAL_ADC_ConvCpltCallback) for i.HAL_ADC_ConvCpltCallback
    stm32f0xx_hal_adc.o(.ARM.exidx) refers to stm32f0xx_hal_adc.o(i._ZN41_INTERNAL_19_stm32f0xx_hal_adc_c_52ef8f5015ADC_DMAConvCpltEP19__DMA_HandleTypeDef) for i._ZN41_INTERNAL_19_stm32f0xx_hal_adc_c_52ef8f5015ADC_DMAConvCpltEP19__DMA_HandleTypeDef
    stm32f0xx_hal_adc.o(.ARM.exidx) refers to stm32f0xx_hal_adc.o(i.HAL_ADC_Start_DMA) for i.HAL_ADC_Start_DMA
    stm32f0xx_hal_adc.o(.ARM.exidx) refers to stm32f0xx_hal_adc.o(i.HAL_ADC_Stop_DMA) for i.HAL_ADC_Stop_DMA
    stm32f0xx_hal_adc.o(.ARM.exidx) refers to stm32f0xx_hal_adc.o(i.HAL_ADC_GetValue) for i.HAL_ADC_GetValue
    stm32f0xx_hal_adc.o(.ARM.exidx) refers to stm32f0xx_hal_adc.o(i.HAL_ADC_LevelOutOfWindowCallback) for i.HAL_ADC_LevelOutOfWindowCallback
    stm32f0xx_hal_adc.o(.ARM.exidx) refers to stm32f0xx_hal_adc.o(i.HAL_ADC_IRQHandler) for i.HAL_ADC_IRQHandler
    stm32f0xx_hal_adc.o(.ARM.exidx) refers to stm32f0xx_hal_adc.o(i.HAL_ADC_ConvHalfCpltCallback) for i.HAL_ADC_ConvHalfCpltCallback
    stm32f0xx_hal_adc.o(.ARM.exidx) refers to stm32f0xx_hal_adc.o(i.HAL_ADC_ConfigChannel) for i.HAL_ADC_ConfigChannel
    stm32f0xx_hal_adc.o(.ARM.exidx) refers to stm32f0xx_hal_adc.o(i.HAL_ADC_AnalogWDGConfig) for i.HAL_ADC_AnalogWDGConfig
    stm32f0xx_hal_adc.o(.ARM.exidx) refers to stm32f0xx_hal_adc.o(i.HAL_ADC_GetState) for i.HAL_ADC_GetState
    stm32f0xx_hal_adc.o(.ARM.exidx) refers to stm32f0xx_hal_adc.o(i.HAL_ADC_GetError) for i.HAL_ADC_GetError
    stm32f0xx_hal_rcc.o(i.HAL_RCC_ClockConfig) refers to stm32f0xx_hal.o(i.HAL_GetTick) for HAL_GetTick
    stm32f0xx_hal_rcc.o(i.HAL_RCC_ClockConfig) refers to stm32f0xx_hal_rcc.o(i.HAL_RCC_GetSysClockFreq) for HAL_RCC_GetSysClockFreq
    stm32f0xx_hal_rcc.o(i.HAL_RCC_ClockConfig) refers to stm32f0xx_hal.o(i.HAL_InitTick) for HAL_InitTick
    stm32f0xx_hal_rcc.o(i.HAL_RCC_ClockConfig) refers to system_stm32f0xx.o(.constdata) for AHBPrescTable
    stm32f0xx_hal_rcc.o(i.HAL_RCC_ClockConfig) refers to system_stm32f0xx.o(.data) for SystemCoreClock
    stm32f0xx_hal_rcc.o(i.HAL_RCC_DeInit) refers to system_stm32f0xx.o(.data) for SystemCoreClock
    stm32f0xx_hal_rcc.o(i.HAL_RCC_GetHCLKFreq) refers to system_stm32f0xx.o(.data) for SystemCoreClock
    stm32f0xx_hal_rcc.o(i.HAL_RCC_GetPCLK1Freq) refers to system_stm32f0xx.o(.data) for SystemCoreClock
    stm32f0xx_hal_rcc.o(i.HAL_RCC_GetPCLK1Freq) refers to system_stm32f0xx.o(.constdata) for APBPrescTable
    stm32f0xx_hal_rcc.o(i.HAL_RCC_GetSysClockFreq) refers to aeabi_sdiv.o(.text) for __aeabi_uidivmod
    stm32f0xx_hal_rcc.o(i.HAL_RCC_MCOConfig) refers to stm32f0xx_hal_gpio.o(i.HAL_GPIO_Init) for HAL_GPIO_Init
    stm32f0xx_hal_rcc.o(i.HAL_RCC_NMI_IRQHandler) refers to stm32f0xx_hal_rcc.o(i.HAL_RCC_CSSCallback) for HAL_RCC_CSSCallback
    stm32f0xx_hal_rcc.o(i.HAL_RCC_OscConfig) refers to stm32f0xx_hal.o(i.HAL_GetTick) for HAL_GetTick
    stm32f0xx_hal_rcc.o(.ARM.exidx) refers to stm32f0xx_hal_rcc.o(i.HAL_RCC_DeInit) for i.HAL_RCC_DeInit
    stm32f0xx_hal_rcc.o(.ARM.exidx) refers to stm32f0xx_hal_rcc.o(i.HAL_RCC_OscConfig) for i.HAL_RCC_OscConfig
    stm32f0xx_hal_rcc.o(.ARM.exidx) refers to stm32f0xx_hal_rcc.o(i.HAL_RCC_GetSysClockFreq) for i.HAL_RCC_GetSysClockFreq
    stm32f0xx_hal_rcc.o(.ARM.exidx) refers to stm32f0xx_hal_rcc.o(i.HAL_RCC_ClockConfig) for i.HAL_RCC_ClockConfig
    stm32f0xx_hal_rcc.o(.ARM.exidx) refers to stm32f0xx_hal_rcc.o(i.HAL_RCC_MCOConfig) for i.HAL_RCC_MCOConfig
    stm32f0xx_hal_rcc.o(.ARM.exidx) refers to stm32f0xx_hal_rcc.o(i.HAL_RCC_EnableCSS) for i.HAL_RCC_EnableCSS
    stm32f0xx_hal_rcc.o(.ARM.exidx) refers to stm32f0xx_hal_rcc.o(i.HAL_RCC_DisableCSS) for i.HAL_RCC_DisableCSS
    stm32f0xx_hal_rcc.o(.ARM.exidx) refers to stm32f0xx_hal_rcc.o(i.HAL_RCC_GetHCLKFreq) for i.HAL_RCC_GetHCLKFreq
    stm32f0xx_hal_rcc.o(.ARM.exidx) refers to stm32f0xx_hal_rcc.o(i.HAL_RCC_GetPCLK1Freq) for i.HAL_RCC_GetPCLK1Freq
    stm32f0xx_hal_rcc.o(.ARM.exidx) refers to stm32f0xx_hal_rcc.o(i.HAL_RCC_GetOscConfig) for i.HAL_RCC_GetOscConfig
    stm32f0xx_hal_rcc.o(.ARM.exidx) refers to stm32f0xx_hal_rcc.o(i.HAL_RCC_GetClockConfig) for i.HAL_RCC_GetClockConfig
    stm32f0xx_hal_rcc.o(.ARM.exidx) refers to stm32f0xx_hal_rcc.o(i.HAL_RCC_CSSCallback) for i.HAL_RCC_CSSCallback
    stm32f0xx_hal_rcc.o(.ARM.exidx) refers to stm32f0xx_hal_rcc.o(i.HAL_RCC_NMI_IRQHandler) for i.HAL_RCC_NMI_IRQHandler
    stm32f0xx_hal.o(i.HAL_DeInit) refers to stm32f0xx_hal.o(i.HAL_MspDeInit) for HAL_MspDeInit
    stm32f0xx_hal.o(i.HAL_Delay) refers to stm32f0xx_hal.o(i.HAL_GetTick) for HAL_GetTick
    stm32f0xx_hal.o(i.HAL_GetTick) refers to stm32f0xx_hal.o(.data) for .data
    stm32f0xx_hal.o(i.HAL_IncTick) refers to stm32f0xx_hal.o(.data) for .data
    stm32f0xx_hal.o(i.HAL_Init) refers to stm32f0xx_hal.o(i.HAL_InitTick) for HAL_InitTick
    stm32f0xx_hal.o(i.HAL_Init) refers to stm32f0xx_hal_msp.o(i.HAL_MspInit) for HAL_MspInit
    stm32f0xx_hal.o(i.HAL_InitTick) refers to stm32f0xx_hal_rcc.o(i.HAL_RCC_GetHCLKFreq) for HAL_RCC_GetHCLKFreq
    stm32f0xx_hal.o(i.HAL_InitTick) refers to aeabi_sdiv.o(.text) for __aeabi_uidivmod
    stm32f0xx_hal.o(i.HAL_InitTick) refers to stm32f0xx_hal_cortex.o(i.HAL_SYSTICK_Config) for HAL_SYSTICK_Config
    stm32f0xx_hal.o(i.HAL_InitTick) refers to stm32f0xx_hal_cortex.o(i.HAL_NVIC_SetPriority) for HAL_NVIC_SetPriority
    stm32f0xx_hal.o(.ARM.exidx) refers to stm32f0xx_hal.o(i.HAL_MspInit) for i.HAL_MspInit
    stm32f0xx_hal.o(.ARM.exidx) refers to stm32f0xx_hal.o(i.HAL_InitTick) for i.HAL_InitTick
    stm32f0xx_hal.o(.ARM.exidx) refers to stm32f0xx_hal.o(i.HAL_Init) for i.HAL_Init
    stm32f0xx_hal.o(.ARM.exidx) refers to stm32f0xx_hal.o(i.HAL_MspDeInit) for i.HAL_MspDeInit
    stm32f0xx_hal.o(.ARM.exidx) refers to stm32f0xx_hal.o(i.HAL_DeInit) for i.HAL_DeInit
    stm32f0xx_hal.o(.ARM.exidx) refers to stm32f0xx_hal.o(i.HAL_IncTick) for i.HAL_IncTick
    stm32f0xx_hal.o(.ARM.exidx) refers to stm32f0xx_hal.o(i.HAL_GetTick) for i.HAL_GetTick
    stm32f0xx_hal.o(.ARM.exidx) refers to stm32f0xx_hal.o(i.HAL_Delay) for i.HAL_Delay
    stm32f0xx_hal.o(.ARM.exidx) refers to stm32f0xx_hal.o(i.HAL_SuspendTick) for i.HAL_SuspendTick
    stm32f0xx_hal.o(.ARM.exidx) refers to stm32f0xx_hal.o(i.HAL_ResumeTick) for i.HAL_ResumeTick
    stm32f0xx_hal.o(.ARM.exidx) refers to stm32f0xx_hal.o(i.HAL_GetHalVersion) for i.HAL_GetHalVersion
    stm32f0xx_hal.o(.ARM.exidx) refers to stm32f0xx_hal.o(i.HAL_GetREVID) for i.HAL_GetREVID
    stm32f0xx_hal.o(.ARM.exidx) refers to stm32f0xx_hal.o(i.HAL_GetDEVID) for i.HAL_GetDEVID
    stm32f0xx_hal.o(.ARM.exidx) refers to stm32f0xx_hal.o(i.HAL_GetUIDw0) for i.HAL_GetUIDw0
    stm32f0xx_hal.o(.ARM.exidx) refers to stm32f0xx_hal.o(i.HAL_GetUIDw1) for i.HAL_GetUIDw1
    stm32f0xx_hal.o(.ARM.exidx) refers to stm32f0xx_hal.o(i.HAL_GetUIDw2) for i.HAL_GetUIDw2
    stm32f0xx_hal.o(.ARM.exidx) refers to stm32f0xx_hal.o(i.HAL_DBGMCU_EnableDBGStopMode) for i.HAL_DBGMCU_EnableDBGStopMode
    stm32f0xx_hal.o(.ARM.exidx) refers to stm32f0xx_hal.o(i.HAL_DBGMCU_DisableDBGStopMode) for i.HAL_DBGMCU_DisableDBGStopMode
    stm32f0xx_hal.o(.ARM.exidx) refers to stm32f0xx_hal.o(i.HAL_DBGMCU_EnableDBGStandbyMode) for i.HAL_DBGMCU_EnableDBGStandbyMode
    stm32f0xx_hal.o(.ARM.exidx) refers to stm32f0xx_hal.o(i.HAL_DBGMCU_DisableDBGStandbyMode) for i.HAL_DBGMCU_DisableDBGStandbyMode
    stm32f0xx_hal_i2c_ex.o(.ARM.exidx) refers to stm32f0xx_hal_i2c_ex.o(i.HAL_I2CEx_ConfigAnalogFilter) for i.HAL_I2CEx_ConfigAnalogFilter
    stm32f0xx_hal_i2c_ex.o(.ARM.exidx) refers to stm32f0xx_hal_i2c_ex.o(i.HAL_I2CEx_ConfigDigitalFilter) for i.HAL_I2CEx_ConfigDigitalFilter
    stm32f0xx_hal_i2c_ex.o(.ARM.exidx) refers to stm32f0xx_hal_i2c_ex.o(i.HAL_I2CEx_EnableWakeUp) for i.HAL_I2CEx_EnableWakeUp
    stm32f0xx_hal_i2c_ex.o(.ARM.exidx) refers to stm32f0xx_hal_i2c_ex.o(i.HAL_I2CEx_DisableWakeUp) for i.HAL_I2CEx_DisableWakeUp
    stm32f0xx_hal_i2c_ex.o(.ARM.exidx) refers to stm32f0xx_hal_i2c_ex.o(i.HAL_I2CEx_EnableFastModePlus) for i.HAL_I2CEx_EnableFastModePlus
    stm32f0xx_hal_i2c_ex.o(.ARM.exidx) refers to stm32f0xx_hal_i2c_ex.o(i.HAL_I2CEx_DisableFastModePlus) for i.HAL_I2CEx_DisableFastModePlus
    stm32f0xx_hal_tim.o(i.HAL_TIM_Base_DeInit) refers to stm32f0xx_hal_msp.o(i.HAL_TIM_Base_MspDeInit) for HAL_TIM_Base_MspDeInit
    stm32f0xx_hal_tim.o(i.HAL_TIM_Base_Init) refers to stm32f0xx_hal_msp.o(i.HAL_TIM_Base_MspInit) for HAL_TIM_Base_MspInit
    stm32f0xx_hal_tim.o(i.HAL_TIM_Base_Init) refers to stm32f0xx_hal_tim.o(i.TIM_Base_SetConfig) for TIM_Base_SetConfig
    stm32f0xx_hal_tim.o(i.HAL_TIM_Base_Start_DMA) refers to stm32f0xx_hal_dma.o(i.HAL_DMA_Start_IT) for HAL_DMA_Start_IT
    stm32f0xx_hal_tim.o(i.HAL_TIM_Base_Start_DMA) refers to stm32f0xx_hal_tim.o(i._ZN41_INTERNAL_19_stm32f0xx_hal_tim_c_a9d95b5224TIM_DMAPeriodElapsedCpltEP19__DMA_HandleTypeDef) for [local to stm32f0xx_hal_tim_c]::TIM_DMAPeriodElapsedCplt(__DMA_HandleTypeDef*)
    stm32f0xx_hal_tim.o(i.HAL_TIM_Base_Start_DMA) refers to stm32f0xx_hal_tim.o(i.TIM_DMAError) for TIM_DMAError
    stm32f0xx_hal_tim.o(i.HAL_TIM_ConfigClockSource) refers to stm32f0xx_hal_tim.o(i.TIM_ETR_SetConfig) for TIM_ETR_SetConfig
    stm32f0xx_hal_tim.o(i.HAL_TIM_ConfigClockSource) refers to stm32f0xx_hal_tim.o(i._ZN41_INTERNAL_19_stm32f0xx_hal_tim_c_a9d95b5224TIM_TI1_ConfigInputStageEP11TIM_TypeDefjj) for [local to stm32f0xx_hal_tim_c]::TIM_TI1_ConfigInputStage(TIM_TypeDef*, unsigned, unsigned)
    stm32f0xx_hal_tim.o(i.HAL_TIM_ConfigClockSource) refers to stm32f0xx_hal_tim.o(i._ZN41_INTERNAL_19_stm32f0xx_hal_tim_c_a9d95b5224TIM_TI2_ConfigInputStageEP11TIM_TypeDefjj) for [local to stm32f0xx_hal_tim_c]::TIM_TI2_ConfigInputStage(TIM_TypeDef*, unsigned, unsigned)
    stm32f0xx_hal_tim.o(i.HAL_TIM_ConfigClockSource) refers to stm32f0xx_hal_tim.o(i._ZN41_INTERNAL_19_stm32f0xx_hal_tim_c_a9d95b5218TIM_ITRx_SetConfigEP11TIM_TypeDeft) for [local to stm32f0xx_hal_tim_c]::TIM_ITRx_SetConfig(TIM_TypeDef*, unsigned short)
    stm32f0xx_hal_tim.o(i.HAL_TIM_ConfigOCrefClear) refers to stm32f0xx_hal_tim.o(i.TIM_ETR_SetConfig) for TIM_ETR_SetConfig
    stm32f0xx_hal_tim.o(i.HAL_TIM_DMABurst_MultiReadStart) refers to stm32f0xx_hal_dma.o(i.HAL_DMA_Start_IT) for HAL_DMA_Start_IT
    stm32f0xx_hal_tim.o(i.HAL_TIM_DMABurst_MultiReadStart) refers to stm32f0xx_hal_tim.o(i.TIM_DMAError) for TIM_DMAError
    stm32f0xx_hal_tim.o(i.HAL_TIM_DMABurst_MultiReadStart) refers to stm32f0xx_hal_tim.o(i.TIM_DMACaptureCplt) for TIM_DMACaptureCplt
    stm32f0xx_hal_tim.o(i.HAL_TIM_DMABurst_MultiReadStart) refers to stm32f0xx_hal_tim.o(i._ZN41_INTERNAL_19_stm32f0xx_hal_tim_c_a9d95b5218TIM_DMATriggerCpltEP19__DMA_HandleTypeDef) for [local to stm32f0xx_hal_tim_c]::TIM_DMATriggerCplt(__DMA_HandleTypeDef*)
    stm32f0xx_hal_tim.o(i.HAL_TIM_DMABurst_MultiReadStart) refers to stm32f0xx_hal_tim.o(i._ZN41_INTERNAL_19_stm32f0xx_hal_tim_c_a9d95b5224TIM_DMAPeriodElapsedCpltEP19__DMA_HandleTypeDef) for [local to stm32f0xx_hal_tim_c]::TIM_DMAPeriodElapsedCplt(__DMA_HandleTypeDef*)
    stm32f0xx_hal_tim.o(i.HAL_TIM_DMABurst_MultiReadStart) refers to stm32f0xx_hal_tim_ex.o(i.TIMEx_DMACommutationCplt) for TIMEx_DMACommutationCplt
    stm32f0xx_hal_tim.o(i.HAL_TIM_DMABurst_MultiWriteStart) refers to stm32f0xx_hal_dma.o(i.HAL_DMA_Start_IT) for HAL_DMA_Start_IT
    stm32f0xx_hal_tim.o(i.HAL_TIM_DMABurst_MultiWriteStart) refers to stm32f0xx_hal_tim.o(i.TIM_DMAError) for TIM_DMAError
    stm32f0xx_hal_tim.o(i.HAL_TIM_DMABurst_MultiWriteStart) refers to stm32f0xx_hal_tim.o(i.TIM_DMADelayPulseCplt) for TIM_DMADelayPulseCplt
    stm32f0xx_hal_tim.o(i.HAL_TIM_DMABurst_MultiWriteStart) refers to stm32f0xx_hal_tim.o(i._ZN41_INTERNAL_19_stm32f0xx_hal_tim_c_a9d95b5218TIM_DMATriggerCpltEP19__DMA_HandleTypeDef) for [local to stm32f0xx_hal_tim_c]::TIM_DMATriggerCplt(__DMA_HandleTypeDef*)
    stm32f0xx_hal_tim.o(i.HAL_TIM_DMABurst_MultiWriteStart) refers to stm32f0xx_hal_tim.o(i._ZN41_INTERNAL_19_stm32f0xx_hal_tim_c_a9d95b5224TIM_DMAPeriodElapsedCpltEP19__DMA_HandleTypeDef) for [local to stm32f0xx_hal_tim_c]::TIM_DMAPeriodElapsedCplt(__DMA_HandleTypeDef*)
    stm32f0xx_hal_tim.o(i.HAL_TIM_DMABurst_MultiWriteStart) refers to stm32f0xx_hal_tim_ex.o(i.TIMEx_DMACommutationCplt) for TIMEx_DMACommutationCplt
    stm32f0xx_hal_tim.o(i.HAL_TIM_DMABurst_ReadStart) refers to stm32f0xx_hal_tim.o(i.HAL_TIM_DMABurst_MultiReadStart) for HAL_TIM_DMABurst_MultiReadStart
    stm32f0xx_hal_tim.o(i.HAL_TIM_DMABurst_ReadStop) refers to stm32f0xx_hal_dma.o(i.HAL_DMA_Abort) for HAL_DMA_Abort
    stm32f0xx_hal_tim.o(i.HAL_TIM_DMABurst_WriteStart) refers to stm32f0xx_hal_tim.o(i.HAL_TIM_DMABurst_MultiWriteStart) for HAL_TIM_DMABurst_MultiWriteStart
    stm32f0xx_hal_tim.o(i.HAL_TIM_DMABurst_WriteStop) refers to stm32f0xx_hal_dma.o(i.HAL_DMA_Abort) for HAL_DMA_Abort
    stm32f0xx_hal_tim.o(i.HAL_TIM_Encoder_DeInit) refers to stm32f0xx_hal_tim.o(i.HAL_TIM_Encoder_MspDeInit) for HAL_TIM_Encoder_MspDeInit
    stm32f0xx_hal_tim.o(i.HAL_TIM_Encoder_Init) refers to stm32f0xx_hal_tim.o(i.HAL_TIM_Encoder_MspInit) for HAL_TIM_Encoder_MspInit
    stm32f0xx_hal_tim.o(i.HAL_TIM_Encoder_Init) refers to stm32f0xx_hal_tim.o(i.TIM_Base_SetConfig) for TIM_Base_SetConfig
    stm32f0xx_hal_tim.o(i.HAL_TIM_Encoder_Start) refers to stm32f0xx_hal_tim.o(i.TIM_CCxChannelCmd) for TIM_CCxChannelCmd
    stm32f0xx_hal_tim.o(i.HAL_TIM_Encoder_Start_DMA) refers to stm32f0xx_hal_dma.o(i.HAL_DMA_Start_IT) for HAL_DMA_Start_IT
    stm32f0xx_hal_tim.o(i.HAL_TIM_Encoder_Start_DMA) refers to stm32f0xx_hal_tim.o(i.TIM_CCxChannelCmd) for TIM_CCxChannelCmd
    stm32f0xx_hal_tim.o(i.HAL_TIM_Encoder_Start_DMA) refers to stm32f0xx_hal_tim.o(i.TIM_DMACaptureCplt) for TIM_DMACaptureCplt
    stm32f0xx_hal_tim.o(i.HAL_TIM_Encoder_Start_DMA) refers to stm32f0xx_hal_tim.o(i.TIM_DMAError) for TIM_DMAError
    stm32f0xx_hal_tim.o(i.HAL_TIM_Encoder_Start_IT) refers to stm32f0xx_hal_tim.o(i.TIM_CCxChannelCmd) for TIM_CCxChannelCmd
    stm32f0xx_hal_tim.o(i.HAL_TIM_Encoder_Stop) refers to stm32f0xx_hal_tim.o(i.TIM_CCxChannelCmd) for TIM_CCxChannelCmd
    stm32f0xx_hal_tim.o(i.HAL_TIM_Encoder_Stop_DMA) refers to stm32f0xx_hal_tim.o(i.TIM_CCxChannelCmd) for TIM_CCxChannelCmd
    stm32f0xx_hal_tim.o(i.HAL_TIM_Encoder_Stop_IT) refers to stm32f0xx_hal_tim.o(i.TIM_CCxChannelCmd) for TIM_CCxChannelCmd
    stm32f0xx_hal_tim.o(i.HAL_TIM_IC_ConfigChannel) refers to stm32f0xx_hal_tim.o(i.TIM_TI1_SetConfig) for TIM_TI1_SetConfig
    stm32f0xx_hal_tim.o(i.HAL_TIM_IC_ConfigChannel) refers to stm32f0xx_hal_tim.o(i._ZN41_INTERNAL_19_stm32f0xx_hal_tim_c_a9d95b5217TIM_TI2_SetConfigEP11TIM_TypeDefjjj) for [local to stm32f0xx_hal_tim_c]::TIM_TI2_SetConfig(TIM_TypeDef*, unsigned, unsigned, unsigned)
    stm32f0xx_hal_tim.o(i.HAL_TIM_IC_DeInit) refers to stm32f0xx_hal_tim.o(i.HAL_TIM_IC_MspDeInit) for HAL_TIM_IC_MspDeInit
    stm32f0xx_hal_tim.o(i.HAL_TIM_IC_Init) refers to stm32f0xx_hal_tim.o(i.HAL_TIM_IC_MspInit) for HAL_TIM_IC_MspInit
    stm32f0xx_hal_tim.o(i.HAL_TIM_IC_Init) refers to stm32f0xx_hal_tim.o(i.TIM_Base_SetConfig) for TIM_Base_SetConfig
    stm32f0xx_hal_tim.o(i.HAL_TIM_IC_Start) refers to stm32f0xx_hal_tim.o(i.TIM_CCxChannelCmd) for TIM_CCxChannelCmd
    stm32f0xx_hal_tim.o(i.HAL_TIM_IC_Start_DMA) refers to stm32f0xx_hal_dma.o(i.HAL_DMA_Start_IT) for HAL_DMA_Start_IT
    stm32f0xx_hal_tim.o(i.HAL_TIM_IC_Start_DMA) refers to stm32f0xx_hal_tim.o(i.TIM_CCxChannelCmd) for TIM_CCxChannelCmd
    stm32f0xx_hal_tim.o(i.HAL_TIM_IC_Start_DMA) refers to stm32f0xx_hal_tim.o(i.TIM_DMACaptureCplt) for TIM_DMACaptureCplt
    stm32f0xx_hal_tim.o(i.HAL_TIM_IC_Start_DMA) refers to stm32f0xx_hal_tim.o(i.TIM_DMAError) for TIM_DMAError
    stm32f0xx_hal_tim.o(i.HAL_TIM_IC_Start_IT) refers to stm32f0xx_hal_tim.o(i.TIM_CCxChannelCmd) for TIM_CCxChannelCmd
    stm32f0xx_hal_tim.o(i.HAL_TIM_IC_Stop) refers to stm32f0xx_hal_tim.o(i.TIM_CCxChannelCmd) for TIM_CCxChannelCmd
    stm32f0xx_hal_tim.o(i.HAL_TIM_IC_Stop_DMA) refers to stm32f0xx_hal_tim.o(i.TIM_CCxChannelCmd) for TIM_CCxChannelCmd
    stm32f0xx_hal_tim.o(i.HAL_TIM_IC_Stop_IT) refers to stm32f0xx_hal_tim.o(i.TIM_CCxChannelCmd) for TIM_CCxChannelCmd
    stm32f0xx_hal_tim.o(i.HAL_TIM_IRQHandler) refers to stm32f0xx_hal_tim.o(i.HAL_TIM_IC_CaptureCallback) for HAL_TIM_IC_CaptureCallback
    stm32f0xx_hal_tim.o(i.HAL_TIM_IRQHandler) refers to stm32f0xx_hal_tim.o(i.HAL_TIM_OC_DelayElapsedCallback) for HAL_TIM_OC_DelayElapsedCallback
    stm32f0xx_hal_tim.o(i.HAL_TIM_IRQHandler) refers to stm32f0xx_hal_tim.o(i.HAL_TIM_PWM_PulseFinishedCallback) for HAL_TIM_PWM_PulseFinishedCallback
    stm32f0xx_hal_tim.o(i.HAL_TIM_IRQHandler) refers to stm32f0xx_it.o(i.HAL_TIM_PeriodElapsedCallback) for HAL_TIM_PeriodElapsedCallback
    stm32f0xx_hal_tim.o(i.HAL_TIM_IRQHandler) refers to stm32f0xx_hal_tim_ex.o(i.HAL_TIMEx_BreakCallback) for HAL_TIMEx_BreakCallback
    stm32f0xx_hal_tim.o(i.HAL_TIM_IRQHandler) refers to stm32f0xx_hal_tim.o(i.HAL_TIM_TriggerCallback) for HAL_TIM_TriggerCallback
    stm32f0xx_hal_tim.o(i.HAL_TIM_IRQHandler) refers to stm32f0xx_hal_tim_ex.o(i.HAL_TIMEx_CommutationCallback) for HAL_TIMEx_CommutationCallback
    stm32f0xx_hal_tim.o(i.HAL_TIM_OC_ConfigChannel) refers to stm32f0xx_hal_tim.o(i._ZN41_INTERNAL_19_stm32f0xx_hal_tim_c_a9d95b5217TIM_OC1_SetConfigEP11TIM_TypeDefP18TIM_OC_InitTypeDef) for [local to stm32f0xx_hal_tim_c]::TIM_OC1_SetConfig(TIM_TypeDef*, TIM_OC_InitTypeDef*)
    stm32f0xx_hal_tim.o(i.HAL_TIM_OC_ConfigChannel) refers to stm32f0xx_hal_tim.o(i.TIM_OC2_SetConfig) for TIM_OC2_SetConfig
    stm32f0xx_hal_tim.o(i.HAL_TIM_OC_ConfigChannel) refers to stm32f0xx_hal_tim.o(i._ZN41_INTERNAL_19_stm32f0xx_hal_tim_c_a9d95b5217TIM_OC3_SetConfigEP11TIM_TypeDefP18TIM_OC_InitTypeDef) for [local to stm32f0xx_hal_tim_c]::TIM_OC3_SetConfig(TIM_TypeDef*, TIM_OC_InitTypeDef*)
    stm32f0xx_hal_tim.o(i.HAL_TIM_OC_ConfigChannel) refers to stm32f0xx_hal_tim.o(i._ZN41_INTERNAL_19_stm32f0xx_hal_tim_c_a9d95b5217TIM_OC4_SetConfigEP11TIM_TypeDefP18TIM_OC_InitTypeDef) for [local to stm32f0xx_hal_tim_c]::TIM_OC4_SetConfig(TIM_TypeDef*, TIM_OC_InitTypeDef*)
    stm32f0xx_hal_tim.o(i.HAL_TIM_OC_DeInit) refers to stm32f0xx_hal_tim.o(i.HAL_TIM_OC_MspDeInit) for HAL_TIM_OC_MspDeInit
    stm32f0xx_hal_tim.o(i.HAL_TIM_OC_Init) refers to stm32f0xx_hal_tim.o(i.HAL_TIM_OC_MspInit) for HAL_TIM_OC_MspInit
    stm32f0xx_hal_tim.o(i.HAL_TIM_OC_Init) refers to stm32f0xx_hal_tim.o(i.TIM_Base_SetConfig) for TIM_Base_SetConfig
    stm32f0xx_hal_tim.o(i.HAL_TIM_OC_Start) refers to stm32f0xx_hal_tim.o(i.TIM_CCxChannelCmd) for TIM_CCxChannelCmd
    stm32f0xx_hal_tim.o(i.HAL_TIM_OC_Start_DMA) refers to stm32f0xx_hal_dma.o(i.HAL_DMA_Start_IT) for HAL_DMA_Start_IT
    stm32f0xx_hal_tim.o(i.HAL_TIM_OC_Start_DMA) refers to stm32f0xx_hal_tim.o(i.TIM_CCxChannelCmd) for TIM_CCxChannelCmd
    stm32f0xx_hal_tim.o(i.HAL_TIM_OC_Start_DMA) refers to stm32f0xx_hal_tim.o(i.TIM_DMADelayPulseCplt) for TIM_DMADelayPulseCplt
    stm32f0xx_hal_tim.o(i.HAL_TIM_OC_Start_DMA) refers to stm32f0xx_hal_tim.o(i.TIM_DMAError) for TIM_DMAError
    stm32f0xx_hal_tim.o(i.HAL_TIM_OC_Start_IT) refers to stm32f0xx_hal_tim.o(i.TIM_CCxChannelCmd) for TIM_CCxChannelCmd
    stm32f0xx_hal_tim.o(i.HAL_TIM_OC_Stop) refers to stm32f0xx_hal_tim.o(i.TIM_CCxChannelCmd) for TIM_CCxChannelCmd
    stm32f0xx_hal_tim.o(i.HAL_TIM_OC_Stop_DMA) refers to stm32f0xx_hal_tim.o(i.TIM_CCxChannelCmd) for TIM_CCxChannelCmd
    stm32f0xx_hal_tim.o(i.HAL_TIM_OC_Stop_IT) refers to stm32f0xx_hal_tim.o(i.TIM_CCxChannelCmd) for TIM_CCxChannelCmd
    stm32f0xx_hal_tim.o(i.HAL_TIM_OnePulse_ConfigChannel) refers to stm32f0xx_hal_tim.o(i._ZN41_INTERNAL_19_stm32f0xx_hal_tim_c_a9d95b5217TIM_OC1_SetConfigEP11TIM_TypeDefP18TIM_OC_InitTypeDef) for [local to stm32f0xx_hal_tim_c]::TIM_OC1_SetConfig(TIM_TypeDef*, TIM_OC_InitTypeDef*)
    stm32f0xx_hal_tim.o(i.HAL_TIM_OnePulse_ConfigChannel) refers to stm32f0xx_hal_tim.o(i.TIM_OC2_SetConfig) for TIM_OC2_SetConfig
    stm32f0xx_hal_tim.o(i.HAL_TIM_OnePulse_ConfigChannel) refers to stm32f0xx_hal_tim.o(i.TIM_TI1_SetConfig) for TIM_TI1_SetConfig
    stm32f0xx_hal_tim.o(i.HAL_TIM_OnePulse_ConfigChannel) refers to stm32f0xx_hal_tim.o(i._ZN41_INTERNAL_19_stm32f0xx_hal_tim_c_a9d95b5217TIM_TI2_SetConfigEP11TIM_TypeDefjjj) for [local to stm32f0xx_hal_tim_c]::TIM_TI2_SetConfig(TIM_TypeDef*, unsigned, unsigned, unsigned)
    stm32f0xx_hal_tim.o(i.HAL_TIM_OnePulse_DeInit) refers to stm32f0xx_hal_tim.o(i.HAL_TIM_OnePulse_MspDeInit) for HAL_TIM_OnePulse_MspDeInit
    stm32f0xx_hal_tim.o(i.HAL_TIM_OnePulse_Init) refers to stm32f0xx_hal_tim.o(i.HAL_TIM_OnePulse_MspInit) for HAL_TIM_OnePulse_MspInit
    stm32f0xx_hal_tim.o(i.HAL_TIM_OnePulse_Init) refers to stm32f0xx_hal_tim.o(i.TIM_Base_SetConfig) for TIM_Base_SetConfig
    stm32f0xx_hal_tim.o(i.HAL_TIM_OnePulse_Start) refers to stm32f0xx_hal_tim.o(i.TIM_CCxChannelCmd) for TIM_CCxChannelCmd
    stm32f0xx_hal_tim.o(i.HAL_TIM_OnePulse_Start_IT) refers to stm32f0xx_hal_tim.o(i.TIM_CCxChannelCmd) for TIM_CCxChannelCmd
    stm32f0xx_hal_tim.o(i.HAL_TIM_OnePulse_Stop) refers to stm32f0xx_hal_tim.o(i.TIM_CCxChannelCmd) for TIM_CCxChannelCmd
    stm32f0xx_hal_tim.o(i.HAL_TIM_OnePulse_Stop_IT) refers to stm32f0xx_hal_tim.o(i.TIM_CCxChannelCmd) for TIM_CCxChannelCmd
    stm32f0xx_hal_tim.o(i.HAL_TIM_PWM_ConfigChannel) refers to stm32f0xx_hal_tim.o(i._ZN41_INTERNAL_19_stm32f0xx_hal_tim_c_a9d95b5217TIM_OC1_SetConfigEP11TIM_TypeDefP18TIM_OC_InitTypeDef) for [local to stm32f0xx_hal_tim_c]::TIM_OC1_SetConfig(TIM_TypeDef*, TIM_OC_InitTypeDef*)
    stm32f0xx_hal_tim.o(i.HAL_TIM_PWM_ConfigChannel) refers to stm32f0xx_hal_tim.o(i.TIM_OC2_SetConfig) for TIM_OC2_SetConfig
    stm32f0xx_hal_tim.o(i.HAL_TIM_PWM_ConfigChannel) refers to stm32f0xx_hal_tim.o(i._ZN41_INTERNAL_19_stm32f0xx_hal_tim_c_a9d95b5217TIM_OC3_SetConfigEP11TIM_TypeDefP18TIM_OC_InitTypeDef) for [local to stm32f0xx_hal_tim_c]::TIM_OC3_SetConfig(TIM_TypeDef*, TIM_OC_InitTypeDef*)
    stm32f0xx_hal_tim.o(i.HAL_TIM_PWM_ConfigChannel) refers to stm32f0xx_hal_tim.o(i._ZN41_INTERNAL_19_stm32f0xx_hal_tim_c_a9d95b5217TIM_OC4_SetConfigEP11TIM_TypeDefP18TIM_OC_InitTypeDef) for [local to stm32f0xx_hal_tim_c]::TIM_OC4_SetConfig(TIM_TypeDef*, TIM_OC_InitTypeDef*)
    stm32f0xx_hal_tim.o(i.HAL_TIM_PWM_DeInit) refers to stm32f0xx_hal_tim.o(i.HAL_TIM_PWM_MspDeInit) for HAL_TIM_PWM_MspDeInit
    stm32f0xx_hal_tim.o(i.HAL_TIM_PWM_Init) refers to stm32f0xx_hal_tim.o(i.HAL_TIM_PWM_MspInit) for HAL_TIM_PWM_MspInit
    stm32f0xx_hal_tim.o(i.HAL_TIM_PWM_Init) refers to stm32f0xx_hal_tim.o(i.TIM_Base_SetConfig) for TIM_Base_SetConfig
    stm32f0xx_hal_tim.o(i.HAL_TIM_PWM_Start) refers to stm32f0xx_hal_tim.o(i.TIM_CCxChannelCmd) for TIM_CCxChannelCmd
    stm32f0xx_hal_tim.o(i.HAL_TIM_PWM_Start_DMA) refers to stm32f0xx_hal_dma.o(i.HAL_DMA_Start_IT) for HAL_DMA_Start_IT
    stm32f0xx_hal_tim.o(i.HAL_TIM_PWM_Start_DMA) refers to stm32f0xx_hal_tim.o(i.TIM_CCxChannelCmd) for TIM_CCxChannelCmd
    stm32f0xx_hal_tim.o(i.HAL_TIM_PWM_Start_DMA) refers to stm32f0xx_hal_tim.o(i.TIM_DMADelayPulseCplt) for TIM_DMADelayPulseCplt
    stm32f0xx_hal_tim.o(i.HAL_TIM_PWM_Start_DMA) refers to stm32f0xx_hal_tim.o(i.TIM_DMAError) for TIM_DMAError
    stm32f0xx_hal_tim.o(i.HAL_TIM_PWM_Start_IT) refers to stm32f0xx_hal_tim.o(i.TIM_CCxChannelCmd) for TIM_CCxChannelCmd
    stm32f0xx_hal_tim.o(i.HAL_TIM_PWM_Stop) refers to stm32f0xx_hal_tim.o(i.TIM_CCxChannelCmd) for TIM_CCxChannelCmd
    stm32f0xx_hal_tim.o(i.HAL_TIM_PWM_Stop_DMA) refers to stm32f0xx_hal_tim.o(i.TIM_CCxChannelCmd) for TIM_CCxChannelCmd
    stm32f0xx_hal_tim.o(i.HAL_TIM_PWM_Stop_IT) refers to stm32f0xx_hal_tim.o(i.TIM_CCxChannelCmd) for TIM_CCxChannelCmd
    stm32f0xx_hal_tim.o(i.HAL_TIM_SlaveConfigSynchronization) refers to stm32f0xx_hal_tim.o(i._ZN41_INTERNAL_19_stm32f0xx_hal_tim_c_a9d95b5224TIM_SlaveTimer_SetConfigEP17TIM_HandleTypeDefP22TIM_SlaveConfigTypeDef) for [local to stm32f0xx_hal_tim_c]::TIM_SlaveTimer_SetConfig(TIM_HandleTypeDef*, TIM_SlaveConfigTypeDef*)
    stm32f0xx_hal_tim.o(i.HAL_TIM_SlaveConfigSynchronization_IT) refers to stm32f0xx_hal_tim.o(i._ZN41_INTERNAL_19_stm32f0xx_hal_tim_c_a9d95b5224TIM_SlaveTimer_SetConfigEP17TIM_HandleTypeDefP22TIM_SlaveConfigTypeDef) for [local to stm32f0xx_hal_tim_c]::TIM_SlaveTimer_SetConfig(TIM_HandleTypeDef*, TIM_SlaveConfigTypeDef*)
    stm32f0xx_hal_tim.o(i.TIM_DMACaptureCplt) refers to stm32f0xx_hal_tim.o(i.HAL_TIM_IC_CaptureCallback) for HAL_TIM_IC_CaptureCallback
    stm32f0xx_hal_tim.o(i.TIM_DMADelayPulseCplt) refers to stm32f0xx_hal_tim.o(i.HAL_TIM_PWM_PulseFinishedCallback) for HAL_TIM_PWM_PulseFinishedCallback
    stm32f0xx_hal_tim.o(i.TIM_DMAError) refers to stm32f0xx_hal_tim.o(i.HAL_TIM_ErrorCallback) for HAL_TIM_ErrorCallback
    stm32f0xx_hal_tim.o(i._ZN41_INTERNAL_19_stm32f0xx_hal_tim_c_a9d95b5218TIM_DMATriggerCpltEP19__DMA_HandleTypeDef) refers to stm32f0xx_hal_tim.o(i.HAL_TIM_TriggerCallback) for HAL_TIM_TriggerCallback
    stm32f0xx_hal_tim.o(i._ZN41_INTERNAL_19_stm32f0xx_hal_tim_c_a9d95b5224TIM_DMAPeriodElapsedCpltEP19__DMA_HandleTypeDef) refers to stm32f0xx_it.o(i.HAL_TIM_PeriodElapsedCallback) for HAL_TIM_PeriodElapsedCallback
    stm32f0xx_hal_tim.o(i._ZN41_INTERNAL_19_stm32f0xx_hal_tim_c_a9d95b5224TIM_SlaveTimer_SetConfigEP17TIM_HandleTypeDefP22TIM_SlaveConfigTypeDef) refers to stm32f0xx_hal_dma.o(i.__ARM_common_switch8) for __ARM_common_switch8
    stm32f0xx_hal_tim.o(i._ZN41_INTERNAL_19_stm32f0xx_hal_tim_c_a9d95b5224TIM_SlaveTimer_SetConfigEP17TIM_HandleTypeDefP22TIM_SlaveConfigTypeDef) refers to stm32f0xx_hal_tim.o(i.TIM_ETR_SetConfig) for TIM_ETR_SetConfig
    stm32f0xx_hal_tim.o(i._ZN41_INTERNAL_19_stm32f0xx_hal_tim_c_a9d95b5224TIM_SlaveTimer_SetConfigEP17TIM_HandleTypeDefP22TIM_SlaveConfigTypeDef) refers to stm32f0xx_hal_tim.o(i._ZN41_INTERNAL_19_stm32f0xx_hal_tim_c_a9d95b5224TIM_TI1_ConfigInputStageEP11TIM_TypeDefjj) for [local to stm32f0xx_hal_tim_c]::TIM_TI1_ConfigInputStage(TIM_TypeDef*, unsigned, unsigned)
    stm32f0xx_hal_tim.o(i._ZN41_INTERNAL_19_stm32f0xx_hal_tim_c_a9d95b5224TIM_SlaveTimer_SetConfigEP17TIM_HandleTypeDefP22TIM_SlaveConfigTypeDef) refers to stm32f0xx_hal_tim.o(i._ZN41_INTERNAL_19_stm32f0xx_hal_tim_c_a9d95b5224TIM_TI2_ConfigInputStageEP11TIM_TypeDefjj) for [local to stm32f0xx_hal_tim_c]::TIM_TI2_ConfigInputStage(TIM_TypeDef*, unsigned, unsigned)
    stm32f0xx_hal_tim.o(.ARM.exidx) refers to stm32f0xx_hal_tim.o(i.TIM_Base_SetConfig) for i.TIM_Base_SetConfig
    stm32f0xx_hal_tim.o(.ARM.exidx) refers to stm32f0xx_hal_tim.o(i.HAL_TIM_Base_MspInit) for i.HAL_TIM_Base_MspInit
    stm32f0xx_hal_tim.o(.ARM.exidx) refers to stm32f0xx_hal_tim.o(i.HAL_TIM_Base_Init) for i.HAL_TIM_Base_Init
    stm32f0xx_hal_tim.o(.ARM.exidx) refers to stm32f0xx_hal_tim.o(i.HAL_TIM_Base_MspDeInit) for i.HAL_TIM_Base_MspDeInit
    stm32f0xx_hal_tim.o(.ARM.exidx) refers to stm32f0xx_hal_tim.o(i.HAL_TIM_Base_DeInit) for i.HAL_TIM_Base_DeInit
    stm32f0xx_hal_tim.o(.ARM.exidx) refers to stm32f0xx_hal_tim.o(i.HAL_TIM_Base_Start) for i.HAL_TIM_Base_Start
    stm32f0xx_hal_tim.o(.ARM.exidx) refers to stm32f0xx_hal_tim.o(i.HAL_TIM_Base_Stop) for i.HAL_TIM_Base_Stop
    stm32f0xx_hal_tim.o(.ARM.exidx) refers to stm32f0xx_hal_tim.o(i.HAL_TIM_Base_Start_IT) for i.HAL_TIM_Base_Start_IT
    stm32f0xx_hal_tim.o(.ARM.exidx) refers to stm32f0xx_hal_tim.o(i.HAL_TIM_Base_Stop_IT) for i.HAL_TIM_Base_Stop_IT
    stm32f0xx_hal_tim.o(.ARM.exidx) refers to stm32f0xx_hal_tim.o(i.HAL_TIM_ErrorCallback) for i.HAL_TIM_ErrorCallback
    stm32f0xx_hal_tim.o(.ARM.exidx) refers to stm32f0xx_hal_tim.o(i.TIM_DMAError) for i.TIM_DMAError
    stm32f0xx_hal_tim.o(.ARM.exidx) refers to stm32f0xx_hal_tim.o(i.HAL_TIM_PeriodElapsedCallback) for i.HAL_TIM_PeriodElapsedCallback
    stm32f0xx_hal_tim.o(.ARM.exidx) refers to stm32f0xx_hal_tim.o(i._ZN41_INTERNAL_19_stm32f0xx_hal_tim_c_a9d95b5224TIM_DMAPeriodElapsedCpltEP19__DMA_HandleTypeDef) for i._ZN41_INTERNAL_19_stm32f0xx_hal_tim_c_a9d95b5224TIM_DMAPeriodElapsedCpltEP19__DMA_HandleTypeDef
    stm32f0xx_hal_tim.o(.ARM.exidx) refers to stm32f0xx_hal_tim.o(i.HAL_TIM_Base_Start_DMA) for i.HAL_TIM_Base_Start_DMA
    stm32f0xx_hal_tim.o(.ARM.exidx) refers to stm32f0xx_hal_tim.o(i.HAL_TIM_Base_Stop_DMA) for i.HAL_TIM_Base_Stop_DMA
    stm32f0xx_hal_tim.o(.ARM.exidx) refers to stm32f0xx_hal_tim.o(i.HAL_TIM_OC_MspInit) for i.HAL_TIM_OC_MspInit
    stm32f0xx_hal_tim.o(.ARM.exidx) refers to stm32f0xx_hal_tim.o(i.HAL_TIM_OC_Init) for i.HAL_TIM_OC_Init
    stm32f0xx_hal_tim.o(.ARM.exidx) refers to stm32f0xx_hal_tim.o(i.HAL_TIM_OC_MspDeInit) for i.HAL_TIM_OC_MspDeInit
    stm32f0xx_hal_tim.o(.ARM.exidx) refers to stm32f0xx_hal_tim.o(i.HAL_TIM_OC_DeInit) for i.HAL_TIM_OC_DeInit
    stm32f0xx_hal_tim.o(.ARM.exidx) refers to stm32f0xx_hal_tim.o(i.TIM_CCxChannelCmd) for i.TIM_CCxChannelCmd
    stm32f0xx_hal_tim.o(.ARM.exidx) refers to stm32f0xx_hal_tim.o(i.HAL_TIM_OC_Start) for i.HAL_TIM_OC_Start
    stm32f0xx_hal_tim.o(.ARM.exidx) refers to stm32f0xx_hal_tim.o(i.HAL_TIM_OC_Stop) for i.HAL_TIM_OC_Stop
    stm32f0xx_hal_tim.o(.ARM.exidx) refers to stm32f0xx_hal_tim.o(i.HAL_TIM_OC_Start_IT) for i.HAL_TIM_OC_Start_IT
    stm32f0xx_hal_tim.o(.ARM.exidx) refers to stm32f0xx_hal_tim.o(i.HAL_TIM_OC_Stop_IT) for i.HAL_TIM_OC_Stop_IT
    stm32f0xx_hal_tim.o(.ARM.exidx) refers to stm32f0xx_hal_tim.o(i.HAL_TIM_PWM_PulseFinishedCallback) for i.HAL_TIM_PWM_PulseFinishedCallback
    stm32f0xx_hal_tim.o(.ARM.exidx) refers to stm32f0xx_hal_tim.o(i.TIM_DMADelayPulseCplt) for i.TIM_DMADelayPulseCplt
    stm32f0xx_hal_tim.o(.ARM.exidx) refers to stm32f0xx_hal_tim.o(i.HAL_TIM_OC_Start_DMA) for i.HAL_TIM_OC_Start_DMA
    stm32f0xx_hal_tim.o(.ARM.exidx) refers to stm32f0xx_hal_tim.o(i.HAL_TIM_OC_Stop_DMA) for i.HAL_TIM_OC_Stop_DMA
    stm32f0xx_hal_tim.o(.ARM.exidx) refers to stm32f0xx_hal_tim.o(i.HAL_TIM_PWM_MspInit) for i.HAL_TIM_PWM_MspInit
    stm32f0xx_hal_tim.o(.ARM.exidx) refers to stm32f0xx_hal_tim.o(i.HAL_TIM_PWM_Init) for i.HAL_TIM_PWM_Init
    stm32f0xx_hal_tim.o(.ARM.exidx) refers to stm32f0xx_hal_tim.o(i.HAL_TIM_PWM_MspDeInit) for i.HAL_TIM_PWM_MspDeInit
    stm32f0xx_hal_tim.o(.ARM.exidx) refers to stm32f0xx_hal_tim.o(i.HAL_TIM_PWM_DeInit) for i.HAL_TIM_PWM_DeInit
    stm32f0xx_hal_tim.o(.ARM.exidx) refers to stm32f0xx_hal_tim.o(i.HAL_TIM_PWM_Start) for i.HAL_TIM_PWM_Start
    stm32f0xx_hal_tim.o(.ARM.exidx) refers to stm32f0xx_hal_tim.o(i.HAL_TIM_PWM_Stop) for i.HAL_TIM_PWM_Stop
    stm32f0xx_hal_tim.o(.ARM.exidx) refers to stm32f0xx_hal_tim.o(i.HAL_TIM_PWM_Start_IT) for i.HAL_TIM_PWM_Start_IT
    stm32f0xx_hal_tim.o(.ARM.exidx) refers to stm32f0xx_hal_tim.o(i.HAL_TIM_PWM_Stop_IT) for i.HAL_TIM_PWM_Stop_IT
    stm32f0xx_hal_tim.o(.ARM.exidx) refers to stm32f0xx_hal_tim.o(i.HAL_TIM_PWM_Start_DMA) for i.HAL_TIM_PWM_Start_DMA
    stm32f0xx_hal_tim.o(.ARM.exidx) refers to stm32f0xx_hal_tim.o(i.HAL_TIM_PWM_Stop_DMA) for i.HAL_TIM_PWM_Stop_DMA
    stm32f0xx_hal_tim.o(.ARM.exidx) refers to stm32f0xx_hal_tim.o(i.HAL_TIM_IC_MspInit) for i.HAL_TIM_IC_MspInit
    stm32f0xx_hal_tim.o(.ARM.exidx) refers to stm32f0xx_hal_tim.o(i.HAL_TIM_IC_Init) for i.HAL_TIM_IC_Init
    stm32f0xx_hal_tim.o(.ARM.exidx) refers to stm32f0xx_hal_tim.o(i.HAL_TIM_IC_MspDeInit) for i.HAL_TIM_IC_MspDeInit
    stm32f0xx_hal_tim.o(.ARM.exidx) refers to stm32f0xx_hal_tim.o(i.HAL_TIM_IC_DeInit) for i.HAL_TIM_IC_DeInit
    stm32f0xx_hal_tim.o(.ARM.exidx) refers to stm32f0xx_hal_tim.o(i.HAL_TIM_IC_Start) for i.HAL_TIM_IC_Start
    stm32f0xx_hal_tim.o(.ARM.exidx) refers to stm32f0xx_hal_tim.o(i.HAL_TIM_IC_Stop) for i.HAL_TIM_IC_Stop
    stm32f0xx_hal_tim.o(.ARM.exidx) refers to stm32f0xx_hal_tim.o(i.HAL_TIM_IC_Start_IT) for i.HAL_TIM_IC_Start_IT
    stm32f0xx_hal_tim.o(.ARM.exidx) refers to stm32f0xx_hal_tim.o(i.HAL_TIM_IC_Stop_IT) for i.HAL_TIM_IC_Stop_IT
    stm32f0xx_hal_tim.o(.ARM.exidx) refers to stm32f0xx_hal_tim.o(i.HAL_TIM_IC_CaptureCallback) for i.HAL_TIM_IC_CaptureCallback
    stm32f0xx_hal_tim.o(.ARM.exidx) refers to stm32f0xx_hal_tim.o(i.TIM_DMACaptureCplt) for i.TIM_DMACaptureCplt
    stm32f0xx_hal_tim.o(.ARM.exidx) refers to stm32f0xx_hal_tim.o(i.HAL_TIM_IC_Start_DMA) for i.HAL_TIM_IC_Start_DMA
    stm32f0xx_hal_tim.o(.ARM.exidx) refers to stm32f0xx_hal_tim.o(i.HAL_TIM_IC_Stop_DMA) for i.HAL_TIM_IC_Stop_DMA
    stm32f0xx_hal_tim.o(.ARM.exidx) refers to stm32f0xx_hal_tim.o(i.HAL_TIM_OnePulse_MspInit) for i.HAL_TIM_OnePulse_MspInit
    stm32f0xx_hal_tim.o(.ARM.exidx) refers to stm32f0xx_hal_tim.o(i.HAL_TIM_OnePulse_Init) for i.HAL_TIM_OnePulse_Init
    stm32f0xx_hal_tim.o(.ARM.exidx) refers to stm32f0xx_hal_tim.o(i.HAL_TIM_OnePulse_MspDeInit) for i.HAL_TIM_OnePulse_MspDeInit
    stm32f0xx_hal_tim.o(.ARM.exidx) refers to stm32f0xx_hal_tim.o(i.HAL_TIM_OnePulse_DeInit) for i.HAL_TIM_OnePulse_DeInit
    stm32f0xx_hal_tim.o(.ARM.exidx) refers to stm32f0xx_hal_tim.o(i.HAL_TIM_OnePulse_Start) for i.HAL_TIM_OnePulse_Start
    stm32f0xx_hal_tim.o(.ARM.exidx) refers to stm32f0xx_hal_tim.o(i.HAL_TIM_OnePulse_Stop) for i.HAL_TIM_OnePulse_Stop
    stm32f0xx_hal_tim.o(.ARM.exidx) refers to stm32f0xx_hal_tim.o(i.HAL_TIM_OnePulse_Start_IT) for i.HAL_TIM_OnePulse_Start_IT
    stm32f0xx_hal_tim.o(.ARM.exidx) refers to stm32f0xx_hal_tim.o(i.HAL_TIM_OnePulse_Stop_IT) for i.HAL_TIM_OnePulse_Stop_IT
    stm32f0xx_hal_tim.o(.ARM.exidx) refers to stm32f0xx_hal_tim.o(i.HAL_TIM_Encoder_MspInit) for i.HAL_TIM_Encoder_MspInit
    stm32f0xx_hal_tim.o(.ARM.exidx) refers to stm32f0xx_hal_tim.o(i.HAL_TIM_Encoder_Init) for i.HAL_TIM_Encoder_Init
    stm32f0xx_hal_tim.o(.ARM.exidx) refers to stm32f0xx_hal_tim.o(i.HAL_TIM_Encoder_MspDeInit) for i.HAL_TIM_Encoder_MspDeInit
    stm32f0xx_hal_tim.o(.ARM.exidx) refers to stm32f0xx_hal_tim.o(i.HAL_TIM_Encoder_DeInit) for i.HAL_TIM_Encoder_DeInit
    stm32f0xx_hal_tim.o(.ARM.exidx) refers to stm32f0xx_hal_tim.o(i.HAL_TIM_Encoder_Start) for i.HAL_TIM_Encoder_Start
    stm32f0xx_hal_tim.o(.ARM.exidx) refers to stm32f0xx_hal_tim.o(i.HAL_TIM_Encoder_Stop) for i.HAL_TIM_Encoder_Stop
    stm32f0xx_hal_tim.o(.ARM.exidx) refers to stm32f0xx_hal_tim.o(i.HAL_TIM_Encoder_Start_IT) for i.HAL_TIM_Encoder_Start_IT
    stm32f0xx_hal_tim.o(.ARM.exidx) refers to stm32f0xx_hal_tim.o(i.HAL_TIM_Encoder_Stop_IT) for i.HAL_TIM_Encoder_Stop_IT
    stm32f0xx_hal_tim.o(.ARM.exidx) refers to stm32f0xx_hal_tim.o(i.HAL_TIM_Encoder_Start_DMA) for i.HAL_TIM_Encoder_Start_DMA
    stm32f0xx_hal_tim.o(.ARM.exidx) refers to stm32f0xx_hal_tim.o(i.HAL_TIM_Encoder_Stop_DMA) for i.HAL_TIM_Encoder_Stop_DMA
    stm32f0xx_hal_tim.o(.ARM.exidx) refers to stm32f0xx_hal_tim.o(i.HAL_TIM_TriggerCallback) for i.HAL_TIM_TriggerCallback
    stm32f0xx_hal_tim.o(.ARM.exidx) refers to stm32f0xx_hal_tim.o(i.HAL_TIM_OC_DelayElapsedCallback) for i.HAL_TIM_OC_DelayElapsedCallback
    stm32f0xx_hal_tim.o(.ARM.exidx) refers to stm32f0xx_hal_tim.o(i.HAL_TIM_IRQHandler) for i.HAL_TIM_IRQHandler
    stm32f0xx_hal_tim.o(.ARM.exidx) refers to stm32f0xx_hal_tim.o(i._ZN41_INTERNAL_19_stm32f0xx_hal_tim_c_a9d95b5217TIM_OC4_SetConfigEP11TIM_TypeDefP18TIM_OC_InitTypeDef) for i._ZN41_INTERNAL_19_stm32f0xx_hal_tim_c_a9d95b5217TIM_OC4_SetConfigEP11TIM_TypeDefP18TIM_OC_InitTypeDef
    stm32f0xx_hal_tim.o(.ARM.exidx) refers to stm32f0xx_hal_tim.o(i._ZN41_INTERNAL_19_stm32f0xx_hal_tim_c_a9d95b5217TIM_OC3_SetConfigEP11TIM_TypeDefP18TIM_OC_InitTypeDef) for i._ZN41_INTERNAL_19_stm32f0xx_hal_tim_c_a9d95b5217TIM_OC3_SetConfigEP11TIM_TypeDefP18TIM_OC_InitTypeDef
    stm32f0xx_hal_tim.o(.ARM.exidx) refers to stm32f0xx_hal_tim.o(i.TIM_OC2_SetConfig) for i.TIM_OC2_SetConfig
    stm32f0xx_hal_tim.o(.ARM.exidx) refers to stm32f0xx_hal_tim.o(i._ZN41_INTERNAL_19_stm32f0xx_hal_tim_c_a9d95b5217TIM_OC1_SetConfigEP11TIM_TypeDefP18TIM_OC_InitTypeDef) for i._ZN41_INTERNAL_19_stm32f0xx_hal_tim_c_a9d95b5217TIM_OC1_SetConfigEP11TIM_TypeDefP18TIM_OC_InitTypeDef
    stm32f0xx_hal_tim.o(.ARM.exidx) refers to stm32f0xx_hal_tim.o(i.HAL_TIM_OC_ConfigChannel) for i.HAL_TIM_OC_ConfigChannel
    stm32f0xx_hal_tim.o(.ARM.exidx) refers to stm32f0xx_hal_tim.o(i._ZN41_INTERNAL_19_stm32f0xx_hal_tim_c_a9d95b5217TIM_TI2_SetConfigEP11TIM_TypeDefjjj) for i._ZN41_INTERNAL_19_stm32f0xx_hal_tim_c_a9d95b5217TIM_TI2_SetConfigEP11TIM_TypeDefjjj
    stm32f0xx_hal_tim.o(.ARM.exidx) refers to stm32f0xx_hal_tim.o(i.TIM_TI1_SetConfig) for i.TIM_TI1_SetConfig
    stm32f0xx_hal_tim.o(.ARM.exidx) refers to stm32f0xx_hal_tim.o(i.HAL_TIM_IC_ConfigChannel) for i.HAL_TIM_IC_ConfigChannel
    stm32f0xx_hal_tim.o(.ARM.exidx) refers to stm32f0xx_hal_tim.o(i.HAL_TIM_PWM_ConfigChannel) for i.HAL_TIM_PWM_ConfigChannel
    stm32f0xx_hal_tim.o(.ARM.exidx) refers to stm32f0xx_hal_tim.o(i.HAL_TIM_OnePulse_ConfigChannel) for i.HAL_TIM_OnePulse_ConfigChannel
    stm32f0xx_hal_tim.o(.ARM.exidx) refers to stm32f0xx_hal_tim.o(i._ZN41_INTERNAL_19_stm32f0xx_hal_tim_c_a9d95b5218TIM_DMATriggerCpltEP19__DMA_HandleTypeDef) for i._ZN41_INTERNAL_19_stm32f0xx_hal_tim_c_a9d95b5218TIM_DMATriggerCpltEP19__DMA_HandleTypeDef
    stm32f0xx_hal_tim.o(.ARM.exidx) refers to stm32f0xx_hal_tim.o(i.HAL_TIM_DMABurst_MultiWriteStart) for i.HAL_TIM_DMABurst_MultiWriteStart
    stm32f0xx_hal_tim.o(.ARM.exidx) refers to stm32f0xx_hal_tim.o(i.HAL_TIM_DMABurst_WriteStart) for i.HAL_TIM_DMABurst_WriteStart
    stm32f0xx_hal_tim.o(.ARM.exidx) refers to stm32f0xx_hal_tim.o(i.HAL_TIM_DMABurst_WriteStop) for i.HAL_TIM_DMABurst_WriteStop
    stm32f0xx_hal_tim.o(.ARM.exidx) refers to stm32f0xx_hal_tim.o(i.HAL_TIM_DMABurst_MultiReadStart) for i.HAL_TIM_DMABurst_MultiReadStart
    stm32f0xx_hal_tim.o(.ARM.exidx) refers to stm32f0xx_hal_tim.o(i.HAL_TIM_DMABurst_ReadStart) for i.HAL_TIM_DMABurst_ReadStart
    stm32f0xx_hal_tim.o(.ARM.exidx) refers to stm32f0xx_hal_tim.o(i.HAL_TIM_DMABurst_ReadStop) for i.HAL_TIM_DMABurst_ReadStop
    stm32f0xx_hal_tim.o(.ARM.exidx) refers to stm32f0xx_hal_tim.o(i.HAL_TIM_GenerateEvent) for i.HAL_TIM_GenerateEvent
    stm32f0xx_hal_tim.o(.ARM.exidx) refers to stm32f0xx_hal_tim.o(i.TIM_ETR_SetConfig) for i.TIM_ETR_SetConfig
    stm32f0xx_hal_tim.o(.ARM.exidx) refers to stm32f0xx_hal_tim.o(i.HAL_TIM_ConfigOCrefClear) for i.HAL_TIM_ConfigOCrefClear
    stm32f0xx_hal_tim.o(.ARM.exidx) refers to stm32f0xx_hal_tim.o(i.HAL_TIM_ConfigClockSource) for i.HAL_TIM_ConfigClockSource
    stm32f0xx_hal_tim.o(.ARM.exidx) refers to stm32f0xx_hal_tim.o(i.HAL_TIM_ConfigTI1Input) for i.HAL_TIM_ConfigTI1Input
    stm32f0xx_hal_tim.o(.ARM.exidx) refers to stm32f0xx_hal_tim.o(i._ZN41_INTERNAL_19_stm32f0xx_hal_tim_c_a9d95b5224TIM_SlaveTimer_SetConfigEP17TIM_HandleTypeDefP22TIM_SlaveConfigTypeDef) for i._ZN41_INTERNAL_19_stm32f0xx_hal_tim_c_a9d95b5224TIM_SlaveTimer_SetConfigEP17TIM_HandleTypeDefP22TIM_SlaveConfigTypeDef
    stm32f0xx_hal_tim.o(.ARM.exidx) refers to stm32f0xx_hal_tim.o(i.HAL_TIM_SlaveConfigSynchronization) for i.HAL_TIM_SlaveConfigSynchronization
    stm32f0xx_hal_tim.o(.ARM.exidx) refers to stm32f0xx_hal_tim.o(i.HAL_TIM_SlaveConfigSynchronization_IT) for i.HAL_TIM_SlaveConfigSynchronization_IT
    stm32f0xx_hal_tim.o(.ARM.exidx) refers to stm32f0xx_hal_tim.o(i.HAL_TIM_ReadCapturedValue) for i.HAL_TIM_ReadCapturedValue
    stm32f0xx_hal_tim.o(.ARM.exidx) refers to stm32f0xx_hal_tim.o(i.HAL_TIM_Base_GetState) for i.HAL_TIM_Base_GetState
    stm32f0xx_hal_tim.o(.ARM.exidx) refers to stm32f0xx_hal_tim.o(i.HAL_TIM_OC_GetState) for i.HAL_TIM_OC_GetState
    stm32f0xx_hal_tim.o(.ARM.exidx) refers to stm32f0xx_hal_tim.o(i.HAL_TIM_PWM_GetState) for i.HAL_TIM_PWM_GetState
    stm32f0xx_hal_tim.o(.ARM.exidx) refers to stm32f0xx_hal_tim.o(i.HAL_TIM_IC_GetState) for i.HAL_TIM_IC_GetState
    stm32f0xx_hal_tim.o(.ARM.exidx) refers to stm32f0xx_hal_tim.o(i.HAL_TIM_OnePulse_GetState) for i.HAL_TIM_OnePulse_GetState
    stm32f0xx_hal_tim.o(.ARM.exidx) refers to stm32f0xx_hal_tim.o(i.HAL_TIM_Encoder_GetState) for i.HAL_TIM_Encoder_GetState
    stm32f0xx_hal_tim.o(.ARM.exidx) refers to stm32f0xx_hal_tim.o(i._ZN41_INTERNAL_19_stm32f0xx_hal_tim_c_a9d95b5218TIM_ITRx_SetConfigEP11TIM_TypeDeft) for i._ZN41_INTERNAL_19_stm32f0xx_hal_tim_c_a9d95b5218TIM_ITRx_SetConfigEP11TIM_TypeDeft
    stm32f0xx_hal_tim.o(.ARM.exidx) refers to stm32f0xx_hal_tim.o(i._ZN41_INTERNAL_19_stm32f0xx_hal_tim_c_a9d95b5224TIM_TI1_ConfigInputStageEP11TIM_TypeDefjj) for i._ZN41_INTERNAL_19_stm32f0xx_hal_tim_c_a9d95b5224TIM_TI1_ConfigInputStageEP11TIM_TypeDefjj
    stm32f0xx_hal_tim.o(.ARM.exidx) refers to stm32f0xx_hal_tim.o(i._ZN41_INTERNAL_19_stm32f0xx_hal_tim_c_a9d95b5224TIM_TI2_ConfigInputStageEP11TIM_TypeDefjj) for i._ZN41_INTERNAL_19_stm32f0xx_hal_tim_c_a9d95b5224TIM_TI2_ConfigInputStageEP11TIM_TypeDefjj
    stm32f0xx_hal_gpio.o(i.HAL_GPIO_EXTI_IRQHandler) refers to stm32f0xx_hal_gpio.o(i.HAL_GPIO_EXTI_Callback) for HAL_GPIO_EXTI_Callback
    stm32f0xx_hal_gpio.o(.ARM.exidx) refers to stm32f0xx_hal_gpio.o(i.HAL_GPIO_Init) for i.HAL_GPIO_Init
    stm32f0xx_hal_gpio.o(.ARM.exidx) refers to stm32f0xx_hal_gpio.o(i.HAL_GPIO_DeInit) for i.HAL_GPIO_DeInit
    stm32f0xx_hal_gpio.o(.ARM.exidx) refers to stm32f0xx_hal_gpio.o(i.HAL_GPIO_ReadPin) for i.HAL_GPIO_ReadPin
    stm32f0xx_hal_gpio.o(.ARM.exidx) refers to stm32f0xx_hal_gpio.o(i.HAL_GPIO_WritePin) for i.HAL_GPIO_WritePin
    stm32f0xx_hal_gpio.o(.ARM.exidx) refers to stm32f0xx_hal_gpio.o(i.HAL_GPIO_TogglePin) for i.HAL_GPIO_TogglePin
    stm32f0xx_hal_gpio.o(.ARM.exidx) refers to stm32f0xx_hal_gpio.o(i.HAL_GPIO_LockPin) for i.HAL_GPIO_LockPin
    stm32f0xx_hal_gpio.o(.ARM.exidx) refers to stm32f0xx_hal_gpio.o(i.HAL_GPIO_EXTI_Callback) for i.HAL_GPIO_EXTI_Callback
    stm32f0xx_hal_gpio.o(.ARM.exidx) refers to stm32f0xx_hal_gpio.o(i.HAL_GPIO_EXTI_IRQHandler) for i.HAL_GPIO_EXTI_IRQHandler
    stm32f0xx_hal_flash.o(i.FLASH_WaitForLastOperation) refers to stm32f0xx_hal.o(i.HAL_GetTick) for HAL_GetTick
    stm32f0xx_hal_flash.o(i.FLASH_WaitForLastOperation) refers to stm32f0xx_hal_flash.o(i._ZN43_INTERNAL_21_stm32f0xx_hal_flash_c_48aa8f3e18FLASH_SetErrorCodeEv) for [local to stm32f0xx_hal_flash_c]::FLASH_SetErrorCode()
    stm32f0xx_hal_flash.o(i.HAL_FLASH_GetError) refers to stm32f0xx_hal_flash.o(.bss) for .bss
    stm32f0xx_hal_flash.o(i.HAL_FLASH_IRQHandler) refers to stm32f0xx_hal_flash.o(i._ZN43_INTERNAL_21_stm32f0xx_hal_flash_c_48aa8f3e18FLASH_SetErrorCodeEv) for [local to stm32f0xx_hal_flash_c]::FLASH_SetErrorCode()
    stm32f0xx_hal_flash.o(i.HAL_FLASH_IRQHandler) refers to stm32f0xx_hal_flash.o(i.HAL_FLASH_OperationErrorCallback) for HAL_FLASH_OperationErrorCallback
    stm32f0xx_hal_flash.o(i.HAL_FLASH_IRQHandler) refers to stm32f0xx_hal_flash.o(i._ZN43_INTERNAL_21_stm32f0xx_hal_flash_c_48aa8f3e22FLASH_Program_HalfWordEjt) for [local to stm32f0xx_hal_flash_c]::FLASH_Program_HalfWord(unsigned, unsigned short)
    stm32f0xx_hal_flash.o(i.HAL_FLASH_IRQHandler) refers to stm32f0xx_hal_flash.o(i.HAL_FLASH_EndOfOperationCallback) for HAL_FLASH_EndOfOperationCallback
    stm32f0xx_hal_flash.o(i.HAL_FLASH_IRQHandler) refers to stm32f0xx_hal_flash_ex.o(i._Z15FLASH_PageErasej) for FLASH_PageErase(unsigned)
    stm32f0xx_hal_flash.o(i.HAL_FLASH_IRQHandler) refers to stm32f0xx_hal_flash.o(.bss) for .bss
    stm32f0xx_hal_flash.o(i.HAL_FLASH_OB_Launch) refers to stm32f0xx_hal_flash.o(i.FLASH_WaitForLastOperation) for FLASH_WaitForLastOperation
    stm32f0xx_hal_flash.o(i.HAL_FLASH_Program) refers to stm32f0xx_hal_flash.o(i.FLASH_WaitForLastOperation) for FLASH_WaitForLastOperation
    stm32f0xx_hal_flash.o(i.HAL_FLASH_Program) refers to llushr.o(.text) for __aeabi_llsr
    stm32f0xx_hal_flash.o(i.HAL_FLASH_Program) refers to stm32f0xx_hal_flash.o(i._ZN43_INTERNAL_21_stm32f0xx_hal_flash_c_48aa8f3e22FLASH_Program_HalfWordEjt) for [local to stm32f0xx_hal_flash_c]::FLASH_Program_HalfWord(unsigned, unsigned short)
    stm32f0xx_hal_flash.o(i.HAL_FLASH_Program) refers to stm32f0xx_hal_flash.o(.bss) for .bss
    stm32f0xx_hal_flash.o(i.HAL_FLASH_Program_IT) refers to stm32f0xx_hal_flash.o(i._ZN43_INTERNAL_21_stm32f0xx_hal_flash_c_48aa8f3e22FLASH_Program_HalfWordEjt) for [local to stm32f0xx_hal_flash_c]::FLASH_Program_HalfWord(unsigned, unsigned short)
    stm32f0xx_hal_flash.o(i.HAL_FLASH_Program_IT) refers to stm32f0xx_hal_flash.o(.bss) for .bss
    stm32f0xx_hal_flash.o(i._ZN43_INTERNAL_21_stm32f0xx_hal_flash_c_48aa8f3e18FLASH_SetErrorCodeEv) refers to stm32f0xx_hal_flash.o(.bss) for .bss
    stm32f0xx_hal_flash.o(i._ZN43_INTERNAL_21_stm32f0xx_hal_flash_c_48aa8f3e22FLASH_Program_HalfWordEjt) refers to stm32f0xx_hal_flash.o(.bss) for .bss
    stm32f0xx_hal_flash.o(.ARM.exidx) refers to stm32f0xx_hal_flash.o(i._ZN43_INTERNAL_21_stm32f0xx_hal_flash_c_48aa8f3e18FLASH_SetErrorCodeEv) for i._ZN43_INTERNAL_21_stm32f0xx_hal_flash_c_48aa8f3e18FLASH_SetErrorCodeEv
    stm32f0xx_hal_flash.o(.ARM.exidx) refers to stm32f0xx_hal_flash.o(i.FLASH_WaitForLastOperation) for i.FLASH_WaitForLastOperation
    stm32f0xx_hal_flash.o(.ARM.exidx) refers to stm32f0xx_hal_flash.o(i.HAL_FLASH_Program) for i.HAL_FLASH_Program
    stm32f0xx_hal_flash.o(.ARM.exidx) refers to stm32f0xx_hal_flash.o(i.HAL_FLASH_Program_IT) for i.HAL_FLASH_Program_IT
    stm32f0xx_hal_flash.o(.ARM.exidx) refers to stm32f0xx_hal_flash.o(i.HAL_FLASH_EndOfOperationCallback) for i.HAL_FLASH_EndOfOperationCallback
    stm32f0xx_hal_flash.o(.ARM.exidx) refers to stm32f0xx_hal_flash.o(i.HAL_FLASH_OperationErrorCallback) for i.HAL_FLASH_OperationErrorCallback
    stm32f0xx_hal_flash.o(.ARM.exidx) refers to stm32f0xx_hal_flash.o(i.HAL_FLASH_IRQHandler) for i.HAL_FLASH_IRQHandler
    stm32f0xx_hal_flash.o(.ARM.exidx) refers to stm32f0xx_hal_flash.o(i.HAL_FLASH_Unlock) for i.HAL_FLASH_Unlock
    stm32f0xx_hal_flash.o(.ARM.exidx) refers to stm32f0xx_hal_flash.o(i.HAL_FLASH_Lock) for i.HAL_FLASH_Lock
    stm32f0xx_hal_flash.o(.ARM.exidx) refers to stm32f0xx_hal_flash.o(i.HAL_FLASH_OB_Unlock) for i.HAL_FLASH_OB_Unlock
    stm32f0xx_hal_flash.o(.ARM.exidx) refers to stm32f0xx_hal_flash.o(i.HAL_FLASH_OB_Lock) for i.HAL_FLASH_OB_Lock
    stm32f0xx_hal_flash.o(.ARM.exidx) refers to stm32f0xx_hal_flash.o(i.HAL_FLASH_OB_Launch) for i.HAL_FLASH_OB_Launch
    stm32f0xx_hal_flash.o(.ARM.exidx) refers to stm32f0xx_hal_flash.o(i.HAL_FLASH_GetError) for i.HAL_FLASH_GetError
    stm32f0xx_hal_flash.o(.ARM.exidx) refers to stm32f0xx_hal_flash.o(i._ZN43_INTERNAL_21_stm32f0xx_hal_flash_c_48aa8f3e22FLASH_Program_HalfWordEjt) for i._ZN43_INTERNAL_21_stm32f0xx_hal_flash_c_48aa8f3e22FLASH_Program_HalfWordEjt
    system_stm32f0xx.o(i.SystemCoreClockUpdate) refers to aeabi_sdiv.o(.text) for __aeabi_uidivmod
    system_stm32f0xx.o(i.SystemCoreClockUpdate) refers to system_stm32f0xx.o(.data) for .data
    system_stm32f0xx.o(i.SystemCoreClockUpdate) refers to system_stm32f0xx.o(.constdata) for .constdata
    system_stm32f0xx.o(.ARM.exidx) refers to system_stm32f0xx.o(i.SystemInit) for i.SystemInit
    system_stm32f0xx.o(.ARM.exidx) refers to system_stm32f0xx.o(i.SystemCoreClockUpdate) for i.SystemCoreClockUpdate
    help.o(.ARM.exidx) refers to help.o(i._Z12time_elapsedthh) for i._Z12time_elapsedthh
    help.o(.ARM.exidx) refers to help.o(i._Z15time_elapsed_tmtRKSt2tmS1_) for i._Z15time_elapsed_tmtRKSt2tmS1_
    help.o(.ARM.exidx) refers to help.o(i._Z17time_elapsed_uinttRKSt2tmtt) for i._Z17time_elapsed_uinttRKSt2tmtt
    screen.o(i._Z10Screen_outv) refers to screen.o(i._ZN6Screen8delete_pEPc) for Screen::delete_p(char*)
    screen.o(i._Z10Screen_outv) refers to screen.o(i._Z11Dig_num_outRKcb) for Dig_num_out(const char&, bool)
    screen.o(i._Z10Screen_outv) refers to stm32f0xx_hal_gpio.o(i.HAL_GPIO_WritePin) for HAL_GPIO_WritePin
    screen.o(i._Z10Screen_outv) refers to screen.o(i._ZN5Digit8BSRR_OffEv) for Digit::BSRR_Off()
    screen.o(i._Z10Screen_outv) refers to screen.o(.data) for .data
    screen.o(i._Z10Screen_outv) refers to screen.o(.bss) for .bss
    screen.o(i._Z11Dig_num_outRKcb) refers to screen.o(i._Z13clearSegmentsv) for clearSegments()
    screen.o(i._Z11Dig_num_outRKcb) refers to screen.o(.data) for .data
    screen.o(i._Z12time_to_charRSt2tmPc) refers to aeabi_sdiv.o(.text) for __aeabi_idivmod
    screen.o(i._Z13clearSegmentsv) refers to screen.o(i._ZN7Segment8BSRR_OffEv) for Segment::BSRR_Off()
    screen.o(i._Z13clearSegmentsv) refers to screen.o(.data) for .data
    screen.o(i._Z16utoa_builtin_divjPc) refers to aeabi_sdiv.o(.text) for __aeabi_uidivmod
    screen.o(i._Z5num_0v) refers to screen.o(i._ZN7Segment7BSRR_OnEv) for Segment::BSRR_On()
    screen.o(i._Z5num_0v) refers to screen.o(.data) for .data
    screen.o(i._Z5num_1v) refers to screen.o(i._ZN7Segment7BSRR_OnEv) for Segment::BSRR_On()
    screen.o(i._Z5num_1v) refers to screen.o(.data) for .data
    screen.o(i._Z5num_2v) refers to screen.o(i._ZN7Segment7BSRR_OnEv) for Segment::BSRR_On()
    screen.o(i._Z5num_2v) refers to screen.o(.data) for .data
    screen.o(i._Z5num_3v) refers to screen.o(i._ZN7Segment7BSRR_OnEv) for Segment::BSRR_On()
    screen.o(i._Z5num_3v) refers to screen.o(.data) for .data
    screen.o(i._Z5num_4v) refers to screen.o(i._ZN7Segment7BSRR_OnEv) for Segment::BSRR_On()
    screen.o(i._Z5num_4v) refers to screen.o(.data) for .data
    screen.o(i._Z5num_5v) refers to screen.o(i._ZN7Segment7BSRR_OnEv) for Segment::BSRR_On()
    screen.o(i._Z5num_5v) refers to screen.o(.data) for .data
    screen.o(i._Z5num_6v) refers to screen.o(i._ZN7Segment7BSRR_OnEv) for Segment::BSRR_On()
    screen.o(i._Z5num_6v) refers to screen.o(.data) for .data
    screen.o(i._Z5num_7v) refers to screen.o(i._ZN7Segment7BSRR_OnEv) for Segment::BSRR_On()
    screen.o(i._Z5num_7v) refers to screen.o(.data) for .data
    screen.o(i._Z5num_8v) refers to screen.o(i._ZN7Segment7BSRR_OnEv) for Segment::BSRR_On()
    screen.o(i._Z5num_8v) refers to screen.o(.data) for .data
    screen.o(i._Z5num_9v) refers to screen.o(i._ZN7Segment7BSRR_OnEv) for Segment::BSRR_On()
    screen.o(i._Z5num_9v) refers to screen.o(.data) for .data
    screen.o(i._Z5pointv) refers to screen.o(i._ZN7Segment7BSRR_OnEv) for Segment::BSRR_On()
    screen.o(i._Z5pointv) refers to screen.o(.data) for .data
    screen.o(i._Z8letter_Av) refers to screen.o(i._ZN7Segment7BSRR_OnEv) for Segment::BSRR_On()
    screen.o(i._Z8letter_Av) refers to screen.o(.data) for .data
    screen.o(i._Z8letter_Cv) refers to screen.o(i._ZN7Segment7BSRR_OnEv) for Segment::BSRR_On()
    screen.o(i._Z8letter_Cv) refers to screen.o(.data) for .data
    screen.o(i._Z8letter_Ev) refers to screen.o(i._ZN7Segment7BSRR_OnEv) for Segment::BSRR_On()
    screen.o(i._Z8letter_Ev) refers to screen.o(.data) for .data
    screen.o(i._Z8letter_Lv) refers to screen.o(i._ZN7Segment7BSRR_OnEv) for Segment::BSRR_On()
    screen.o(i._Z8letter_Lv) refers to screen.o(.data) for .data
    screen.o(i._Z8letter_Ov) refers to screen.o(i._ZN7Segment7BSRR_OnEv) for Segment::BSRR_On()
    screen.o(i._Z8letter_Ov) refers to screen.o(.data) for .data
    screen.o(i._Z8letter_av) refers to screen.o(i._ZN7Segment7BSRR_OnEv) for Segment::BSRR_On()
    screen.o(i._Z8letter_av) refers to screen.o(.data) for .data
    screen.o(i._Z8letter_bv) refers to screen.o(i._ZN7Segment7BSRR_OnEv) for Segment::BSRR_On()
    screen.o(i._Z8letter_bv) refers to screen.o(.data) for .data
    screen.o(i._Z8letter_cv) refers to screen.o(i._ZN7Segment7BSRR_OnEv) for Segment::BSRR_On()
    screen.o(i._Z8letter_cv) refers to screen.o(.data) for .data
    screen.o(i._Z8letter_dv) refers to screen.o(i._ZN7Segment7BSRR_OnEv) for Segment::BSRR_On()
    screen.o(i._Z8letter_dv) refers to screen.o(.data) for .data
    screen.o(i._Z8letter_fv) refers to screen.o(i._ZN7Segment7BSRR_OnEv) for Segment::BSRR_On()
    screen.o(i._Z8letter_fv) refers to screen.o(.data) for .data
    screen.o(i._Z8letter_hv) refers to screen.o(i._ZN7Segment7BSRR_OnEv) for Segment::BSRR_On()
    screen.o(i._Z8letter_hv) refers to screen.o(.data) for .data
    screen.o(i._Z8letter_nv) refers to screen.o(i._ZN7Segment7BSRR_OnEv) for Segment::BSRR_On()
    screen.o(i._Z8letter_nv) refers to screen.o(.data) for .data
    screen.o(i._Z8letter_ov) refers to screen.o(i._ZN7Segment7BSRR_OnEv) for Segment::BSRR_On()
    screen.o(i._Z8letter_ov) refers to screen.o(.data) for .data
    screen.o(i._Z8letter_rv) refers to screen.o(i._ZN7Segment7BSRR_OnEv) for Segment::BSRR_On()
    screen.o(i._Z8letter_rv) refers to screen.o(.data) for .data
    screen.o(i._Z8letter_tv) refers to screen.o(i._ZN7Segment7BSRR_OnEv) for Segment::BSRR_On()
    screen.o(i._Z8letter_tv) refers to screen.o(.data) for .data
    screen.o(i._ZlsR6ScreenPKc) refers to screen.o(i._Z9clear_bufR6Screen) for clear_buf(Screen&)
    screen.o(i._ZlsR6ScreenPKc) refers to strlen.o(.text) for strlen
    screen.o(i._ZlsR6ScreenPKc) refers to rt_memmove.o(.text) for __aeabi_memmove
    screen.o(i._ZlsR6ScreenRKf) refers to _printf_pad.o(.text) for _printf_pre_padding
    screen.o(i._ZlsR6ScreenRKf) refers to _printf_percent.o(.ARM.Collect$$_printf_percent$$00000000) for _printf_percent
    screen.o(i._ZlsR6ScreenRKf) refers to _printf_f.o(.ARM.Collect$$_printf_percent$$00000003) for _printf_f
    screen.o(i._ZlsR6ScreenRKf) refers to printf1.o(x$fpl$printf1) for _printf_fp_dec
    screen.o(i._ZlsR6ScreenRKf) refers to screen.o(i._Z9clear_bufR6Screen) for clear_buf(Screen&)
    screen.o(i._ZlsR6ScreenRKf) refers to f2d.o(.text) for __aeabi_f2d
    screen.o(i._ZlsR6ScreenRKf) refers to noretval__2sprintf.o(.text) for __2sprintf
    screen.o(i._ZlsR6ScreenRKh) refers to screen.o(i._Z9clear_bufR6Screen) for clear_buf(Screen&)
    screen.o(i._ZlsR6ScreenRKh) refers to screen.o(i._Z16utoa_builtin_divjPc) for utoa_builtin_div(unsigned, char*)
    screen.o(i._ZlsR6ScreenRKh) refers to screen.o(i._ZlsR6ScreenPKc) for operator <<(Screen&, const char*)
    screen.o(i._ZlsR6ScreenRKj) refers to screen.o(i._Z9clear_bufR6Screen) for clear_buf(Screen&)
    screen.o(i._ZlsR6ScreenRKj) refers to screen.o(i._Z16utoa_builtin_divjPc) for utoa_builtin_div(unsigned, char*)
    screen.o(i._ZlsR6ScreenRKj) refers to screen.o(i._ZlsR6ScreenPKc) for operator <<(Screen&, const char*)
    screen.o(i._ZlsR6ScreenRKt) refers to screen.o(i._Z9clear_bufR6Screen) for clear_buf(Screen&)
    screen.o(i._ZlsR6ScreenRKt) refers to screen.o(i._Z16utoa_builtin_divjPc) for utoa_builtin_div(unsigned, char*)
    screen.o(i._ZlsR6ScreenRKt) refers to screen.o(i._ZlsR6ScreenPKc) for operator <<(Screen&, const char*)
    screen.o(i._ZlsR6ScreenSt2tm) refers to screen.o(i._Z9clear_bufR6Screen) for clear_buf(Screen&)
    screen.o(i._ZlsR6ScreenSt2tm) refers to screen.o(i._Z12time_to_charRSt2tmPc) for time_to_char(std::tm&, char*)
    screen.o(i._ZlsR6ScreenSt2tm) refers to screen.o(i._ZlsR6ScreenPKc) for operator <<(Screen&, const char*)
    screen.o(i.__sti___10_Screen_cpp_scr) refers to screen.o(i._ZN7SegmentC1EP12GPIO_TypeDeft) for Segment::Segment(GPIO_TypeDef*, unsigned short)
    screen.o(i.__sti___10_Screen_cpp_scr) refers to screen.o(i._ZN5DigitC1EP12GPIO_TypeDeft) for Digit::Digit(GPIO_TypeDef*, unsigned short)
    screen.o(i.__sti___10_Screen_cpp_scr) refers to screen.o(.data) for .data
    screen.o(i.__sti___10_Screen_cpp_scr) refers to screen.o(.bss) for .bss
    screen.o(.ARM.exidx) refers to screen.o(i._Z13clearSegmentsv) for i._Z13clearSegmentsv
    screen.o(.ARM.exidx) refers to screen.o(i._Z5pointv) for i._Z5pointv
    screen.o(.ARM.exidx) refers to screen.o(i._Z5num_0v) for i._Z5num_0v
    screen.o(.ARM.exidx) refers to screen.o(i._Z5num_1v) for i._Z5num_1v
    screen.o(.ARM.exidx) refers to screen.o(i._Z5num_2v) for i._Z5num_2v
    screen.o(.ARM.exidx) refers to screen.o(i._Z5num_3v) for i._Z5num_3v
    screen.o(.ARM.exidx) refers to screen.o(i._Z5num_4v) for i._Z5num_4v
    screen.o(.ARM.exidx) refers to screen.o(i._Z5num_5v) for i._Z5num_5v
    screen.o(.ARM.exidx) refers to screen.o(i._Z5num_6v) for i._Z5num_6v
    screen.o(.ARM.exidx) refers to screen.o(i._Z5num_7v) for i._Z5num_7v
    screen.o(.ARM.exidx) refers to screen.o(i._Z5num_8v) for i._Z5num_8v
    screen.o(.ARM.exidx) refers to screen.o(i._Z5num_9v) for i._Z5num_9v
    screen.o(.ARM.exidx) refers to screen.o(i._Z8letter_Av) for i._Z8letter_Av
    screen.o(.ARM.exidx) refers to screen.o(i._Z8letter_av) for i._Z8letter_av
    screen.o(.ARM.exidx) refers to screen.o(i._Z8letter_bv) for i._Z8letter_bv
    screen.o(.ARM.exidx) refers to screen.o(i._Z8letter_Cv) for i._Z8letter_Cv
    screen.o(.ARM.exidx) refers to screen.o(i._Z8letter_cv) for i._Z8letter_cv
    screen.o(.ARM.exidx) refers to screen.o(i._Z8letter_tv) for i._Z8letter_tv
    screen.o(.ARM.exidx) refers to screen.o(i._Z8letter_hv) for i._Z8letter_hv
    screen.o(.ARM.exidx) refers to screen.o(i._Z8letter_Ev) for i._Z8letter_Ev
    screen.o(.ARM.exidx) refers to screen.o(i._Z8letter_Lv) for i._Z8letter_Lv
    screen.o(.ARM.exidx) refers to screen.o(i._Z8letter_ov) for i._Z8letter_ov
    screen.o(.ARM.exidx) refers to screen.o(i._Z8letter_rv) for i._Z8letter_rv
    screen.o(.ARM.exidx) refers to screen.o(i._Z8letter_nv) for i._Z8letter_nv
    screen.o(.ARM.exidx) refers to screen.o(i._Z8letter_fv) for i._Z8letter_fv
    screen.o(.ARM.exidx) refers to screen.o(i._Z8letter_dv) for i._Z8letter_dv
    screen.o(.ARM.exidx) refers to screen.o(i._Z8letter_Ov) for i._Z8letter_Ov
    screen.o(.ARM.exidx) refers to screen.o(i._Z11Dig_num_outRKcb) for i._Z11Dig_num_outRKcb
    screen.o(.ARM.exidx) refers to screen.o(i._Z16utoa_builtin_divjPc) for i._Z16utoa_builtin_divjPc
    screen.o(.ARM.exidx) refers to screen.o(i._Z12time_to_charRSt2tmPc) for i._Z12time_to_charRSt2tmPc
    screen.o(.ARM.exidx) refers to screen.o(i._Z9clear_bufR6Screen) for i._Z9clear_bufR6Screen
    screen.o(.ARM.exidx) refers to screen.o(i._ZlsR6ScreenPKc) for i._ZlsR6ScreenPKc
    screen.o(.ARM.exidx) refers to screen.o(i._ZlsR6ScreenSt2tm) for i._ZlsR6ScreenSt2tm
    screen.o(.ARM.exidx) refers to screen.o(i._ZlsR6ScreenRKh) for i._ZlsR6ScreenRKh
    screen.o(.ARM.exidx) refers to screen.o(i._ZlsR6ScreenRKt) for i._ZlsR6ScreenRKt
    screen.o(.ARM.exidx) refers to screen.o(i._ZlsR6ScreenRKj) for i._ZlsR6ScreenRKj
    screen.o(.ARM.exidx) refers to screen.o(i._ZlsR6ScreenRKf) for i._ZlsR6ScreenRKf
    screen.o(.ARM.exidx) refers to screen.o(i._ZN6Screen8delete_pEPc) for i._ZN6Screen8delete_pEPc
    screen.o(.ARM.exidx) refers to screen.o(i._Z10Screen_outv) for i._Z10Screen_outv
    screen.o(.ARM.exidx) refers to screen.o(i.__sti___10_Screen_cpp_scr) for i.__sti___10_Screen_cpp_scr
    screen.o(.data) refers to screen.o(i._Z5pointv) for point()
    screen.o(.data) refers to screen.o(i._Z5num_0v) for num_0()
    screen.o(.data) refers to screen.o(i._Z5num_1v) for num_1()
    screen.o(.data) refers to screen.o(i._Z5num_2v) for num_2()
    screen.o(.data) refers to screen.o(i._Z5num_3v) for num_3()
    screen.o(.data) refers to screen.o(i._Z5num_4v) for num_4()
    screen.o(.data) refers to screen.o(i._Z5num_5v) for num_5()
    screen.o(.data) refers to screen.o(i._Z5num_6v) for num_6()
    screen.o(.data) refers to screen.o(i._Z5num_7v) for num_7()
    screen.o(.data) refers to screen.o(i._Z5num_8v) for num_8()
    screen.o(.data) refers to screen.o(i._Z5num_9v) for num_9()
    screen.o(.data) refers to screen.o(i._Z8letter_Av) for letter_A()
    screen.o(.data) refers to screen.o(i._Z8letter_Cv) for letter_C()
    screen.o(.data) refers to screen.o(i._Z8letter_Ev) for letter_E()
    screen.o(.data) refers to screen.o(i._Z8letter_Lv) for letter_L()
    screen.o(.data) refers to screen.o(i._Z8letter_Ov) for letter_O()
    screen.o(.data) refers to screen.o(i._Z8letter_av) for letter_a()
    screen.o(.data) refers to screen.o(i._Z8letter_bv) for letter_b()
    screen.o(.data) refers to screen.o(i._Z8letter_cv) for letter_c()
    screen.o(.data) refers to screen.o(i._Z8letter_dv) for letter_d()
    screen.o(.data) refers to screen.o(i._Z8letter_fv) for letter_f()
    screen.o(.data) refers to screen.o(i._Z8letter_hv) for letter_h()
    screen.o(.data) refers to screen.o(i._Z8letter_nv) for letter_n()
    screen.o(.data) refers to screen.o(i._Z8letter_ov) for letter_o()
    screen.o(.data) refers to screen.o(i._Z8letter_rv) for letter_r()
    screen.o(.data) refers to screen.o(i._Z8letter_tv) for letter_t()
    screen.o(.init_array) refers to screen.o(i.__sti___10_Screen_cpp_scr) for __sti___10_Screen_cpp_scr
    screen.o(.init_array) refers to init_aeabi.o(.text) for __cpp_initialize__aeabi_
    tsl_user.o(i._Z13TSL_user_Initv) refers to tsl_object.o(i._Z17TSL_obj_GroupInitP17TSL_ObjectGroup_T) for TSL_obj_GroupInit(TSL_ObjectGroup_T*)
    tsl_user.o(i._Z13TSL_user_Initv) refers to tsl.o(i._Z8TSL_InitPK10TSL_Bank_T) for TSL_Init(const TSL_Bank_T*)
    tsl_user.o(i._Z13TSL_user_Initv) refers to tsl_user.o(i._Z22TSL_user_SetThresholdsv) for TSL_user_SetThresholds()
    tsl_user.o(i._Z13TSL_user_Initv) refers to tsl_user.o(.data) for .data
    tsl_user.o(i._Z13TSL_user_Initv) refers to tsl_user.o(.constdata) for .constdata
    tsl_user.o(i._Z15TSL_user_Actionv) refers to tsl_acq_stm32f0xx.o(i._Z18TSL_acq_BankConfigh) for TSL_acq_BankConfig(unsigned char)
    tsl_user.o(i._Z15TSL_user_Actionv) refers to tsl_acq_stm32f0xx.o(i._Z20TSL_acq_BankStartAcqv) for TSL_acq_BankStartAcq()
    tsl_user.o(i._Z15TSL_user_Actionv) refers to tsl_acq.o(i._Z21TSL_acq_BankGetResulthPFtttEPFssE) for TSL_acq_BankGetResult(unsigned char, unsigned short(*)(unsigned short, unsigned short), short(*)(short))
    tsl_user.o(i._Z15TSL_user_Actionv) refers to tsl_object.o(i._Z20TSL_obj_GroupProcessP17TSL_ObjectGroup_T) for TSL_obj_GroupProcess(TSL_ObjectGroup_T*)
    tsl_user.o(i._Z15TSL_user_Actionv) refers to tsl_dxs.o(i._Z16TSL_dxs_FirstObjPK17TSL_ObjectGroup_T) for TSL_dxs_FirstObj(const TSL_ObjectGroup_T*)
    tsl_user.o(i._Z15TSL_user_Actionv) refers to tsl_time.o(i._Z21TSL_tim_CheckDelay_mstPVt) for TSL_tim_CheckDelay_ms(unsigned short, volatile unsigned short*)
    tsl_user.o(i._Z15TSL_user_Actionv) refers to tsl_ecs.o(i._Z15TSL_ecs_ProcessP17TSL_ObjectGroup_T) for TSL_ecs_Process(TSL_ObjectGroup_T*)
    tsl_user.o(i._Z15TSL_user_Actionv) refers to tsl_user.o(.data) for .data
    tsl_user.o(i._Z22TSL_user_SetThresholdsv) refers to tsl_user.o(.bss) for .bss
    tsl_user.o(i._Z25MyTKeys_ErrorStateProcessv) refers to tsl_touchkey.o(i._Z32TSL_tkey_CalibrationStateProcessv) for TSL_tkey_CalibrationStateProcess()
    tsl_user.o(i._Z25MyTKeys_ErrorStateProcessv) refers to main_1.o(.data) for PTR_TO_MAIN
    tsl_user.o(i._Z27MyLinRots_ErrorStateProcessv) refers to main_1.o(.data) for PTR_TO_MAIN
    tsl_user.o(.ARM.exidx) refers to tsl_user.o(i._Z22TSL_user_SetThresholdsv) for i._Z22TSL_user_SetThresholdsv
    tsl_user.o(.ARM.exidx) refers to tsl_user.o(i._Z13TSL_user_Initv) for i._Z13TSL_user_Initv
    tsl_user.o(.ARM.exidx) refers to tsl_user.o(i._Z15TSL_user_Actionv) for i._Z15TSL_user_Actionv
    tsl_user.o(.ARM.exidx) refers to tsl_user.o(i._Z27MyLinRots_ErrorStateProcessv) for i._Z27MyLinRots_ErrorStateProcessv
    tsl_user.o(.ARM.exidx) refers to tsl_user.o(i._Z25MyLinRots_OffStateProcessv) for i._Z25MyLinRots_OffStateProcessv
    tsl_user.o(.ARM.exidx) refers to tsl_user.o(i._Z23MyTKeys_OffStateProcessv) for i._Z23MyTKeys_OffStateProcessv
    tsl_user.o(.ARM.exidx) refers to tsl_user.o(i._Z25MyTKeys_ErrorStateProcessv) for i._Z25MyTKeys_ErrorStateProcessv
    tsl_user.o(.constdata) refers to tsl_user.o(.constdata) for MyChannels_Src
    tsl_user.o(.constdata) refers to tsl_user.o(.constdata) for MyChannels_Dest
    tsl_user.o(.constdata) refers to tsl_user.o(.bss) for MyChannels_Data
    tsl_user.o(.constdata) refers to tsl_touchkey.o(i._Z32TSL_tkey_CalibrationStateProcessv) for TSL_tkey_CalibrationStateProcess()
    tsl_user.o(.constdata) refers to tsl_touchkey.o(i._Z35TSL_tkey_DebCalibrationStateProcessv) for TSL_tkey_DebCalibrationStateProcess()
    tsl_user.o(.constdata) refers to tsl_touchkey.o(i._Z28TSL_tkey_ReleaseStateProcessv) for TSL_tkey_ReleaseStateProcess()
    tsl_user.o(.constdata) refers to tsl_touchkey.o(i._Z35TSL_tkey_DebReleaseProxStateProcessv) for TSL_tkey_DebReleaseProxStateProcess()
    tsl_user.o(.constdata) refers to tsl_touchkey.o(i._Z37TSL_tkey_DebReleaseDetectStateProcessv) for TSL_tkey_DebReleaseDetectStateProcess()
    tsl_user.o(.constdata) refers to tsl_touchkey.o(i._Z36TSL_tkey_DebReleaseTouchStateProcessv) for TSL_tkey_DebReleaseTouchStateProcess()
    tsl_user.o(.constdata) refers to tsl_touchkey.o(i._Z25TSL_tkey_ProxStateProcessv) for TSL_tkey_ProxStateProcess()
    tsl_user.o(.constdata) refers to tsl_touchkey.o(i._Z28TSL_tkey_DebProxStateProcessv) for TSL_tkey_DebProxStateProcess()
    tsl_user.o(.constdata) refers to tsl_touchkey.o(i._Z34TSL_tkey_DebProxDetectStateProcessv) for TSL_tkey_DebProxDetectStateProcess()
    tsl_user.o(.constdata) refers to tsl_touchkey.o(i._Z33TSL_tkey_DebProxTouchStateProcessv) for TSL_tkey_DebProxTouchStateProcess()
    tsl_user.o(.constdata) refers to tsl_touchkey.o(i._Z27TSL_tkey_DetectStateProcessv) for TSL_tkey_DetectStateProcess()
    tsl_user.o(.constdata) refers to tsl_touchkey.o(i._Z30TSL_tkey_DebDetectStateProcessv) for TSL_tkey_DebDetectStateProcess()
    tsl_user.o(.constdata) refers to tsl_touchkey.o(i._Z26TSL_tkey_TouchStateProcessv) for TSL_tkey_TouchStateProcess()
    tsl_user.o(.constdata) refers to tsl_user.o(i._Z25MyTKeys_ErrorStateProcessv) for MyTKeys_ErrorStateProcess()
    tsl_user.o(.constdata) refers to tsl_touchkey.o(i._Z29TSL_tkey_DebErrorStateProcessv) for TSL_tkey_DebErrorStateProcess()
    tsl_user.o(.constdata) refers to tsl_user.o(i._Z23MyTKeys_OffStateProcessv) for MyTKeys_OffStateProcess()
    tsl_user.o(.constdata) refers to tsl_touchkey.o(i._Z13TSL_tkey_Initv) for TSL_tkey_Init()
    tsl_user.o(.constdata) refers to tsl_touchkey.o(i._Z16TSL_tkey_Processv) for TSL_tkey_Process()
    tsl_user.o(.constdata) refers to tsl_user.o(.bss) for MyTKeys_Data
    tsl_user.o(.constdata) refers to tsl_user.o(.bss) for MyTKeys_Param
    tsl_user.o(.constdata) refers to tsl_user.o(.bss) for MyChannels_Data
    tsl_user.o(.constdata) refers to tsl_user.o(.constdata) for MyTKeys_StateMachine
    tsl_user.o(.constdata) refers to tsl_user.o(.constdata) for MyTKeys_Methods
    tsl_user.o(.constdata) refers to tsl_user.o(.constdata) for MyTKeys
    tsl_user.o(.data) refers to tsl_user.o(.constdata) for MyObjects
    tsl_user.o(.data) refers to tsl_user.o(.constdata) for MyTKeys_StateMachine
    tsl_user.o(.data) refers to tsl_user.o(.constdata) for MyTKeys_Methods
    keyboard.o(i._ZN8keyboard9get_stateE11SENSOR_NAME12SENSOR_STATE) refers to tsl_time.o(i._Z21TSL_tim_CheckDelay_mstPVt) for TSL_tim_CheckDelay_ms(unsigned short, volatile unsigned short*)
    keyboard.o(i._ZN8keyboard9get_stateE11SENSOR_NAME12SENSOR_STATE) refers to tsl_user.o(.bss) for MyTKeys_Data
    keyboard.o(.ARM.exidx) refers to keyboard.o(i._ZN8keyboard15any_key_pressedEv) for i._ZN8keyboard15any_key_pressedEv
    keyboard.o(.ARM.exidx) refers to keyboard.o(i._ZN8keyboard9get_stateE11SENSOR_NAME12SENSOR_STATE) for i._ZN8keyboard9get_stateE11SENSOR_NAME12SENSOR_STATE
    stm32f0xx_hal_msp.o(i.HAL_ADC_MspDeInit) refers to stm32f0xx_hal_gpio.o(i.HAL_GPIO_DeInit) for HAL_GPIO_DeInit
    stm32f0xx_hal_msp.o(i.HAL_ADC_MspDeInit) refers to stm32f0xx_hal_dma.o(i.HAL_DMA_DeInit) for HAL_DMA_DeInit
    stm32f0xx_hal_msp.o(i.HAL_ADC_MspInit) refers to stm32f0xx_hal_gpio.o(i.HAL_GPIO_Init) for HAL_GPIO_Init
    stm32f0xx_hal_msp.o(i.HAL_ADC_MspInit) refers to stm32f0xx_hal_dma.o(i.HAL_DMA_Init) for HAL_DMA_Init
    stm32f0xx_hal_msp.o(i.HAL_ADC_MspInit) refers to main_1.o(i._Error_Handler) for _Error_Handler
    stm32f0xx_hal_msp.o(i.HAL_ADC_MspInit) refers to main_1.o(.bss) for hdma_adc
    stm32f0xx_hal_msp.o(i.HAL_MspInit) refers to stm32f0xx_hal_cortex.o(i.HAL_NVIC_SetPriority) for HAL_NVIC_SetPriority
    stm32f0xx_hal_msp.o(i.HAL_TIM_Base_MspDeInit) refers to stm32f0xx_hal_cortex.o(i.HAL_NVIC_DisableIRQ) for HAL_NVIC_DisableIRQ
    stm32f0xx_hal_msp.o(i.HAL_TIM_Base_MspInit) refers to stm32f0xx_hal_cortex.o(i.HAL_NVIC_SetPriority) for HAL_NVIC_SetPriority
    stm32f0xx_hal_msp.o(i.HAL_TIM_Base_MspInit) refers to stm32f0xx_hal_cortex.o(i.HAL_NVIC_EnableIRQ) for HAL_NVIC_EnableIRQ
    stm32f0xx_hal_msp.o(i.HAL_TSC_MspDeInit) refers to stm32f0xx_hal_gpio.o(i.HAL_GPIO_DeInit) for HAL_GPIO_DeInit
    stm32f0xx_hal_msp.o(i.HAL_TSC_MspDeInit) refers to stm32f0xx_hal_cortex.o(i.HAL_NVIC_DisableIRQ) for HAL_NVIC_DisableIRQ
    stm32f0xx_hal_msp.o(i.HAL_TSC_MspInit) refers to stm32f0xx_hal_gpio.o(i.HAL_GPIO_Init) for HAL_GPIO_Init
    stm32f0xx_hal_msp.o(.ARM.exidx) refers to stm32f0xx_hal_msp.o(i.HAL_MspInit) for i.HAL_MspInit
    stm32f0xx_hal_msp.o(.ARM.exidx) refers to stm32f0xx_hal_msp.o(i.HAL_ADC_MspInit) for i.HAL_ADC_MspInit
    stm32f0xx_hal_msp.o(.ARM.exidx) refers to stm32f0xx_hal_msp.o(i.HAL_ADC_MspDeInit) for i.HAL_ADC_MspDeInit
    stm32f0xx_hal_msp.o(.ARM.exidx) refers to stm32f0xx_hal_msp.o(i.HAL_TIM_Base_MspInit) for i.HAL_TIM_Base_MspInit
    stm32f0xx_hal_msp.o(.ARM.exidx) refers to stm32f0xx_hal_msp.o(i.HAL_TIM_Base_MspDeInit) for i.HAL_TIM_Base_MspDeInit
    stm32f0xx_hal_msp.o(.ARM.exidx) refers to stm32f0xx_hal_msp.o(i.HAL_TSC_MspInit) for i.HAL_TSC_MspInit
    stm32f0xx_hal_msp.o(.ARM.exidx) refers to stm32f0xx_hal_msp.o(i.HAL_TSC_MspDeInit) for i.HAL_TSC_MspDeInit
    stm32f0xx_it.o(i.DMA1_Channel1_IRQHandler) refers to stm32f0xx_hal_tim.o(i.HAL_TIM_Base_Stop_IT) for HAL_TIM_Base_Stop_IT
    stm32f0xx_it.o(i.DMA1_Channel1_IRQHandler) refers to main_state_machine.o(i._ZN22Voltage_Relay_Executor4pushEP14OPERATION_BASE) for Voltage_Relay_Executor::push(OPERATION_BASE*)
    stm32f0xx_it.o(i.DMA1_Channel1_IRQHandler) refers to stm32f0xx_hal_adc.o(i.HAL_ADC_Stop_DMA) for HAL_ADC_Stop_DMA
    stm32f0xx_it.o(i.DMA1_Channel1_IRQHandler) refers to stm32f0xx_hal_dma.o(i.HAL_DMA_IRQHandler) for HAL_DMA_IRQHandler
    stm32f0xx_it.o(i.DMA1_Channel1_IRQHandler) refers to main_1.o(.bss) for htim1
    stm32f0xx_it.o(i.DMA1_Channel1_IRQHandler) refers to alarms_events.o(.data) for Volt_Calculation
    stm32f0xx_it.o(i.DMA1_Channel1_IRQHandler) refers to main_state_machine.o(.data) for Main_State_Machine
    stm32f0xx_it.o(i.DMA1_Channel1_IRQHandler) refers to main_1.o(.bss) for hdma_adc
    stm32f0xx_it.o(i.HAL_TIM_PeriodElapsedCallback) refers to screen.o(i._Z10Screen_outv) for Screen_out()
    stm32f0xx_it.o(i.HAL_TIM_PeriodElapsedCallback) refers to menu.o(i._Z7do_Menuv) for do_Menu()
    stm32f0xx_it.o(i.SysTick_Handler) refers to tsl_time.o(i._Z17TSL_tim_ProcessITv) for TSL_tim_ProcessIT()
    stm32f0xx_it.o(i.SysTick_Handler) refers to stm32f0xx_hal.o(i.HAL_IncTick) for HAL_IncTick
    stm32f0xx_it.o(i.SysTick_Handler) refers to stm32f0xx_hal_cortex.o(i.HAL_SYSTICK_IRQHandler) for HAL_SYSTICK_IRQHandler
    stm32f0xx_it.o(i.SysTick_Handler) refers to tsl_user.o(.data) for Gv_SystickCounter
    stm32f0xx_it.o(i.TIM1_BRK_UP_TRG_COM_IRQHandler) refers to voltage_relay.o(i._ZN13voltage_relay11get_arr_ptrEv) for voltage_relay::get_arr_ptr()
    stm32f0xx_it.o(i.TIM1_BRK_UP_TRG_COM_IRQHandler) refers to stm32f0xx_hal_adc.o(i.HAL_ADC_Start_DMA) for HAL_ADC_Start_DMA
    stm32f0xx_it.o(i.TIM1_BRK_UP_TRG_COM_IRQHandler) refers to stm32f0xx_hal_adc.o(i.HAL_ADC_Stop) for HAL_ADC_Stop
    stm32f0xx_it.o(i.TIM1_BRK_UP_TRG_COM_IRQHandler) refers to stm32f0xx_hal_tim.o(i.HAL_TIM_IRQHandler) for HAL_TIM_IRQHandler
    stm32f0xx_it.o(i.TIM1_BRK_UP_TRG_COM_IRQHandler) refers to voltage_relay.o(.bss) for VOLT_RELAY
    stm32f0xx_it.o(i.TIM1_BRK_UP_TRG_COM_IRQHandler) refers to main_1.o(.bss) for hadc
    stm32f0xx_it.o(i.TIM6_DAC_IRQHandler) refers to stm32f0xx_hal_tim.o(i.HAL_TIM_IRQHandler) for HAL_TIM_IRQHandler
    stm32f0xx_it.o(i.TIM6_DAC_IRQHandler) refers to main_1.o(.bss) for htim6
    stm32f0xx_it.o(i.TSC_IRQHandler) refers to stm32f0xx_hal_tsc.o(i.HAL_TSC_IRQHandler) for HAL_TSC_IRQHandler
    stm32f0xx_it.o(i.TSC_IRQHandler) refers to main_1.o(.bss) for htsc
    stm32f0xx_it.o(i.TSC_IRQHandler) refers to tsl_user.o(.data) for Gv_EOA
    stm32f0xx_it.o(.ARM.exidx) refers to stm32f0xx_it.o(i.NMI_Handler) for i.NMI_Handler
    stm32f0xx_it.o(.ARM.exidx) refers to stm32f0xx_it.o(i.HardFault_Handler) for i.HardFault_Handler
    stm32f0xx_it.o(.ARM.exidx) refers to stm32f0xx_it.o(i.SVC_Handler) for i.SVC_Handler
    stm32f0xx_it.o(.ARM.exidx) refers to stm32f0xx_it.o(i.PendSV_Handler) for i.PendSV_Handler
    stm32f0xx_it.o(.ARM.exidx) refers to stm32f0xx_it.o(i.SysTick_Handler) for i.SysTick_Handler
    stm32f0xx_it.o(.ARM.exidx) refers to stm32f0xx_it.o(i.TSC_IRQHandler) for i.TSC_IRQHandler
    stm32f0xx_it.o(.ARM.exidx) refers to stm32f0xx_it.o(i.DMA1_Channel1_IRQHandler) for i.DMA1_Channel1_IRQHandler
    stm32f0xx_it.o(.ARM.exidx) refers to stm32f0xx_it.o(i.TIM1_BRK_UP_TRG_COM_IRQHandler) for i.TIM1_BRK_UP_TRG_COM_IRQHandler
    stm32f0xx_it.o(.ARM.exidx) refers to stm32f0xx_it.o(i.TIM6_DAC_IRQHandler) for i.TIM6_DAC_IRQHandler
    stm32f0xx_it.o(.ARM.exidx) refers to stm32f0xx_it.o(i.HAL_TIM_PeriodElapsedCallback) for i.HAL_TIM_PeriodElapsedCallback
    eeprom.o(i._Z15EE_ReadVariabletPt) refers to eeprom.o(i._ZN28_INTERNAL_8_eeprom_c_DataVar16EE_FindValidPageEh) for [local to eeprom_c]::EE_FindValidPage(unsigned char)
    eeprom.o(i._Z16EE_WriteVariablett) refers to eeprom.o(i._ZN28_INTERNAL_8_eeprom_c_DataVar30EE_VerifyPageFullWriteVariableEtt) for [local to eeprom_c]::EE_VerifyPageFullWriteVariable(unsigned short, unsigned short)
    eeprom.o(i._Z16EE_WriteVariablett) refers to eeprom.o(i._ZN28_INTERNAL_8_eeprom_c_DataVar15EE_PageTransferEtt) for [local to eeprom_c]::EE_PageTransfer(unsigned short, unsigned short)
    eeprom.o(i._Z7EE_Initv) refers to eeprom.o(i._ZN28_INTERNAL_8_eeprom_c_DataVar10Erase_PageEj) for [local to eeprom_c]::Erase_Page(unsigned)
    eeprom.o(i._Z7EE_Initv) refers to stm32f0xx_hal_flash.o(i.HAL_FLASH_Unlock) for HAL_FLASH_Unlock
    eeprom.o(i._Z7EE_Initv) refers to eeprom.o(i._ZN28_INTERNAL_8_eeprom_c_DataVar9EE_FormatEv) for [local to eeprom_c]::EE_Format()
    eeprom.o(i._Z7EE_Initv) refers to stm32f0xx_hal_flash.o(i.HAL_FLASH_Program) for HAL_FLASH_Program
    eeprom.o(i._Z7EE_Initv) refers to stm32f0xx_hal_flash.o(i.HAL_FLASH_Lock) for HAL_FLASH_Lock
    eeprom.o(i._Z7EE_Initv) refers to eeprom.o(i._Z15EE_ReadVariabletPt) for EE_ReadVariable(unsigned short, unsigned short*)
    eeprom.o(i._Z7EE_Initv) refers to eeprom.o(i._ZN28_INTERNAL_8_eeprom_c_DataVar30EE_VerifyPageFullWriteVariableEtt) for [local to eeprom_c]::EE_VerifyPageFullWriteVariable(unsigned short, unsigned short)
    eeprom.o(i._Z7EE_Initv) refers to eeprom.o(i._ZN28_INTERNAL_8_eeprom_c_DataVar13page_is_blankEj) for [local to eeprom_c]::page_is_blank(unsigned)
    eeprom.o(i._Z7EE_Initv) refers to eeprom.o(.data) for .data
    eeprom.o(i._ZN28_INTERNAL_8_eeprom_c_DataVar10Erase_PageEj) refers to stm32f0xx_hal_flash.o(i.HAL_FLASH_Unlock) for HAL_FLASH_Unlock
    eeprom.o(i._ZN28_INTERNAL_8_eeprom_c_DataVar10Erase_PageEj) refers to stm32f0xx_hal_flash_ex.o(i.HAL_FLASHEx_Erase) for HAL_FLASHEx_Erase
    eeprom.o(i._ZN28_INTERNAL_8_eeprom_c_DataVar10Erase_PageEj) refers to stm32f0xx_hal_flash.o(i.HAL_FLASH_Lock) for HAL_FLASH_Lock
    eeprom.o(i._ZN28_INTERNAL_8_eeprom_c_DataVar10Erase_PageEj) refers to eeprom.o(.data) for .data
    eeprom.o(i._ZN28_INTERNAL_8_eeprom_c_DataVar15EE_PageTransferEtt) refers to eeprom.o(i._ZN28_INTERNAL_8_eeprom_c_DataVar16EE_FindValidPageEh) for [local to eeprom_c]::EE_FindValidPage(unsigned char)
    eeprom.o(i._ZN28_INTERNAL_8_eeprom_c_DataVar15EE_PageTransferEtt) refers to stm32f0xx_hal_flash.o(i.HAL_FLASH_Unlock) for HAL_FLASH_Unlock
    eeprom.o(i._ZN28_INTERNAL_8_eeprom_c_DataVar15EE_PageTransferEtt) refers to stm32f0xx_hal_flash.o(i.HAL_FLASH_Program) for HAL_FLASH_Program
    eeprom.o(i._ZN28_INTERNAL_8_eeprom_c_DataVar15EE_PageTransferEtt) refers to stm32f0xx_hal_flash.o(i.HAL_FLASH_Lock) for HAL_FLASH_Lock
    eeprom.o(i._ZN28_INTERNAL_8_eeprom_c_DataVar15EE_PageTransferEtt) refers to eeprom.o(i._ZN28_INTERNAL_8_eeprom_c_DataVar30EE_VerifyPageFullWriteVariableEtt) for [local to eeprom_c]::EE_VerifyPageFullWriteVariable(unsigned short, unsigned short)
    eeprom.o(i._ZN28_INTERNAL_8_eeprom_c_DataVar15EE_PageTransferEtt) refers to eeprom.o(i._Z15EE_ReadVariabletPt) for EE_ReadVariable(unsigned short, unsigned short*)
    eeprom.o(i._ZN28_INTERNAL_8_eeprom_c_DataVar15EE_PageTransferEtt) refers to eeprom_user.o(i._Z16Renew_EEpromDataP10Flash_Data) for Renew_EEpromData(Flash_Data*)
    eeprom.o(i._ZN28_INTERNAL_8_eeprom_c_DataVar15EE_PageTransferEtt) refers to eeprom.o(i._ZN28_INTERNAL_8_eeprom_c_DataVar10Erase_PageEj) for [local to eeprom_c]::Erase_Page(unsigned)
    eeprom.o(i._ZN28_INTERNAL_8_eeprom_c_DataVar15EE_PageTransferEtt) refers to eeprom.o(.data) for .data
    eeprom.o(i._ZN28_INTERNAL_8_eeprom_c_DataVar15EE_PageTransferEtt) refers to eeprom_user.o(.bss) for EEPROM_DATA
    eeprom.o(i._ZN28_INTERNAL_8_eeprom_c_DataVar30EE_VerifyPageFullWriteVariableEtt) refers to eeprom.o(i._ZN28_INTERNAL_8_eeprom_c_DataVar16EE_FindValidPageEh) for [local to eeprom_c]::EE_FindValidPage(unsigned char)
    eeprom.o(i._ZN28_INTERNAL_8_eeprom_c_DataVar30EE_VerifyPageFullWriteVariableEtt) refers to stm32f0xx_hal_flash.o(i.HAL_FLASH_Unlock) for HAL_FLASH_Unlock
    eeprom.o(i._ZN28_INTERNAL_8_eeprom_c_DataVar30EE_VerifyPageFullWriteVariableEtt) refers to stm32f0xx_hal_flash.o(i.HAL_FLASH_Lock) for HAL_FLASH_Lock
    eeprom.o(i._ZN28_INTERNAL_8_eeprom_c_DataVar30EE_VerifyPageFullWriteVariableEtt) refers to stm32f0xx_hal_flash.o(i.HAL_FLASH_Program) for HAL_FLASH_Program
    eeprom.o(i._ZN28_INTERNAL_8_eeprom_c_DataVar9EE_FormatEv) refers to eeprom.o(i._ZN28_INTERNAL_8_eeprom_c_DataVar10Erase_PageEj) for [local to eeprom_c]::Erase_Page(unsigned)
    eeprom.o(i._ZN28_INTERNAL_8_eeprom_c_DataVar9EE_FormatEv) refers to stm32f0xx_hal_flash.o(i.HAL_FLASH_Unlock) for HAL_FLASH_Unlock
    eeprom.o(i._ZN28_INTERNAL_8_eeprom_c_DataVar9EE_FormatEv) refers to stm32f0xx_hal_flash.o(i.HAL_FLASH_Program) for HAL_FLASH_Program
    eeprom.o(i._ZN28_INTERNAL_8_eeprom_c_DataVar9EE_FormatEv) refers to stm32f0xx_hal_flash.o(i.HAL_FLASH_Lock) for HAL_FLASH_Lock
    eeprom.o(i.__sti___8_eeprom_c_DataVar) refers to new.o(i._Znwj) for operator new(unsigned)
    eeprom.o(i.__sti___8_eeprom_c_DataVar) refers to eeprom.o(.data) for .data
    eeprom.o(.ARM.exidx) refers to eeprom.o(i._ZN28_INTERNAL_8_eeprom_c_DataVar9EE_FormatEv) for i._ZN28_INTERNAL_8_eeprom_c_DataVar9EE_FormatEv
    eeprom.o(.ARM.exidx) refers to eeprom.o(i._ZN28_INTERNAL_8_eeprom_c_DataVar16EE_FindValidPageEh) for i._ZN28_INTERNAL_8_eeprom_c_DataVar16EE_FindValidPageEh
    eeprom.o(.ARM.exidx) refers to eeprom.o(i._ZN28_INTERNAL_8_eeprom_c_DataVar30EE_VerifyPageFullWriteVariableEtt) for i._ZN28_INTERNAL_8_eeprom_c_DataVar30EE_VerifyPageFullWriteVariableEtt
    eeprom.o(.ARM.exidx) refers to eeprom.o(i._Z15EE_ReadVariabletPt) for i._Z15EE_ReadVariabletPt
    eeprom.o(.ARM.exidx) refers to eeprom.o(i._Z7EE_Initv) for i._Z7EE_Initv
    eeprom.o(.ARM.exidx) refers to eeprom.o(i._ZN28_INTERNAL_8_eeprom_c_DataVar15EE_PageTransferEtt) for i._ZN28_INTERNAL_8_eeprom_c_DataVar15EE_PageTransferEtt
    eeprom.o(.ARM.exidx) refers to eeprom.o(i._Z16EE_WriteVariablett) for i._Z16EE_WriteVariablett
    eeprom.o(.ARM.exidx) refers to eeprom.o(i.__sti___8_eeprom_c_DataVar) for i.__sti___8_eeprom_c_DataVar
    eeprom.o(.ARM.exidx) refers to eeprom.o(i._ZN28_INTERNAL_8_eeprom_c_DataVar10Erase_PageEj) for i._ZN28_INTERNAL_8_eeprom_c_DataVar10Erase_PageEj
    eeprom.o(.ARM.exidx) refers to eeprom.o(i._ZN28_INTERNAL_8_eeprom_c_DataVar13page_is_blankEj) for i._ZN28_INTERNAL_8_eeprom_c_DataVar13page_is_blankEj
    eeprom.o(.init_array) refers to eeprom.o(i.__sti___8_eeprom_c_DataVar) for __sti___8_eeprom_c_DataVar
    eeprom.o(.init_array) refers to init_aeabi.o(.text) for __cpp_initialize__aeabi_
    eeprom_user.o(i._Z16Renew_EEpromDataP10Flash_Data) refers to eeprom_user.o(i._ZN10Flash_Data9find_dataEv) for Flash_Data::find_data()
    eeprom_user.o(i._Z16Renew_EEpromDataP10Flash_Data) refers to observer.o(i._ZN7Subject6notifyEv) for Subject::notify()
    eeprom_user.o(i._Z16Renew_EEpromDataP10Flash_Data) refers to eeprom_user.o(.data) for .data
    eeprom_user.o(i._Z17EEprom_Write_DataP10Flash_Datat) refers to eeprom_user.o(i._ZN10Flash_Data10write_dataEt) for Flash_Data::write_data(unsigned short)
    eeprom_user.o(i._Z17EEprom_Write_DataP10Flash_Datat) refers to main_state_machine.o(i._ZN22Voltage_Relay_Executor3popEv) for Voltage_Relay_Executor::pop()
    eeprom_user.o(i._Z17EEprom_Write_DataP10Flash_Datat) refers to alarms_events.o(i._ZN5EventaSERKS_) for Event::operator =(const Event&)
    eeprom_user.o(i._Z17EEprom_Write_DataP10Flash_Datat) refers to main_state_machine.o(i._ZN22Voltage_Relay_Executor4pushEP14OPERATION_BASE) for Voltage_Relay_Executor::push(OPERATION_BASE*)
    eeprom_user.o(i._Z17EEprom_Write_DataP10Flash_Datat) refers to main_state_machine.o(.data) for Main_State_Machine
    eeprom_user.o(i._Z17EEprom_Write_DataP10Flash_Datat) refers to menu.o(.data) for Write_Error
    eeprom_user.o(i._Z17EEprom_Write_DataP10Flash_Datat) refers to alarms_events.o(.constdata__ZTV5Event) for vtable for Event
    eeprom_user.o(i._Z17EEprom_Write_DataP10Flash_Datat) refers to alarms_events.o(.data) for Some_Event
    eeprom_user.o(i._Z18Write_Default_DataP10Flash_Data) refers to eeprom_user.o(i._Z16Renew_EEpromDataP10Flash_Data) for Renew_EEpromData(Flash_Data*)
    eeprom_user.o(i._Z18Write_Default_DataP10Flash_Data) refers to eeprom_user.o(i._Z9EE_WritesP10Flash_Datat) for EE_Writes(Flash_Data*, unsigned short)
    eeprom_user.o(i._Z18Write_Default_DataP10Flash_Data) refers to main_1.o(i._Error_Handler) for _Error_Handler
    eeprom_user.o(i._Z9EE_WritesP10Flash_Datat) refers to stm32f0xx_hal_flash.o(i.HAL_FLASH_Unlock) for HAL_FLASH_Unlock
    eeprom_user.o(i._Z9EE_WritesP10Flash_Datat) refers to stm32f0xx_hal_flash.o(i.HAL_FLASH_Program) for HAL_FLASH_Program
    eeprom_user.o(i._Z9EE_WritesP10Flash_Datat) refers to stm32f0xx_hal_flash.o(i.HAL_FLASH_Lock) for HAL_FLASH_Lock
    eeprom_user.o(i._ZN10Flash_Data10write_dataEt) refers to eeprom_user.o(i._ZN10Flash_Data10check_dataEt) for Flash_Data::check_data(unsigned short)
    eeprom_user.o(i._ZN10Flash_Data10write_dataEt) refers to eeprom.o(i._Z16EE_WriteVariablett) for EE_WriteVariable(unsigned short, unsigned short)
    eeprom_user.o(i._ZN10Flash_Data10write_dataEt) refers to eeprom_user.o(i._ZN10Flash_Data9find_dataEv) for Flash_Data::find_data()
    eeprom_user.o(i._ZN10Flash_Data10write_dataEt) refers to observer.o(i._ZN7Subject6notifyEv) for Subject::notify()
    eeprom_user.o(i._ZN10Flash_Data10write_dataEt) refers to eeprom_user.o(.data) for .data
    eeprom_user.o(i._ZN10Flash_Data9find_dataEv) refers to eeprom.o(i._Z15EE_ReadVariabletPt) for EE_ReadVariable(unsigned short, unsigned short*)
    eeprom_user.o(i.__sti___15_eeprom_user_cpp_93c2cf2d) refers to new.o(i._Znwj) for operator new(unsigned)
    eeprom_user.o(i.__sti___15_eeprom_user_cpp_93c2cf2d) refers to array_new.o(i._Znaj) for operator new[] (unsigned)
    eeprom_user.o(i.__sti___15_eeprom_user_cpp_93c2cf2d) refers to eeprom_user.o(i._ZN10Flash_DataC1Etttt) for Flash_Data::Flash_Data(unsigned short, unsigned short, unsigned short, unsigned short)
    eeprom_user.o(i.__sti___15_eeprom_user_cpp_93c2cf2d) refers to eeprom_user.o(.data) for .data
    eeprom_user.o(i.__sti___15_eeprom_user_cpp_93c2cf2d) refers to eeprom_user.o(.bss) for .bss
    eeprom_user.o(.ARM.exidx) refers to eeprom_user.o(i._ZN10Flash_Data9set_valueEt) for i._ZN10Flash_Data9set_valueEt
    eeprom_user.o(.ARM.exidx) refers to eeprom_user.o(i._Z9EE_WritesP10Flash_Datat) for i._Z9EE_WritesP10Flash_Datat
    eeprom_user.o(.ARM.exidx) refers to eeprom_user.o(i._ZN10Flash_Data9find_dataEv) for i._ZN10Flash_Data9find_dataEv
    eeprom_user.o(.ARM.exidx) refers to eeprom_user.o(i._Z16Renew_EEpromDataP10Flash_Data) for i._Z16Renew_EEpromDataP10Flash_Data
    eeprom_user.o(.ARM.exidx) refers to eeprom_user.o(i._ZN10Flash_Data10check_dataEt) for i._ZN10Flash_Data10check_dataEt
    eeprom_user.o(.ARM.exidx) refers to eeprom_user.o(i._ZN10Flash_Data10write_dataEt) for i._ZN10Flash_Data10write_dataEt
    eeprom_user.o(.ARM.exidx) refers to eeprom_user.o(i._Z17EEprom_Write_DataP10Flash_Datat) for i._Z17EEprom_Write_DataP10Flash_Datat
    eeprom_user.o(.ARM.exidx) refers to eeprom_user.o(i._ZNK10Flash_Data9get_valueEv) for i._ZNK10Flash_Data9get_valueEv
    eeprom_user.o(.ARM.exidx) refers to eeprom_user.o(i._Z18Write_Default_DataP10Flash_Data) for i._Z18Write_Default_DataP10Flash_Data
    eeprom_user.o(.ARM.exidx) refers to eeprom_user.o(i.__sti___15_eeprom_user_cpp_93c2cf2d) for i.__sti___15_eeprom_user_cpp_93c2cf2d
    eeprom_user.o(.data) refers to eeprom_user.o(i._Z17EEprom_Write_DataP10Flash_Datat) for EEprom_Write_Data(Flash_Data*, unsigned short)
    eeprom_user.o(.init_array) refers to eeprom_user.o(i.__sti___15_eeprom_user_cpp_93c2cf2d) for __sti___15_eeprom_user_cpp_93c2cf2d
    eeprom_user.o(.init_array) refers to init_aeabi.o(.text) for __cpp_initialize__aeabi_
    voltage_acq.o(i._ZN11voltage_acq14filter_voltageEv) refers to voltage_acq.o(i._ZN15low_pass_filter14execute_filterEf) for low_pass_filter::execute_filter(float)
    voltage_acq.o(i._ZN11voltage_acq9calculateEv) refers to fflti.o(.text) for __aeabi_ui2f
    voltage_acq.o(i._ZN11voltage_acq9calculateEv) refers to faddsub.o(x$fpl$fsub) for __aeabi_fsub
    voltage_acq.o(i._ZN11voltage_acq9calculateEv) refers to fmul.o(x$fpl$fmul) for __aeabi_fmul
    voltage_acq.o(i._ZN11voltage_acq9calculateEv) refers to fdiv.o(.text) for __aeabi_fdiv
    voltage_acq.o(i._ZN11voltage_acq9calculateEv) refers to faddsub.o(x$fpl$fadd) for __aeabi_fadd
    voltage_acq.o(i._ZN11voltage_acq9calculateEv) refers to sqrtf.o(i.sqrtf) for sqrtf
    voltage_acq.o(i._ZN11voltage_acq9calculateEv) refers to f2d.o(.text) for __aeabi_f2d
    voltage_acq.o(i._ZN11voltage_acq9calculateEv) refers to dmul.o(.text) for __aeabi_dmul
    voltage_acq.o(i._ZN11voltage_acq9calculateEv) refers to d2f.o(.text) for __aeabi_d2f
    voltage_acq.o(i._ZN11voltage_acq9calculateEv) refers to voltage_acq.o(i._ZN11voltage_acq14filter_voltageEv) for voltage_acq::filter_voltage()
    voltage_acq.o(i._ZN15low_pass_filter14execute_filterEf) refers to aeabi_sdiv.o(.text) for __aeabi_uidivmod
    voltage_acq.o(i._ZN15low_pass_filter14execute_filterEf) refers to arm_fir_f32.o(i.arm_fir_f32) for arm_fir_f32
    voltage_acq.o(i._ZN15low_pass_filter14execute_filterEf) refers to ffixui.o(.text) for __aeabi_f2uiz
    voltage_acq.o(i._ZNK11voltage_acq18get_screen_voltageEv) refers to help.o(i._Z12time_elapsedthh) for time_elapsed(unsigned short, unsigned char, unsigned char)
    voltage_acq.o(i._ZNK11voltage_acq18get_screen_voltageEv) refers to tsl_globals.o(.bss) for TSL_Globals
    voltage_acq.o(i._ZNK11voltage_acq18get_screen_voltageEv) refers to voltage_acq.o(.data) for .data
    voltage_acq.o(.ARM.exidx) refers to voltage_acq.o(i._ZN8move_avg14execute_filterEt) for i._ZN8move_avg14execute_filterEt
    voltage_acq.o(.ARM.exidx) refers to voltage_acq.o(i._ZN15low_pass_filter14execute_filterEf) for i._ZN15low_pass_filter14execute_filterEf
    voltage_acq.o(.ARM.exidx) refers to voltage_acq.o(i._ZN11voltage_acq14filter_voltageEv) for i._ZN11voltage_acq14filter_voltageEv
    voltage_acq.o(.ARM.exidx) refers to voltage_acq.o(i._ZN11voltage_acq9calculateEv) for i._ZN11voltage_acq9calculateEv
    voltage_acq.o(.ARM.exidx) refers to voltage_acq.o(i._ZNK11voltage_acq11get_voltageEv) for i._ZNK11voltage_acq11get_voltageEv
    voltage_acq.o(.ARM.exidx) refers to voltage_acq.o(i._ZNK11voltage_acq18get_screen_voltageEv) for i._ZNK11voltage_acq18get_screen_voltageEv
    voltage_acq.o(.ARM.exidx) refers to voltage_acq.o(i._ZN11voltage_acq7get_ptrEv) for i._ZN11voltage_acq7get_ptrEv
    voltage_relay.o(i._ZN13voltage_relay11get_arr_ptrEv) refers to voltage_acq.o(i._ZN11voltage_acq7get_ptrEv) for voltage_acq::get_ptr()
    voltage_relay.o(i._ZN13voltage_relay11get_voltageEv) refers to voltage_acq.o(i._ZNK11voltage_acq11get_voltageEv) for voltage_acq::get_voltage() const
    voltage_relay.o(i._ZN13voltage_relay11reset_alarmEv) refers to alarms_events.o(i._ZN5Alarm8set_taskERPFvvE) for Alarm::set_task(void(*&)())
    voltage_relay.o(i._ZN13voltage_relay11reset_alarmEv) refers to main_state_machine.o(i._ZN22Voltage_Relay_Executor4pushEP14OPERATION_BASE) for Voltage_Relay_Executor::push(OPERATION_BASE*)
    voltage_relay.o(i._ZN13voltage_relay11reset_alarmEv) refers to voltage_relay.o(.data) for .data
    voltage_relay.o(i._ZN13voltage_relay11reset_alarmEv) refers to alarms_events.o(.data) for Voltage_Relay_Alarm
    voltage_relay.o(i._ZN13voltage_relay14generate_alarmEv) refers to alarms_events.o(i._ZN5Alarm8set_taskERPFvvE) for Alarm::set_task(void(*&)())
    voltage_relay.o(i._ZN13voltage_relay14generate_alarmEv) refers to main_state_machine.o(i._ZN22Voltage_Relay_Executor4pushEP14OPERATION_BASE) for Voltage_Relay_Executor::push(OPERATION_BASE*)
    voltage_relay.o(i._ZN13voltage_relay14generate_alarmEv) refers to voltage_relay.o(.data) for .data
    voltage_relay.o(i._ZN13voltage_relay14generate_alarmEv) refers to alarms_events.o(.data) for Voltage_Relay_Alarm
    voltage_relay.o(i._ZN13voltage_relay16status_detectionEv) refers to voltage_acq.o(i._ZNK11voltage_acq11get_voltageEv) for voltage_acq::get_voltage() const
    voltage_relay.o(i._ZN13voltage_relay16status_detectionEv) refers to stm32f0xx_hal_dma.o(i.__ARM_common_switch8) for __ARM_common_switch8
    voltage_relay.o(i._ZN13voltage_relay16status_detectionEv) refers to help.o(i._Z17time_elapsed_uinttRKSt2tmtt) for time_elapsed_uint(unsigned short, const std::tm&, unsigned short, unsigned short)
    voltage_relay.o(i._ZN13voltage_relay16status_detectionEv) refers to voltage_relay.o(i._ZN13voltage_relay14generate_alarmEv) for voltage_relay::generate_alarm()
    voltage_relay.o(i._ZN13voltage_relay16status_detectionEv) refers to voltage_relay.o(i._ZN13voltage_relay11reset_alarmEv) for voltage_relay::reset_alarm()
    voltage_relay.o(i._ZN13voltage_relay16status_detectionEv) refers to voltage_relay.o(.data) for .data
    voltage_relay.o(i._ZN13voltage_relay16status_detectionEv) refers to help.o(.bss) for Global_Tick
    voltage_relay.o(i._ZN13voltage_relay21get_voltage_to_screenEv) refers to voltage_acq.o(i._ZNK11voltage_acq18get_screen_voltageEv) for voltage_acq::get_screen_voltage() const
    voltage_relay.o(i._ZN13voltage_relay6updateEv) refers to eeprom_user.o(i._ZNK10Flash_Data9get_valueEv) for Flash_Data::get_value() const
    voltage_relay.o(i._ZN13voltage_relay7executeEv) refers to voltage_relay.o(i._ZN13voltage_relay16status_detectionEv) for voltage_relay::status_detection()
    voltage_relay.o(i._ZN13voltage_relay9calculateEv) refers to voltage_acq.o(i._ZN11voltage_acq9calculateEv) for voltage_acq::calculate()
    voltage_relay.o(i._ZN35_INTERNAL_17_voltage_relay_cpp_vptr11Alarm_ResetEv) refers to stm32f0xx_hal_gpio.o(i.HAL_GPIO_WritePin) for HAL_GPIO_WritePin
    voltage_relay.o(i._ZN35_INTERNAL_17_voltage_relay_cpp_vptr11Alarm_ResetEv) refers to main_state_machine.o(i._ZN22Voltage_Relay_Executor3popEv) for Voltage_Relay_Executor::pop()
    voltage_relay.o(i._ZN35_INTERNAL_17_voltage_relay_cpp_vptr11Alarm_ResetEv) refers to voltage_relay.o(.data) for .data
    voltage_relay.o(i._ZN35_INTERNAL_17_voltage_relay_cpp_vptr11Alarm_ResetEv) refers to main_state_machine.o(.data) for Main_State_Machine
    voltage_relay.o(i._ZN35_INTERNAL_17_voltage_relay_cpp_vptr13Alarm_HandlerEv) refers to stm32f0xx_hal_gpio.o(i.HAL_GPIO_WritePin) for HAL_GPIO_WritePin
    voltage_relay.o(i._ZN35_INTERNAL_17_voltage_relay_cpp_vptr13Alarm_HandlerEv) refers to main_state_machine.o(i._ZN22Voltage_Relay_Executor3popEv) for Voltage_Relay_Executor::pop()
    voltage_relay.o(i._ZN35_INTERNAL_17_voltage_relay_cpp_vptr13Alarm_HandlerEv) refers to voltage_relay.o(.data) for .data
    voltage_relay.o(i._ZN35_INTERNAL_17_voltage_relay_cpp_vptr13Alarm_HandlerEv) refers to main_state_machine.o(.data) for Main_State_Machine
    voltage_relay.o(i._ZN35_INTERNAL_17_voltage_relay_cpp_vptr19Voltage_CalculationEv) refers to voltage_acq.o(i._ZN11voltage_acq9calculateEv) for voltage_acq::calculate()
    voltage_relay.o(i._ZN35_INTERNAL_17_voltage_relay_cpp_vptr19Voltage_CalculationEv) refers to main_state_machine.o(i._ZN22Voltage_Relay_Executor3popEv) for Voltage_Relay_Executor::pop()
    voltage_relay.o(i._ZN35_INTERNAL_17_voltage_relay_cpp_vptr19Voltage_CalculationEv) refers to stm32f0xx_hal_tim.o(i.HAL_TIM_Base_Start_IT) for HAL_TIM_Base_Start_IT
    voltage_relay.o(i._ZN35_INTERNAL_17_voltage_relay_cpp_vptr19Voltage_CalculationEv) refers to voltage_relay.o(.bss) for .bss
    voltage_relay.o(i._ZN35_INTERNAL_17_voltage_relay_cpp_vptr19Voltage_CalculationEv) refers to main_state_machine.o(.data) for Main_State_Machine
    voltage_relay.o(i._ZN35_INTERNAL_17_voltage_relay_cpp_vptr19Voltage_CalculationEv) refers to main_1.o(.bss) for htim1
    voltage_relay.o(i.__sti___17_voltage_relay_cpp_vptr) refers to voltage_relay.o(i._ZN13voltage_relayC1EP10Flash_Data) for voltage_relay::voltage_relay(Flash_Data*)
    voltage_relay.o(i.__sti___17_voltage_relay_cpp_vptr) refers to aeabi_atexit.o(.text) for __aeabi_atexit
    voltage_relay.o(i.__sti___17_voltage_relay_cpp_vptr) refers to eeprom_user.o(.bss) for EEPROM_DATA
    voltage_relay.o(i.__sti___17_voltage_relay_cpp_vptr) refers to voltage_relay.o(.bss) for .bss
    voltage_relay.o(i.__sti___17_voltage_relay_cpp_vptr) refers to voltage_relay.o(i._ZN13voltage_relayD1Ev) for voltage_relay::~voltage_relay()
    voltage_relay.o(i.__sti___17_voltage_relay_cpp_vptr) refers to voltage_relay.o(.data) for .data
    voltage_relay.o(.ARM.exidx) refers to voltage_relay.o(i._ZN35_INTERNAL_17_voltage_relay_cpp_vptr13Alarm_HandlerEv) for i._ZN35_INTERNAL_17_voltage_relay_cpp_vptr13Alarm_HandlerEv
    voltage_relay.o(.ARM.exidx) refers to voltage_relay.o(i._ZN35_INTERNAL_17_voltage_relay_cpp_vptr11Alarm_ResetEv) for i._ZN35_INTERNAL_17_voltage_relay_cpp_vptr11Alarm_ResetEv
    voltage_relay.o(.ARM.exidx) refers to voltage_relay.o(i._ZN13voltage_relay9calculateEv) for i._ZN13voltage_relay9calculateEv
    voltage_relay.o(.ARM.exidx) refers to voltage_relay.o(i._ZN35_INTERNAL_17_voltage_relay_cpp_vptr19Voltage_CalculationEv) for i._ZN35_INTERNAL_17_voltage_relay_cpp_vptr19Voltage_CalculationEv
    voltage_relay.o(.ARM.exidx) refers to voltage_relay.o(i._ZN13voltage_relay11reset_alarmEv) for i._ZN13voltage_relay11reset_alarmEv
    voltage_relay.o(.ARM.exidx) refers to voltage_relay.o(i._ZN13voltage_relay14generate_alarmEv) for i._ZN13voltage_relay14generate_alarmEv
    voltage_relay.o(.ARM.exidx) refers to voltage_relay.o(i._ZN13voltage_relay16status_detectionEv) for i._ZN13voltage_relay16status_detectionEv
    voltage_relay.o(.ARM.exidx) refers to voltage_relay.o(i._ZN13voltage_relay7executeEv) for i._ZN13voltage_relay7executeEv
    voltage_relay.o(.ARM.exidx) refers to voltage_relay.o(i._ZN13voltage_relay11get_voltageEv) for i._ZN13voltage_relay11get_voltageEv
    voltage_relay.o(.ARM.exidx) refers to voltage_relay.o(i._ZN13voltage_relay21get_voltage_to_screenEv) for i._ZN13voltage_relay21get_voltage_to_screenEv
    voltage_relay.o(.ARM.exidx) refers to voltage_relay.o(i._ZN13voltage_relay11get_arr_ptrEv) for i._ZN13voltage_relay11get_arr_ptrEv
    voltage_relay.o(.ARM.exidx) refers to voltage_relay.o(i._ZN13voltage_relay6updateEv) for i._ZN13voltage_relay6updateEv
    voltage_relay.o(.ARM.exidx) refers to voltage_relay.o(i.__sti___17_voltage_relay_cpp_vptr) for i.__sti___17_voltage_relay_cpp_vptr
    voltage_relay.o(.data) refers to voltage_relay.o(i._ZN13voltage_relay7executeEv) for voltage_relay::execute()
    voltage_relay.o(.data) refers to voltage_relay.o(i._ZN35_INTERNAL_17_voltage_relay_cpp_vptr13Alarm_HandlerEv) for [local to voltage_relay_cpp]::Alarm_Handler()
    voltage_relay.o(.data) refers to voltage_relay.o(i._ZN35_INTERNAL_17_voltage_relay_cpp_vptr11Alarm_ResetEv) for [local to voltage_relay_cpp]::Alarm_Reset()
    voltage_relay.o(.data) refers to main_state_machine.o(.data) for Main_State_Machine
    voltage_relay.o(.data) refers to voltage_relay.o(i._ZN35_INTERNAL_17_voltage_relay_cpp_vptr19Voltage_CalculationEv) for [local to voltage_relay_cpp]::Voltage_Calculation()
    voltage_relay.o(.init_array) refers to voltage_relay.o(i.__sti___17_voltage_relay_cpp_vptr) for __sti___17_voltage_relay_cpp_vptr
    voltage_relay.o(.init_array) refers to init_aeabi.o(.text) for __cpp_initialize__aeabi_
    main_state_machine.o(i._ZN22Voltage_Relay_Executor4pushEP14OPERATION_BASE) refers to main_1.o(i._Error_Handler) for _Error_Handler
    main_state_machine.o(i._ZN22Voltage_Relay_Executor8run_taskEv) refers to main_state_machine.o(t._ZN5StackIP14OPERATION_BASEE3getEv) for Stack<OPERATION_BASE*>::get()
    main_state_machine.o(i.__sti___22_main_state_machine_cpp_c044dce6) refers to new.o(i._Znwj) for operator new(unsigned)
    main_state_machine.o(i.__sti___22_main_state_machine_cpp_c044dce6) refers to array_new.o(i._Znaj) for operator new[] (unsigned)
    main_state_machine.o(i.__sti___22_main_state_machine_cpp_c044dce6) refers to aeabi_atexit.o(.text) for __aeabi_atexit
    main_state_machine.o(i.__sti___22_main_state_machine_cpp_c044dce6) refers to main_state_machine.o(.data) for .data
    main_state_machine.o(i.__sti___22_main_state_machine_cpp_c044dce6) refers to main_state_machine.o(i._ZN22Voltage_Relay_ExecutorD1Ev) for Voltage_Relay_Executor::~Voltage_Relay_Executor()
    main_state_machine.o(.ARM.exidx) refers to main_state_machine.o(i._ZN22Voltage_Relay_Executor4pushEP14OPERATION_BASE) for i._ZN22Voltage_Relay_Executor4pushEP14OPERATION_BASE
    main_state_machine.o(.ARM.exidx) refers to main_state_machine.o(i._ZN22Voltage_Relay_Executor3popEv) for i._ZN22Voltage_Relay_Executor3popEv
    main_state_machine.o(.ARM.exidx) refers to main_state_machine.o(i._ZN22Voltage_Relay_Executor8run_taskEv) for i._ZN22Voltage_Relay_Executor8run_taskEv
    main_state_machine.o(.ARM.exidx) refers to main_state_machine.o(i.__sti___22_main_state_machine_cpp_c044dce6) for i.__sti___22_main_state_machine_cpp_c044dce6
    main_state_machine.o(.init_array) refers to main_state_machine.o(i.__sti___22_main_state_machine_cpp_c044dce6) for __sti___22_main_state_machine_cpp_c044dce6
    main_state_machine.o(.init_array) refers to init_aeabi.o(.text) for __cpp_initialize__aeabi_
    alarms_events.o(i.__sti___17_alarms_events_cpp_5ed0bfbf) refers to aeabi_atexit.o(.text) for __aeabi_atexit
    alarms_events.o(i.__sti___17_alarms_events_cpp_5ed0bfbf) refers to alarms_events.o(.bss) for .bss
    alarms_events.o(i.__sti___17_alarms_events_cpp_5ed0bfbf) refers to voltage_relay.o(.bss) for VOLT_RELAY
    alarms_events.o(i.__sti___17_alarms_events_cpp_5ed0bfbf) refers to voltage_relay.o(.data) for vptr
    alarms_events.o(i.__sti___17_alarms_events_cpp_5ed0bfbf) refers to alarms_events.o(.constdata__ZTV11Event_CheckI13voltage_relayMS0_FvvEE) for vtable for Event_Check<voltage_relay, void(voltage_relay::*)()>
    alarms_events.o(i.__sti___17_alarms_events_cpp_5ed0bfbf) refers to alarms_events.o(t._ZN11Event_CheckI13voltage_relayMS0_FvvEED1Ev) for Event_Check<voltage_relay, void(voltage_relay::*)()>::~Event_Check()
    alarms_events.o(i.__sti___17_alarms_events_cpp_5ed0bfbf) refers to alarms_events.o(.data) for .data
    alarms_events.o(i.__sti___17_alarms_events_cpp_5ed0bfbf) refers to voltage_relay.o(.data) for VOLT_CALC
    alarms_events.o(i.__sti___17_alarms_events_cpp_5ed0bfbf) refers to alarms_events.o(.constdata__ZTV5Event) for vtable for Event
    alarms_events.o(i.__sti___17_alarms_events_cpp_5ed0bfbf) refers to alarms_events.o(i._ZN5EventD1Ev) for Event::~Event()
    alarms_events.o(i.__sti___17_alarms_events_cpp_5ed0bfbf) refers to alarms_events.o(.constdata__ZTV5Alarm) for vtable for Alarm
    alarms_events.o(i.__sti___17_alarms_events_cpp_5ed0bfbf) refers to alarms_events.o(i._ZN5AlarmD1Ev) for Alarm::~Alarm()
    alarms_events.o(i.__sti___17_alarms_events_cpp_5ed0bfbf) refers to alarms_events.o(.constdata__ZTV18Event_EEprom_Write) for vtable for Event_EEprom_Write
    alarms_events.o(i.__sti___17_alarms_events_cpp_5ed0bfbf) refers to alarms_events.o(i._ZN18Event_EEprom_WriteD1Ev) for Event_EEprom_Write::~Event_EEprom_Write()
    alarms_events.o(.ARM.exidx) refers to alarms_events.o(i._ZN5EventaSERKS_) for i._ZN5EventaSERKS_
    alarms_events.o(.ARM.exidx) refers to alarms_events.o(i._ZN5Event12execute_taskEv) for i._ZN5Event12execute_taskEv
    alarms_events.o(.ARM.exidx) refers to alarms_events.o(i._ZN18Event_EEprom_WriteaSERKS_) for i._ZN18Event_EEprom_WriteaSERKS_
    alarms_events.o(.ARM.exidx) refers to alarms_events.o(i._ZN18Event_EEprom_Write8set_taskERPFvP10Flash_DatatES1_t) for i._ZN18Event_EEprom_Write8set_taskERPFvP10Flash_DatatES1_t
    alarms_events.o(.ARM.exidx) refers to alarms_events.o(i._ZN18Event_EEprom_Write12execute_taskEv) for i._ZN18Event_EEprom_Write12execute_taskEv
    alarms_events.o(.ARM.exidx) refers to alarms_events.o(i._ZN5Alarm8set_taskERPFvvE) for i._ZN5Alarm8set_taskERPFvvE
    alarms_events.o(.ARM.exidx) refers to alarms_events.o(i._ZN5Alarm12execute_taskEv) for i._ZN5Alarm12execute_taskEv
    alarms_events.o(.ARM.exidx) refers to alarms_events.o(i.__sti___17_alarms_events_cpp_5ed0bfbf) for i.__sti___17_alarms_events_cpp_5ed0bfbf
    alarms_events.o(.init_array) refers to alarms_events.o(i.__sti___17_alarms_events_cpp_5ed0bfbf) for __sti___17_alarms_events_cpp_5ed0bfbf
    alarms_events.o(.init_array) refers to init_aeabi.o(.text) for __cpp_initialize__aeabi_
    observer.o(.ARM.exidx) refers to observer.o(i._ZN7Subject6attachEP8Observer) for i._ZN7Subject6attachEP8Observer
    observer.o(.ARM.exidx) refers to observer.o(i._ZN7Subject6detachEP8Observer) for i._ZN7Subject6detachEP8Observer
    observer.o(.ARM.exidx) refers to observer.o(i._ZN7Subject6notifyEv) for i._ZN7Subject6notifyEv
    main_1.o(i._Error_Handler) refers to screen.o(i._ZlsR6ScreenPKc) for operator <<(Screen&, const char*)
    main_1.o(i._Error_Handler) refers to screen.o(.data) for scr
    main_1.o(i._Z10_MAIN_FUNCv) refers to main_state_machine.o(i._ZN22Voltage_Relay_Executor8run_taskEv) for Voltage_Relay_Executor::run_task()
    main_1.o(i._Z10_MAIN_FUNCv) refers to tsl_user.o(i._Z15TSL_user_Actionv) for TSL_user_Action()
    main_1.o(i._Z10_MAIN_FUNCv) refers to main_state_machine.o(.data) for Main_State_Machine
    main_1.o(i._Z18SystemClock_Configv) refers to stm32f0xx_hal_rcc.o(i.HAL_RCC_OscConfig) for HAL_RCC_OscConfig
    main_1.o(i._Z18SystemClock_Configv) refers to screen.o(i._ZlsR6ScreenPKc) for operator <<(Screen&, const char*)
    main_1.o(i._Z18SystemClock_Configv) refers to stm32f0xx_hal_rcc.o(i.HAL_RCC_ClockConfig) for HAL_RCC_ClockConfig
    main_1.o(i._Z18SystemClock_Configv) refers to stm32f0xx_hal_rcc.o(i.HAL_RCC_GetHCLKFreq) for HAL_RCC_GetHCLKFreq
    main_1.o(i._Z18SystemClock_Configv) refers to aeabi_sdiv.o(.text) for __aeabi_uidivmod
    main_1.o(i._Z18SystemClock_Configv) refers to stm32f0xx_hal_cortex.o(i.HAL_SYSTICK_Config) for HAL_SYSTICK_Config
    main_1.o(i._Z18SystemClock_Configv) refers to stm32f0xx_hal_cortex.o(i.HAL_SYSTICK_CLKSourceConfig) for HAL_SYSTICK_CLKSourceConfig
    main_1.o(i._Z18SystemClock_Configv) refers to stm32f0xx_hal_cortex.o(i.HAL_NVIC_SetPriority) for HAL_NVIC_SetPriority
    main_1.o(i._Z18SystemClock_Configv) refers to screen.o(.data) for scr
    main_1.o(i._Z5powerv) refers to stm32f0xx_hal_pwr_ex.o(i.HAL_PWR_ConfigPVD) for HAL_PWR_ConfigPVD
    main_1.o(i._Z5powerv) refers to stm32f0xx_hal_pwr_ex.o(i.HAL_PWR_EnablePVD) for HAL_PWR_EnablePVD
    main_1.o(i._ZN27_INTERNAL_6_main_c_484a10ab11MX_ADC_InitEv) refers to stm32f0xx_hal_adc.o(i.HAL_ADC_Init) for HAL_ADC_Init
    main_1.o(i._ZN27_INTERNAL_6_main_c_484a10ab11MX_ADC_InitEv) refers to screen.o(i._ZlsR6ScreenPKc) for operator <<(Screen&, const char*)
    main_1.o(i._ZN27_INTERNAL_6_main_c_484a10ab11MX_ADC_InitEv) refers to stm32f0xx_hal_adc.o(i.HAL_ADC_ConfigChannel) for HAL_ADC_ConfigChannel
    main_1.o(i._ZN27_INTERNAL_6_main_c_484a10ab11MX_ADC_InitEv) refers to main_1.o(.bss) for .bss
    main_1.o(i._ZN27_INTERNAL_6_main_c_484a10ab11MX_ADC_InitEv) refers to screen.o(.data) for scr
    main_1.o(i._ZN27_INTERNAL_6_main_c_484a10ab11MX_TSC_InitEv) refers to stm32f0xx_hal_tsc.o(i.HAL_TSC_Init) for HAL_TSC_Init
    main_1.o(i._ZN27_INTERNAL_6_main_c_484a10ab11MX_TSC_InitEv) refers to screen.o(i._ZlsR6ScreenPKc) for operator <<(Screen&, const char*)
    main_1.o(i._ZN27_INTERNAL_6_main_c_484a10ab11MX_TSC_InitEv) refers to main_1.o(.bss) for .bss
    main_1.o(i._ZN27_INTERNAL_6_main_c_484a10ab11MX_TSC_InitEv) refers to main_1.o(i._ZN27_INTERNAL_6_main_c_484a10ab12MX_TIM1_InitEv) for i._ZN27_INTERNAL_6_main_c_484a10ab12MX_TIM1_InitEv
    main_1.o(i._ZN27_INTERNAL_6_main_c_484a10ab11MX_TSC_InitEv) refers to screen.o(.data) for scr
    main_1.o(i._ZN27_INTERNAL_6_main_c_484a10ab12MX_GPIO_InitEv) refers to stm32f0xx_hal_gpio.o(i.HAL_GPIO_WritePin) for HAL_GPIO_WritePin
    main_1.o(i._ZN27_INTERNAL_6_main_c_484a10ab12MX_GPIO_InitEv) refers to stm32f0xx_hal_gpio.o(i.HAL_GPIO_Init) for HAL_GPIO_Init
    main_1.o(i._ZN27_INTERNAL_6_main_c_484a10ab12MX_TIM1_InitEv) refers to stm32f0xx_hal_tim.o(i.HAL_TIM_Base_Init) for HAL_TIM_Base_Init
    main_1.o(i._ZN27_INTERNAL_6_main_c_484a10ab12MX_TIM1_InitEv) refers to screen.o(i._ZlsR6ScreenPKc) for operator <<(Screen&, const char*)
    main_1.o(i._ZN27_INTERNAL_6_main_c_484a10ab12MX_TIM1_InitEv) refers to stm32f0xx_hal_tim.o(i.HAL_TIM_ConfigClockSource) for HAL_TIM_ConfigClockSource
    main_1.o(i._ZN27_INTERNAL_6_main_c_484a10ab12MX_TIM1_InitEv) refers to stm32f0xx_hal_tim_ex.o(i.HAL_TIMEx_MasterConfigSynchronization) for HAL_TIMEx_MasterConfigSynchronization
    main_1.o(i._ZN27_INTERNAL_6_main_c_484a10ab12MX_TIM1_InitEv) refers to main_1.o(.bss) for .bss
    main_1.o(i._ZN27_INTERNAL_6_main_c_484a10ab12MX_TIM1_InitEv) refers to screen.o(.data) for scr
    main_1.o(i._ZN27_INTERNAL_6_main_c_484a10ab12MX_TIM6_InitEv) refers to stm32f0xx_hal_tim.o(i.HAL_TIM_Base_Init) for HAL_TIM_Base_Init
    main_1.o(i._ZN27_INTERNAL_6_main_c_484a10ab12MX_TIM6_InitEv) refers to screen.o(i._ZlsR6ScreenPKc) for operator <<(Screen&, const char*)
    main_1.o(i._ZN27_INTERNAL_6_main_c_484a10ab12MX_TIM6_InitEv) refers to stm32f0xx_hal_tim_ex.o(i.HAL_TIMEx_MasterConfigSynchronization) for HAL_TIMEx_MasterConfigSynchronization
    main_1.o(i._ZN27_INTERNAL_6_main_c_484a10ab12MX_TIM6_InitEv) refers to main_1.o(.bss) for .bss
    main_1.o(i._ZN27_INTERNAL_6_main_c_484a10ab12MX_TIM6_InitEv) refers to main_1.o(i._ZN27_INTERNAL_6_main_c_484a10ab12MX_TIM1_InitEv) for i._ZN27_INTERNAL_6_main_c_484a10ab12MX_TIM1_InitEv
    main_1.o(i._ZN27_INTERNAL_6_main_c_484a10ab12MX_TIM6_InitEv) refers to screen.o(.data) for scr
    main_1.o(i.main) refers to stm32f0xx_hal.o(i.HAL_Init) for HAL_Init
    main_1.o(i.main) refers to main_1.o(i._Z18SystemClock_Configv) for SystemClock_Config()
    main_1.o(i.main) refers to main_1.o(i._ZN27_INTERNAL_6_main_c_484a10ab12MX_GPIO_InitEv) for [local to main_c]::MX_GPIO_Init()
    main_1.o(i.main) refers to stm32f0xx_hal_cortex.o(i.HAL_NVIC_SetPriority) for HAL_NVIC_SetPriority
    main_1.o(i.main) refers to stm32f0xx_hal_cortex.o(i.HAL_NVIC_EnableIRQ) for HAL_NVIC_EnableIRQ
    main_1.o(i.main) refers to main_1.o(i._ZN27_INTERNAL_6_main_c_484a10ab11MX_TSC_InitEv) for [local to main_c]::MX_TSC_Init()
    main_1.o(i.main) refers to main_1.o(i._ZN27_INTERNAL_6_main_c_484a10ab12MX_TIM6_InitEv) for [local to main_c]::MX_TIM6_Init()
    main_1.o(i.main) refers to main_1.o(i._ZN27_INTERNAL_6_main_c_484a10ab11MX_ADC_InitEv) for [local to main_c]::MX_ADC_Init()
    main_1.o(i.main) refers to main_1.o(i._ZN27_INTERNAL_6_main_c_484a10ab12MX_TIM1_InitEv) for [local to main_c]::MX_TIM1_Init()
    main_1.o(i.main) refers to stm32f0xx_hal_adc_ex.o(i.HAL_ADCEx_Calibration_Start) for HAL_ADCEx_Calibration_Start
    main_1.o(i.main) refers to tsl_user.o(i._Z13TSL_user_Initv) for TSL_user_Init()
    main_1.o(i.main) refers to main_state_machine.o(i._ZN22Voltage_Relay_Executor4pushEP14OPERATION_BASE) for Voltage_Relay_Executor::push(OPERATION_BASE*)
    main_1.o(i.main) refers to eeprom.o(i._Z7EE_Initv) for EE_Init()
    main_1.o(i.main) refers to eeprom_user.o(i._Z18Write_Default_DataP10Flash_Data) for Write_Default_Data(Flash_Data*)
    main_1.o(i.main) refers to stm32f0xx_hal_tim.o(i.HAL_TIM_Base_Start_IT) for HAL_TIM_Base_Start_IT
    main_1.o(i.main) refers to main_1.o(i._Z5powerv) for power()
    main_1.o(i.main) refers to main_1.o(i._Z10_MAIN_FUNCv) for _MAIN_FUNC()
    main_1.o(i.main) refers to main_1.o(.bss) for .bss
    main_1.o(i.main) refers to alarms_events.o(.bss) for Volt_relay_Event_Check
    main_1.o(i.main) refers to main_state_machine.o(.data) for Main_State_Machine
    main_1.o(i.main) refers to eeprom_user.o(.bss) for EEPROM_DATA
    main_1.o(.ARM.exidx) refers to main_1.o(i._Z10_MAIN_FUNCv) for i._Z10_MAIN_FUNCv
    main_1.o(.ARM.exidx) refers to main_1.o(i._Z5powerv) for i._Z5powerv
    main_1.o(.ARM.exidx) refers to main_1.o(i._Error_Handler) for i._Error_Handler
    main_1.o(.ARM.exidx) refers to main_1.o(i._ZN27_INTERNAL_6_main_c_484a10ab11MX_ADC_InitEv) for i._ZN27_INTERNAL_6_main_c_484a10ab11MX_ADC_InitEv
    main_1.o(.ARM.exidx) refers to main_1.o(i._Z18SystemClock_Configv) for i._Z18SystemClock_Configv
    main_1.o(.ARM.exidx) refers to main_1.o(i.main) for i.main
    main_1.o(.ARM.exidx) refers to main_1.o(i._ZN27_INTERNAL_6_main_c_484a10ab12MX_TIM1_InitEv) for i._ZN27_INTERNAL_6_main_c_484a10ab12MX_TIM1_InitEv
    main_1.o(.ARM.exidx) refers to main_1.o(i._ZN27_INTERNAL_6_main_c_484a10ab12MX_TIM6_InitEv) for i._ZN27_INTERNAL_6_main_c_484a10ab12MX_TIM6_InitEv
    main_1.o(.ARM.exidx) refers to main_1.o(i._ZN27_INTERNAL_6_main_c_484a10ab11MX_TSC_InitEv) for i._ZN27_INTERNAL_6_main_c_484a10ab11MX_TSC_InitEv
    main_1.o(.ARM.exidx) refers to main_1.o(i._ZN27_INTERNAL_6_main_c_484a10ab12MX_GPIO_InitEv) for i._ZN27_INTERNAL_6_main_c_484a10ab12MX_GPIO_InitEv
    main_1.o(.data) refers to main_1.o(i._Z10_MAIN_FUNCv) for _MAIN_FUNC()
    menu.o(i._Z15Call_Error_Menuv) refers to main_state_machine.o(i._ZN22Voltage_Relay_Executor3popEv) for Voltage_Relay_Executor::pop()
    menu.o(i._Z15Call_Error_Menuv) refers to menu.o(.data) for .data
    menu.o(i._Z15Call_Error_Menuv) refers to menu.o(.bss) for .bss
    menu.o(i._Z15Call_Error_Menuv) refers to main_state_machine.o(.data) for Main_State_Machine
    menu.o(i._Z7do_Menuv) refers to keyboard.o(i._ZN8keyboard15any_key_pressedEv) for keyboard::any_key_pressed()
    menu.o(i._Z7do_Menuv) refers to help.o(i._Z12time_elapsedthh) for time_elapsed(unsigned short, unsigned char, unsigned char)
    menu.o(i._Z7do_Menuv) refers to menu.o(.data) for .data
    menu.o(i._Z7do_Menuv) refers to menu.o(.bss) for .bss
    menu.o(i._Z7do_Menuv) refers to keyboard.o(.bss) for Keyboard
    menu.o(i._Z7do_Menuv) refers to tsl_globals.o(.bss) for TSL_Globals
    menu.o(i._ZN10Menu_Error6actionEv) refers to keyboard.o(i._ZN8keyboard9get_stateE11SENSOR_NAME12SENSOR_STATE) for keyboard::get_state(SENSOR_NAME, SENSOR_STATE)
    menu.o(i._ZN10Menu_Error6actionEv) refers to menu.o(.data) for .data
    menu.o(i._ZN10Menu_Error8menu_scrEv) refers to screen.o(i._ZlsR6ScreenPKc) for operator <<(Screen&, const char*)
    menu.o(i._ZN10Menu_Error8menu_scrEv) refers to screen.o(.data) for scr
    menu.o(i._ZN13Menu_flash_rw11change_dataEv) refers to delete.o(i._ZdlPv) for operator delete (void*)
    menu.o(i._ZN13Menu_flash_rw11change_dataEv) refers to new.o(i._Znwj) for operator new(unsigned)
    menu.o(i._ZN13Menu_flash_rw11change_dataEv) refers to alarms_events.o(i._ZN18Event_EEprom_Write8set_taskERPFvP10Flash_DatatES1_t) for Event_EEprom_Write::set_task(void(*&)(Flash_Data*, unsigned short), Flash_Data*, unsigned short)
    menu.o(i._ZN13Menu_flash_rw11change_dataEv) refers to main_state_machine.o(i._ZN22Voltage_Relay_Executor4pushEP14OPERATION_BASE) for Voltage_Relay_Executor::push(OPERATION_BASE*)
    menu.o(i._ZN13Menu_flash_rw11change_dataEv) refers to eeprom_user.o(.data) for EEPROM_EVENT_WR
    menu.o(i._ZN13Menu_flash_rw11change_dataEv) refers to alarms_events.o(.bss) for event_write
    menu.o(i._ZN13Menu_flash_rw11change_dataEv) refers to menu.o(.data) for .data
    menu.o(i._ZN13Menu_flash_rw6actionEv) refers to eeprom_user.o(i._ZNK10Flash_Data9get_valueEv) for Flash_Data::get_value() const
    menu.o(i._ZN13Menu_flash_rw6actionEv) refers to keyboard.o(i._ZN8keyboard9get_stateE11SENSOR_NAME12SENSOR_STATE) for keyboard::get_state(SENSOR_NAME, SENSOR_STATE)
    menu.o(i._ZN13Menu_flash_rw6actionEv) refers to menu.o(i._ZN13Menu_flash_rw11change_dataEv) for Menu_flash_rw::change_data()
    menu.o(i._ZN13Menu_flash_rw6actionEv) refers to menu.o(.data) for .data
    menu.o(i._ZN13Menu_flash_rw8menu_scrEv) refers to screen.o(i._ZlsR6ScreenRKt) for operator <<(Screen&, const unsigned short&)
    menu.o(i._ZN13Menu_flash_rw8menu_scrEv) refers to screen.o(.data) for scr
    menu.o(i._ZN15Menu_flash_read6actionEv) refers to eeprom_user.o(i._ZNK10Flash_Data9get_valueEv) for Flash_Data::get_value() const
    menu.o(i._ZN15Menu_flash_read6actionEv) refers to keyboard.o(i._ZN8keyboard9get_stateE11SENSOR_NAME12SENSOR_STATE) for keyboard::get_state(SENSOR_NAME, SENSOR_STATE)
    menu.o(i._ZN15Menu_flash_read6actionEv) refers to menu.o(.data) for .data
    menu.o(i._ZN15Menu_flash_read8menu_scrEv) refers to screen.o(i._ZlsR6ScreenRKt) for operator <<(Screen&, const unsigned short&)
    menu.o(i._ZN15Menu_flash_read8menu_scrEv) refers to screen.o(i._ZlsR6ScreenPKc) for operator <<(Screen&, const char*)
    menu.o(i._ZN15Menu_flash_read8menu_scrEv) refers to screen.o(.data) for scr
    menu.o(i._ZN18Menu_Voltage_Relay8menu_scrEv) refers to voltage_relay.o(i._ZN13voltage_relay21get_voltage_to_screenEv) for voltage_relay::get_voltage_to_screen()
    menu.o(i._ZN18Menu_Voltage_Relay8menu_scrEv) refers to screen.o(i._ZlsR6ScreenRKt) for operator <<(Screen&, const unsigned short&)
    menu.o(i._ZN18Menu_Voltage_Relay8menu_scrEv) refers to screen.o(.data) for scr
    menu.o(i._ZN9Menu_Time6actionEv) refers to eeprom_user.o(i._ZNK10Flash_Data9get_valueEv) for Flash_Data::get_value() const
    menu.o(i._ZN9Menu_Time6actionEv) refers to keyboard.o(i._ZN8keyboard9get_stateE11SENSOR_NAME12SENSOR_STATE) for keyboard::get_state(SENSOR_NAME, SENSOR_STATE)
    menu.o(i._ZN9Menu_Time6actionEv) refers to menu.o(i._ZN13Menu_flash_rw11change_dataEv) for Menu_flash_rw::change_data()
    menu.o(i._ZN9Menu_Time6actionEv) refers to menu.o(.data) for .data
    menu.o(i._ZN9Menu_Time8menu_scrEv) refers to eeprom_user.o(i._ZNK10Flash_Data9get_valueEv) for Flash_Data::get_value() const
    menu.o(i._ZN9Menu_Time8menu_scrEv) refers to aeabi_sdiv.o(.text) for __aeabi_uidivmod
    menu.o(i._ZN9Menu_Time8menu_scrEv) refers to rt_memcpy.o(.emb_text) for __aeabi_memcpy4
    menu.o(i._ZN9Menu_Time8menu_scrEv) refers to screen.o(i._ZlsR6ScreenSt2tm) for operator <<(Screen&, std::tm)
    menu.o(i._ZN9Menu_Time8menu_scrEv) refers to screen.o(.data) for scr
    menu.o(i._ZN9Menu_item6actionEv) refers to keyboard.o(i._ZN8keyboard9get_stateE11SENSOR_NAME12SENSOR_STATE) for keyboard::get_state(SENSOR_NAME, SENSOR_STATE)
    menu.o(i._ZN9Menu_item6actionEv) refers to menu.o(.data) for .data
    menu.o(i._ZN9Menu_item8menu_scrEv) refers to strncmp.o(.text) for strncmp
    menu.o(i._ZN9Menu_item8menu_scrEv) refers to screen.o(i._ZlsR6ScreenPKc) for operator <<(Screen&, const char*)
    menu.o(i._ZN9Menu_item8menu_scrEv) refers to screen.o(.data) for scr
    menu.o(i.__sti___8_menu_cpp_6e0c3973) refers to menu.o(i._ZN13Menu_flash_rwC1EPKcR10Flash_DataP9Menu_Base) for Menu_flash_rw::Menu_flash_rw(const char*, Flash_Data&, Menu_Base*)
    menu.o(i.__sti___8_menu_cpp_6e0c3973) refers to aeabi_atexit.o(.text) for __aeabi_atexit
    menu.o(i.__sti___8_menu_cpp_6e0c3973) refers to menu.o(i._ZN9Menu_TimeC1EPKcR10Flash_DataP9Menu_Base) for Menu_Time::Menu_Time(const char*, Flash_Data&, Menu_Base*)
    menu.o(i.__sti___8_menu_cpp_6e0c3973) refers to menu.o(i._ZN9Menu_BaseC2EPKc) for Menu_Base::Menu_Base__sub_object(const char*)
    menu.o(i.__sti___8_menu_cpp_6e0c3973) refers to menu.o(i._ZN9Menu_itemC1EPKchz) for Menu_item::Menu_item(const char*, unsigned char, ...)
    menu.o(i.__sti___8_menu_cpp_6e0c3973) refers to menu.o(.bss) for .bss
    menu.o(i.__sti___8_menu_cpp_6e0c3973) refers to eeprom_user.o(.bss) for EEPROM_DATA
    menu.o(i.__sti___8_menu_cpp_6e0c3973) refers to menu.o(i._ZN13Menu_flash_rwD1Ev) for Menu_flash_rw::~Menu_flash_rw()
    menu.o(i.__sti___8_menu_cpp_6e0c3973) refers to menu.o(i._ZN9Menu_TimeD1Ev) for Menu_Time::~Menu_Time()
    menu.o(i.__sti___8_menu_cpp_6e0c3973) refers to voltage_relay.o(.bss) for VOLT_RELAY
    menu.o(i.__sti___8_menu_cpp_6e0c3973) refers to menu.o(.constdata__ZZN18Menu_Voltage_RelayC1ER13voltage_relayP9Menu_BaseEs) for Menu_Voltage_Relay::Menu_Voltage_Relay(voltage_relay&, Menu_Base*)::string
    menu.o(i.__sti___8_menu_cpp_6e0c3973) refers to menu.o(.constdata__ZTV18Menu_Voltage_Relay) for vtable for Menu_Voltage_Relay
    menu.o(i.__sti___8_menu_cpp_6e0c3973) refers to menu.o(i._ZN18Menu_Voltage_RelayD1Ev) for Menu_Voltage_Relay::~Menu_Voltage_Relay()
    menu.o(i.__sti___8_menu_cpp_6e0c3973) refers to menu.o(i._ZN9Menu_itemD1Ev) for Menu_item::~Menu_item()
    menu.o(i.__sti___8_menu_cpp_6e0c3973) refers to menu.o(.constdata__ZTV10Menu_Error) for vtable for Menu_Error
    menu.o(i.__sti___8_menu_cpp_6e0c3973) refers to menu.o(i._ZN10Menu_ErrorD1Ev) for Menu_Error::~Menu_Error()
    menu.o(.ARM.exidx) refers to menu.o(i._ZN10Menu_Error10set_parentEP9Menu_Base) for i._ZN10Menu_Error10set_parentEP9Menu_Base
    menu.o(.ARM.exidx) refers to menu.o(i._Z15Call_Error_Menuv) for i._Z15Call_Error_Menuv
    menu.o(.ARM.exidx) refers to menu.o(i._ZN9Menu_item13return_to_topEv) for i._ZN9Menu_item13return_to_topEv
    menu.o(.ARM.exidx) refers to menu.o(i._Z7do_Menuv) for i._Z7do_Menuv
    menu.o(.ARM.exidx) refers to menu.o(i._ZN9Menu_item6actionEv) for i._ZN9Menu_item6actionEv
    menu.o(.ARM.exidx) refers to menu.o(i._ZN9Menu_item8menu_scrEv) for i._ZN9Menu_item8menu_scrEv
    menu.o(.ARM.exidx) refers to menu.o(i._ZN15Menu_flash_read6actionEv) for i._ZN15Menu_flash_read6actionEv
    menu.o(.ARM.exidx) refers to menu.o(i._ZN15Menu_flash_read8menu_scrEv) for i._ZN15Menu_flash_read8menu_scrEv
    menu.o(.ARM.exidx) refers to menu.o(i._ZN13Menu_flash_rw11change_dataEv) for i._ZN13Menu_flash_rw11change_dataEv
    menu.o(.ARM.exidx) refers to menu.o(i._ZN13Menu_flash_rw6actionEv) for i._ZN13Menu_flash_rw6actionEv
    menu.o(.ARM.exidx) refers to menu.o(i._ZN13Menu_flash_rw8menu_scrEv) for i._ZN13Menu_flash_rw8menu_scrEv
    menu.o(.ARM.exidx) refers to menu.o(i._ZN18Menu_Voltage_Relay6actionEv) for i._ZN18Menu_Voltage_Relay6actionEv
    menu.o(.ARM.exidx) refers to menu.o(i._ZN18Menu_Voltage_Relay8menu_scrEv) for i._ZN18Menu_Voltage_Relay8menu_scrEv
    menu.o(.ARM.exidx) refers to menu.o(i._ZN9Menu_Time6actionEv) for i._ZN9Menu_Time6actionEv
    menu.o(.ARM.exidx) refers to menu.o(i._ZN9Menu_Time8menu_scrEv) for i._ZN9Menu_Time8menu_scrEv
    menu.o(.ARM.exidx) refers to menu.o(i._ZN10Menu_Error6actionEv) for i._ZN10Menu_Error6actionEv
    menu.o(.ARM.exidx) refers to menu.o(i._ZN10Menu_Error8menu_scrEv) for i._ZN10Menu_Error8menu_scrEv
    menu.o(.ARM.exidx) refers to menu.o(i.__sti___8_menu_cpp_6e0c3973) for i.__sti___8_menu_cpp_6e0c3973
    menu.o(.data) refers to menu.o(i._Z15Call_Error_Menuv) for Call_Error_Menu()
    menu.o(.data) refers to menu.o(.bss) for Parent
    menu.o(.data) refers to keyboard.o(.bss) for Keyboard
    menu.o(.data) refers to main_state_machine.o(.data) for Main_State_Machine
    menu.o(.init_array) refers to menu.o(i.__sti___8_menu_cpp_6e0c3973) for __sti___8_menu_cpp_6e0c3973
    menu.o(.init_array) refers to init_aeabi.o(.text) for __cpp_initialize__aeabi_
    arm_fir_f32.o(i.arm_fir_f32) refers to fmul.o(x$fpl$fmul) for __aeabi_fmul
    arm_fir_f32.o(i.arm_fir_f32) refers to faddsub.o(x$fpl$fadd) for __aeabi_fadd
    arm_fir_f32.o(.ARM.exidx) refers to arm_fir_f32.o(i.arm_fir_f32) for i.arm_fir_f32
    arm_fir_init_f32.o(i.arm_fir_init_f32) refers to rt_memclr.o(.text) for __aeabi_memclr4
    arm_fir_init_f32.o(.ARM.exidx) refers to arm_fir_init_f32.o(i.arm_fir_init_f32) for i.arm_fir_init_f32
    startup_stm32f071xb.o(STACK) refers (Special) to heapauxi.o(.text) for __use_two_region_memory
    startup_stm32f071xb.o(HEAP) refers (Special) to heapauxi.o(.text) for __use_two_region_memory
    startup_stm32f071xb.o(RESET) refers (Special) to heapauxi.o(.text) for __use_two_region_memory
    startup_stm32f071xb.o(RESET) refers to startup_stm32f071xb.o(STACK) for __initial_sp
    startup_stm32f071xb.o(RESET) refers to startup_stm32f071xb.o(.text) for Reset_Handler
    startup_stm32f071xb.o(RESET) refers to stm32f0xx_it.o(i.NMI_Handler) for NMI_Handler
    startup_stm32f071xb.o(RESET) refers to stm32f0xx_it.o(i.HardFault_Handler) for HardFault_Handler
    startup_stm32f071xb.o(RESET) refers to stm32f0xx_it.o(i.SVC_Handler) for SVC_Handler
    startup_stm32f071xb.o(RESET) refers to stm32f0xx_it.o(i.PendSV_Handler) for PendSV_Handler
    startup_stm32f071xb.o(RESET) refers to stm32f0xx_it.o(i.SysTick_Handler) for SysTick_Handler
    startup_stm32f071xb.o(RESET) refers to stm32f0xx_it.o(i.TSC_IRQHandler) for TSC_IRQHandler
    startup_stm32f071xb.o(RESET) refers to stm32f0xx_it.o(i.DMA1_Channel1_IRQHandler) for DMA1_Channel1_IRQHandler
    startup_stm32f071xb.o(RESET) refers to stm32f0xx_it.o(i.TIM1_BRK_UP_TRG_COM_IRQHandler) for TIM1_BRK_UP_TRG_COM_IRQHandler
    startup_stm32f071xb.o(RESET) refers to stm32f0xx_it.o(i.TIM6_DAC_IRQHandler) for TIM6_DAC_IRQHandler
    startup_stm32f071xb.o(.text) refers (Special) to heapauxi.o(.text) for __use_two_region_memory
    startup_stm32f071xb.o(.text) refers to system_stm32f0xx.o(i.SystemInit) for SystemInit
    startup_stm32f071xb.o(.text) refers to __main.o(!!!main) for __main
    startup_stm32f071xb.o(.text) refers to startup_stm32f071xb.o(HEAP) for Heap_Mem
    startup_stm32f071xb.o(.text) refers to startup_stm32f071xb.o(STACK) for Stack_Mem
    tsl.o(i._Z8TSL_InitPK10TSL_Bank_T) refers to tsl_time_stm32f0xx.o(i._Z12TSL_tim_Initv) for TSL_tim_Init()
    tsl.o(i._Z8TSL_InitPK10TSL_Bank_T) refers to tsl_acq_stm32f0xx.o(i._Z12TSL_acq_Initv) for TSL_acq_Init()
    tsl.o(i._Z8TSL_InitPK10TSL_Bank_T) refers to tsl_globals.o(.bss) for TSL_Globals
    tsl.o(.ARM.exidx) refers to tsl.o(i._Z8TSL_InitPK10TSL_Bank_T) for i._Z8TSL_InitPK10TSL_Bank_T
    tsl_acq.o(i._Z21TSL_acq_BankCalibrateh) refers to tsl_acq_stm32f0xx.o(i._Z19TSL_acq_BankWaitEOCv) for TSL_acq_BankWaitEOC()
    tsl_acq.o(i._Z21TSL_acq_BankCalibrateh) refers to tsl_acq.o(i._Z21TSL_acq_BankClearDatah) for TSL_acq_BankClearData(unsigned char)
    tsl_acq.o(i._Z21TSL_acq_BankCalibrateh) refers to tsl_acq_stm32f0xx.o(i._Z18TSL_acq_BankConfigh) for TSL_acq_BankConfig(unsigned char)
    tsl_acq.o(i._Z21TSL_acq_BankCalibrateh) refers to tsl_acq_stm32f0xx.o(i._Z20TSL_acq_BankStartAcqv) for TSL_acq_BankStartAcq()
    tsl_acq.o(i._Z21TSL_acq_BankCalibrateh) refers to tsl_acq_stm32f0xx.o(i._Z15TSL_acq_GetMeash) for TSL_acq_GetMeas(unsigned char)
    tsl_acq.o(i._Z21TSL_acq_BankCalibrateh) refers to tsl_globals.o(.bss) for TSL_Globals
    tsl_acq.o(i._Z21TSL_acq_BankCalibrateh) refers to tsl_acq.o(.data) for .data
    tsl_acq.o(i._Z21TSL_acq_BankCalibrateh) refers to tsl_user.o(.data) for TSL_Params
    tsl_acq.o(i._Z21TSL_acq_BankClearDatah) refers to tsl_globals.o(.bss) for TSL_Globals
    tsl_acq.o(i._Z21TSL_acq_BankGetResulthPFtttEPFssE) refers to tsl_acq_stm32f0xx.o(i._Z15TSL_acq_GetMeash) for TSL_acq_GetMeas(unsigned char)
    tsl_acq.o(i._Z21TSL_acq_BankGetResulthPFtttEPFssE) refers to tsl_acq_stm32f0xx.o(i._Z17TSL_acq_UseFilterP17TSL_ChannelData_T) for TSL_acq_UseFilter(TSL_ChannelData_T*)
    tsl_acq.o(i._Z21TSL_acq_BankGetResulthPFtttEPFssE) refers to tsl_acq_stm32f0xx.o(i._Z20TSL_acq_ComputeDeltatt) for TSL_acq_ComputeDelta(unsigned short, unsigned short)
    tsl_acq.o(i._Z21TSL_acq_BankGetResulthPFtttEPFssE) refers to tsl_acq_stm32f0xx.o(i._Z18TSL_acq_CheckNoisev) for TSL_acq_CheckNoise()
    tsl_acq.o(i._Z21TSL_acq_BankGetResulthPFtttEPFssE) refers to tsl_globals.o(.bss) for TSL_Globals
    tsl_acq.o(i._Z21TSL_acq_BankGetResulthPFtttEPFssE) refers to tsl_user.o(.data) for TSL_Params
    tsl_acq.o(.ARM.exidx) refers to tsl_acq.o(i._Z21TSL_acq_BankGetResulthPFtttEPFssE) for i._Z21TSL_acq_BankGetResulthPFtttEPFssE
    tsl_acq.o(.ARM.exidx) refers to tsl_acq.o(i._Z21TSL_acq_BankClearDatah) for i._Z21TSL_acq_BankClearDatah
    tsl_acq.o(.ARM.exidx) refers to tsl_acq.o(i._Z21TSL_acq_BankCalibrateh) for i._Z21TSL_acq_BankCalibrateh
    tsl_acq_stm32f0xx.o(i._Z12TSL_acq_Initv) refers to aeabi_sdiv.o(.text) for __aeabi_uidivmod
    tsl_acq_stm32f0xx.o(i._Z12TSL_acq_Initv) refers to system_stm32f0xx.o(.data) for SystemCoreClock
    tsl_acq_stm32f0xx.o(i._Z12TSL_acq_Initv) refers to tsl_acq_stm32f0xx.o(.data) for .data
    tsl_acq_stm32f0xx.o(i._Z18TSL_acq_BankConfigh) refers to tsl_globals.o(.bss) for TSL_Globals
    tsl_acq_stm32f0xx.o(i._Z20TSL_acq_BankStartAcqv) refers to tsl_acq_stm32f0xx.o(i._Z9SoftDelayj) for SoftDelay(unsigned)
    tsl_acq_stm32f0xx.o(i._Z20TSL_acq_BankStartAcqv) refers to stm32f0xx_hal_tsc.o(i.HAL_TSC_Start_IT) for HAL_TSC_Start_IT
    tsl_acq_stm32f0xx.o(i._Z20TSL_acq_BankStartAcqv) refers to tsl_acq_stm32f0xx.o(.data) for .data
    tsl_acq_stm32f0xx.o(i._Z20TSL_acq_BankStartAcqv) refers to main_1.o(.bss) for htsc
    tsl_acq_stm32f0xx.o(.ARM.exidx) refers to tsl_acq_stm32f0xx.o(i._Z12TSL_acq_Initv) for i._Z12TSL_acq_Initv
    tsl_acq_stm32f0xx.o(.ARM.exidx) refers to tsl_acq_stm32f0xx.o(i._Z18TSL_acq_BankConfigh) for i._Z18TSL_acq_BankConfigh
    tsl_acq_stm32f0xx.o(.ARM.exidx) refers to tsl_acq_stm32f0xx.o(i._Z9SoftDelayj) for i._Z9SoftDelayj
    tsl_acq_stm32f0xx.o(.ARM.exidx) refers to tsl_acq_stm32f0xx.o(i._Z20TSL_acq_BankStartAcqv) for i._Z20TSL_acq_BankStartAcqv
    tsl_acq_stm32f0xx.o(.ARM.exidx) refers to tsl_acq_stm32f0xx.o(i._Z19TSL_acq_BankWaitEOCv) for i._Z19TSL_acq_BankWaitEOCv
    tsl_acq_stm32f0xx.o(.ARM.exidx) refers to tsl_acq_stm32f0xx.o(i._Z15TSL_acq_GetMeash) for i._Z15TSL_acq_GetMeash
    tsl_acq_stm32f0xx.o(.ARM.exidx) refers to tsl_acq_stm32f0xx.o(i._Z20TSL_acq_ComputeDeltatt) for i._Z20TSL_acq_ComputeDeltatt
    tsl_acq_stm32f0xx.o(.ARM.exidx) refers to tsl_acq_stm32f0xx.o(i._Z19TSL_acq_ComputeMeasts) for i._Z19TSL_acq_ComputeMeasts
    tsl_acq_stm32f0xx.o(.ARM.exidx) refers to tsl_acq_stm32f0xx.o(i._Z18TSL_acq_CheckNoisev) for i._Z18TSL_acq_CheckNoisev
    tsl_acq_stm32f0xx.o(.ARM.exidx) refers to tsl_acq_stm32f0xx.o(i._Z17TSL_acq_UseFilterP17TSL_ChannelData_T) for i._Z17TSL_acq_UseFilterP17TSL_ChannelData_T
    tsl_acq_stm32f0xx.o(.ARM.exidx) refers to tsl_acq_stm32f0xx.o(i._Z31TSL_acq_TestReferenceOutOfRangeP17TSL_ChannelData_T) for i._Z31TSL_acq_TestReferenceOutOfRangeP17TSL_ChannelData_T
    tsl_acq_stm32f0xx.o(.ARM.exidx) refers to tsl_acq_stm32f0xx.o(i._Z33TSL_acq_TestFirstReferenceIsValidP17TSL_ChannelData_Tt) for i._Z33TSL_acq_TestFirstReferenceIsValidP17TSL_ChannelData_Tt
    tsl_dxs.o(.ARM.exidx) refers to tsl_dxs.o(i._Z16TSL_dxs_FirstObjPK17TSL_ObjectGroup_T) for i._Z16TSL_dxs_FirstObjPK17TSL_ObjectGroup_T
    tsl_ecs.o(i._Z13TSL_ecs_CalcKP17TSL_ObjectGroup_Ttt) refers to tsl_object.o(i._Z20TSL_obj_SetGlobalObjPK12TSL_Object_T) for TSL_obj_SetGlobalObj(const TSL_Object_T*)
    tsl_ecs.o(i._Z13TSL_ecs_CalcKP17TSL_ObjectGroup_Ttt) refers to tsl_globals.o(.bss) for TSL_Globals
    tsl_ecs.o(i._Z15TSL_ecs_ProcessP17TSL_ObjectGroup_T) refers to tsl_time.o(i._Z21TSL_tim_CheckDelay_mstPVt) for TSL_tim_CheckDelay_ms(unsigned short, volatile unsigned short*)
    tsl_ecs.o(i._Z15TSL_ecs_ProcessP17TSL_ObjectGroup_T) refers to tsl_ecs.o(i._Z13TSL_ecs_CalcKP17TSL_ObjectGroup_Ttt) for TSL_ecs_CalcK(TSL_ObjectGroup_T*, unsigned short, unsigned short)
    tsl_ecs.o(i._Z15TSL_ecs_ProcessP17TSL_ObjectGroup_T) refers to tsl_ecs.o(i._Z16TSL_ecs_ProcessKP17TSL_ObjectGroup_Tt) for TSL_ecs_ProcessK(TSL_ObjectGroup_T*, unsigned short)
    tsl_ecs.o(i._Z15TSL_ecs_ProcessP17TSL_ObjectGroup_T) refers to tsl_globals.o(.bss) for TSL_Globals
    tsl_ecs.o(i._Z16TSL_ecs_ProcessKP17TSL_ObjectGroup_Tt) refers to tsl_object.o(i._Z20TSL_obj_SetGlobalObjPK12TSL_Object_T) for TSL_obj_SetGlobalObj(const TSL_Object_T*)
    tsl_ecs.o(i._Z16TSL_ecs_ProcessKP17TSL_ObjectGroup_Tt) refers to tsl_acq_stm32f0xx.o(i._Z19TSL_acq_ComputeMeasts) for TSL_acq_ComputeMeas(unsigned short, short)
    tsl_ecs.o(i._Z16TSL_ecs_ProcessKP17TSL_ObjectGroup_Tt) refers to tsl_acq_stm32f0xx.o(i._Z31TSL_acq_TestReferenceOutOfRangeP17TSL_ChannelData_T) for TSL_acq_TestReferenceOutOfRange(TSL_ChannelData_T*)
    tsl_ecs.o(i._Z16TSL_ecs_ProcessKP17TSL_ObjectGroup_Tt) refers to tsl_globals.o(.bss) for TSL_Globals
    tsl_ecs.o(i._Z16TSL_ecs_ProcessKP17TSL_ObjectGroup_Tt) refers to tsl_touchkey.o(i._Z28TSL_tkey_SetStateCalibrationh) for TSL_tkey_SetStateCalibration(unsigned char)
    tsl_ecs.o(.ARM.exidx) refers to tsl_ecs.o(i._Z13TSL_ecs_CalcKP17TSL_ObjectGroup_Ttt) for i._Z13TSL_ecs_CalcKP17TSL_ObjectGroup_Ttt
    tsl_ecs.o(.ARM.exidx) refers to tsl_ecs.o(i._Z16TSL_ecs_ProcessKP17TSL_ObjectGroup_Tt) for i._Z16TSL_ecs_ProcessKP17TSL_ObjectGroup_Tt
    tsl_ecs.o(.ARM.exidx) refers to tsl_ecs.o(i._Z15TSL_ecs_ProcessP17TSL_ObjectGroup_T) for i._Z15TSL_ecs_ProcessP17TSL_ObjectGroup_T
    tsl_filter.o(.ARM.exidx) refers to tsl_filter.o(i._Z19TSL_filt_MeasFiltertt) for i._Z19TSL_filt_MeasFiltertt
    tsl_filter.o(.ARM.exidx) refers to tsl_filter.o(i._Z20TSL_filt_DeltaFilters) for i._Z20TSL_filt_DeltaFilters
    tsl_object.o(i._Z17TSL_obj_GroupInitP17TSL_ObjectGroup_T) refers to tsl_object.o(i._Z20TSL_obj_SetGlobalObjPK12TSL_Object_T) for TSL_obj_SetGlobalObj(const TSL_Object_T*)
    tsl_object.o(i._Z17TSL_obj_GroupInitP17TSL_ObjectGroup_T) refers to tsl_globals.o(.bss) for TSL_Globals
    tsl_object.o(i._Z20TSL_obj_GroupProcessP17TSL_ObjectGroup_T) refers to tsl_object.o(i._Z20TSL_obj_SetGlobalObjPK12TSL_Object_T) for TSL_obj_SetGlobalObj(const TSL_Object_T*)
    tsl_object.o(i._Z20TSL_obj_GroupProcessP17TSL_ObjectGroup_T) refers to tsl_globals.o(.bss) for TSL_Globals
    tsl_object.o(i._Z20TSL_obj_SetGlobalObjPK12TSL_Object_T) refers to tsl_globals.o(.bss) for TSL_Globals
    tsl_object.o(.ARM.exidx) refers to tsl_object.o(i._Z20TSL_obj_SetGlobalObjPK12TSL_Object_T) for i._Z20TSL_obj_SetGlobalObjPK12TSL_Object_T
    tsl_object.o(.ARM.exidx) refers to tsl_object.o(i._Z17TSL_obj_GroupInitP17TSL_ObjectGroup_T) for i._Z17TSL_obj_GroupInitP17TSL_ObjectGroup_T
    tsl_object.o(.ARM.exidx) refers to tsl_object.o(i._Z20TSL_obj_GroupProcessP17TSL_ObjectGroup_T) for i._Z20TSL_obj_GroupProcessP17TSL_ObjectGroup_T
    tsl_time.o(i._Z17TSL_tim_ProcessITv) refers to tsl_globals.o(.bss) for TSL_Globals
    tsl_time.o(i._Z17TSL_tim_ProcessITv) refers to tsl_time.o(.data) for .data
    tsl_time.o(i._Z17TSL_tim_ProcessITv) refers to help.o(.bss) for Global_Tick
    tsl_time.o(i._Z21TSL_tim_CheckDelay_mstPVt) refers to tsl_globals.o(.bss) for TSL_Globals
    tsl_time.o(i._Z22TSL_tim_CheckDelay_sechPVh) refers to tsl_globals.o(.bss) for TSL_Globals
    tsl_time.o(.ARM.exidx) refers to tsl_time.o(i._Z17TSL_tim_ProcessITv) for i._Z17TSL_tim_ProcessITv
    tsl_time.o(.ARM.exidx) refers to tsl_time.o(i._Z21TSL_tim_CheckDelay_mstPVt) for i._Z21TSL_tim_CheckDelay_mstPVt
    tsl_time.o(.ARM.exidx) refers to tsl_time.o(i._Z22TSL_tim_CheckDelay_sechPVh) for i._Z22TSL_tim_CheckDelay_sechPVh
    tsl_time_stm32f0xx.o(i._Z12TSL_tim_Initv) refers to aeabi_sdiv.o(.text) for __aeabi_uidivmod
    tsl_time_stm32f0xx.o(i._Z12TSL_tim_Initv) refers to system_stm32f0xx.o(.data) for SystemCoreClock
    tsl_time_stm32f0xx.o(.ARM.exidx) refers to tsl_time_stm32f0xx.o(i._Z12TSL_tim_Initv) for i._Z12TSL_tim_Initv
    tsl_touchkey.o(i._Z13TSL_tkey_Initv) refers to tsl_touchkey.o(i._Z28TSL_tkey_SetStateCalibrationh) for TSL_tkey_SetStateCalibration(unsigned char)
    tsl_touchkey.o(i._Z13TSL_tkey_Initv) refers to tsl_globals.o(.bss) for TSL_Globals
    tsl_touchkey.o(i._Z16TSL_tkey_Processv) refers to tsl_globals.o(.bss) for TSL_Globals
    tsl_touchkey.o(i._Z18TSL_tkey_IsChangedv) refers to tsl_globals.o(.bss) for TSL_Globals
    tsl_touchkey.o(i._Z19TSL_tkey_DTOGetTimev) refers to tsl_globals.o(.bss) for TSL_Globals
    tsl_touchkey.o(i._Z19TSL_tkey_GetStateIdv) refers to tsl_globals.o(.bss) for TSL_Globals
    tsl_touchkey.o(i._Z20TSL_tkey_SetStateOffv) refers to tsl_globals.o(.bss) for TSL_Globals
    tsl_touchkey.o(i._Z21TSL_tkey_GetStateMaskv) refers to tsl_globals.o(.bss) for TSL_Globals
    tsl_touchkey.o(i._Z25TSL_tkey_ProxStateProcessv) refers to tsl_globals.o(.bss) for TSL_Globals
    tsl_touchkey.o(i._Z26TSL_tkey_SetStateBurstOnlyv) refers to tsl_globals.o(.bss) for TSL_Globals
    tsl_touchkey.o(i._Z26TSL_tkey_TouchStateProcessv) refers to tsl_globals.o(.bss) for TSL_Globals
    tsl_touchkey.o(i._Z27TSL_tkey_DetectStateProcessv) refers to tsl_globals.o(.bss) for TSL_Globals
    tsl_touchkey.o(i._Z28TSL_tkey_DebProxStateProcessv) refers to tsl_globals.o(.bss) for TSL_Globals
    tsl_touchkey.o(i._Z28TSL_tkey_ReleaseStateProcessv) refers to tsl_touchkey.o(i._Z28TSL_tkey_SetStateCalibrationh) for TSL_tkey_SetStateCalibration(unsigned char)
    tsl_touchkey.o(i._Z28TSL_tkey_ReleaseStateProcessv) refers to tsl_globals.o(.bss) for TSL_Globals
    tsl_touchkey.o(i._Z28TSL_tkey_SetStateCalibrationh) refers to tsl_globals.o(.bss) for TSL_Globals
    tsl_touchkey.o(i._Z28TSL_tkey_SetStateCalibrationh) refers to tsl_user.o(.data) for TSL_Params
    tsl_touchkey.o(i._Z28TSL_tkey_SetStateCalibrationh) refers to tsl_touchkey.o(.data) for .data
    tsl_touchkey.o(i._Z29TSL_tkey_DebErrorStateProcessv) refers to tsl_touchkey.o(i._Z21TSL_tkey_GetStateMaskv) for TSL_tkey_GetStateMask()
    tsl_touchkey.o(i._Z29TSL_tkey_DebErrorStateProcessv) refers to tsl_touchkey.o(i._Z28TSL_tkey_SetStateCalibrationh) for TSL_tkey_SetStateCalibration(unsigned char)
    tsl_touchkey.o(i._Z29TSL_tkey_DebErrorStateProcessv) refers to tsl_globals.o(.bss) for TSL_Globals
    tsl_touchkey.o(i._Z30TSL_tkey_DebDetectStateProcessv) refers to tsl_globals.o(.bss) for TSL_Globals
    tsl_touchkey.o(i._Z32TSL_tkey_CalibrationStateProcessv) refers to tsl_acq_stm32f0xx.o(i._Z33TSL_acq_TestFirstReferenceIsValidP17TSL_ChannelData_Tt) for TSL_acq_TestFirstReferenceIsValid(TSL_ChannelData_T*, unsigned short)
    tsl_touchkey.o(i._Z32TSL_tkey_CalibrationStateProcessv) refers to tsl_globals.o(.bss) for TSL_Globals
    tsl_touchkey.o(i._Z32TSL_tkey_CalibrationStateProcessv) refers to tsl_user.o(.data) for TSL_Params
    tsl_touchkey.o(i._Z32TSL_tkey_CalibrationStateProcessv) refers to tsl_touchkey.o(.data) for .data
    tsl_touchkey.o(i._Z33TSL_tkey_DebProxTouchStateProcessv) refers to tsl_globals.o(.bss) for TSL_Globals
    tsl_touchkey.o(i._Z34TSL_tkey_DebProxDetectStateProcessv) refers to tsl_globals.o(.bss) for TSL_Globals
    tsl_touchkey.o(i._Z35TSL_tkey_DebCalibrationStateProcessv) refers to tsl_touchkey.o(i._Z28TSL_tkey_SetStateCalibrationh) for TSL_tkey_SetStateCalibration(unsigned char)
    tsl_touchkey.o(i._Z35TSL_tkey_DebCalibrationStateProcessv) refers to tsl_globals.o(.bss) for TSL_Globals
    tsl_touchkey.o(i._Z35TSL_tkey_DebReleaseProxStateProcessv) refers to tsl_globals.o(.bss) for TSL_Globals
    tsl_touchkey.o(i._Z36TSL_tkey_DebReleaseTouchStateProcessv) refers to tsl_globals.o(.bss) for TSL_Globals
    tsl_touchkey.o(i._Z37TSL_tkey_DebReleaseDetectStateProcessv) refers to tsl_globals.o(.bss) for TSL_Globals
    tsl_touchkey.o(.ARM.exidx) refers to tsl_touchkey.o(i._Z28TSL_tkey_SetStateCalibrationh) for i._Z28TSL_tkey_SetStateCalibrationh
    tsl_touchkey.o(.ARM.exidx) refers to tsl_touchkey.o(i._Z13TSL_tkey_Initv) for i._Z13TSL_tkey_Initv
    tsl_touchkey.o(.ARM.exidx) refers to tsl_touchkey.o(i._Z16TSL_tkey_Processv) for i._Z16TSL_tkey_Processv
    tsl_touchkey.o(.ARM.exidx) refers to tsl_touchkey.o(i._Z20TSL_tkey_SetStateOffv) for i._Z20TSL_tkey_SetStateOffv
    tsl_touchkey.o(.ARM.exidx) refers to tsl_touchkey.o(i._Z26TSL_tkey_SetStateBurstOnlyv) for i._Z26TSL_tkey_SetStateBurstOnlyv
    tsl_touchkey.o(.ARM.exidx) refers to tsl_touchkey.o(i._Z19TSL_tkey_GetStateIdv) for i._Z19TSL_tkey_GetStateIdv
    tsl_touchkey.o(.ARM.exidx) refers to tsl_touchkey.o(i._Z21TSL_tkey_GetStateMaskv) for i._Z21TSL_tkey_GetStateMaskv
    tsl_touchkey.o(.ARM.exidx) refers to tsl_touchkey.o(i._Z18TSL_tkey_IsChangedv) for i._Z18TSL_tkey_IsChangedv
    tsl_touchkey.o(.ARM.exidx) refers to tsl_touchkey.o(i._Z35TSL_tkey_DebReleaseProxStateProcessv) for i._Z35TSL_tkey_DebReleaseProxStateProcessv
    tsl_touchkey.o(.ARM.exidx) refers to tsl_touchkey.o(i._Z37TSL_tkey_DebReleaseDetectStateProcessv) for i._Z37TSL_tkey_DebReleaseDetectStateProcessv
    tsl_touchkey.o(.ARM.exidx) refers to tsl_touchkey.o(i._Z36TSL_tkey_DebReleaseTouchStateProcessv) for i._Z36TSL_tkey_DebReleaseTouchStateProcessv
    tsl_touchkey.o(.ARM.exidx) refers to tsl_touchkey.o(i._Z28TSL_tkey_ReleaseStateProcessv) for i._Z28TSL_tkey_ReleaseStateProcessv
    tsl_touchkey.o(.ARM.exidx) refers to tsl_touchkey.o(i._Z35TSL_tkey_DebCalibrationStateProcessv) for i._Z35TSL_tkey_DebCalibrationStateProcessv
    tsl_touchkey.o(.ARM.exidx) refers to tsl_touchkey.o(i._Z32TSL_tkey_CalibrationStateProcessv) for i._Z32TSL_tkey_CalibrationStateProcessv
    tsl_touchkey.o(.ARM.exidx) refers to tsl_touchkey.o(i._Z28TSL_tkey_DebProxStateProcessv) for i._Z28TSL_tkey_DebProxStateProcessv
    tsl_touchkey.o(.ARM.exidx) refers to tsl_touchkey.o(i._Z34TSL_tkey_DebProxDetectStateProcessv) for i._Z34TSL_tkey_DebProxDetectStateProcessv
    tsl_touchkey.o(.ARM.exidx) refers to tsl_touchkey.o(i._Z33TSL_tkey_DebProxTouchStateProcessv) for i._Z33TSL_tkey_DebProxTouchStateProcessv
    tsl_touchkey.o(.ARM.exidx) refers to tsl_touchkey.o(i._Z25TSL_tkey_ProxStateProcessv) for i._Z25TSL_tkey_ProxStateProcessv
    tsl_touchkey.o(.ARM.exidx) refers to tsl_touchkey.o(i._Z30TSL_tkey_DebDetectStateProcessv) for i._Z30TSL_tkey_DebDetectStateProcessv
    tsl_touchkey.o(.ARM.exidx) refers to tsl_touchkey.o(i._Z27TSL_tkey_DetectStateProcessv) for i._Z27TSL_tkey_DetectStateProcessv
    tsl_touchkey.o(.ARM.exidx) refers to tsl_touchkey.o(i._Z26TSL_tkey_TouchStateProcessv) for i._Z26TSL_tkey_TouchStateProcessv
    tsl_touchkey.o(.ARM.exidx) refers to tsl_touchkey.o(i._Z29TSL_tkey_DebErrorStateProcessv) for i._Z29TSL_tkey_DebErrorStateProcessv
    tsl_touchkey.o(.ARM.exidx) refers to tsl_touchkey.o(i._Z19TSL_tkey_DTOGetTimev) for i._Z19TSL_tkey_DTOGetTimev
    __2sprintf.o(.text) refers to _printf_char_common.o(.text) for _printf_char_common
    __2sprintf.o(.text) refers to _sputc.o(.text) for _sputc
    noretval__2sprintf.o(.text) refers to _printf_char_common.o(.text) for _printf_char_common
    noretval__2sprintf.o(.text) refers to _sputc.o(.text) for _sputc
    __printf.o(.text) refers to _printf_percent.o(.ARM.Collect$$_printf_percent$$00000000) for _printf_percent
    __printf_flags.o(.text) refers to _printf_percent.o(.ARM.Collect$$_printf_percent$$00000000) for _printf_percent
    __printf_flags.o(.text) refers to __printf_flags.o(.constdata) for .constdata
    __printf_ss.o(.text) refers to _printf_percent.o(.ARM.Collect$$_printf_percent$$00000000) for _printf_percent
    __printf_flags_ss.o(.text) refers to _printf_percent.o(.ARM.Collect$$_printf_percent$$00000000) for _printf_percent
    __printf_flags_ss.o(.text) refers to __printf_flags_ss.o(.constdata) for .constdata
    __printf_wp.o(.text) refers to __printf_wp.o(i._is_digit) for _is_digit
    __printf_wp.o(.text) refers to _printf_percent.o(.ARM.Collect$$_printf_percent$$00000000) for _printf_percent
    __printf_flags_wp.o(.text) refers to __printf_wp.o(i._is_digit) for _is_digit
    __printf_flags_wp.o(.text) refers to _printf_percent.o(.ARM.Collect$$_printf_percent$$00000000) for _printf_percent
    __printf_flags_wp.o(.text) refers to __printf_flags_wp.o(.constdata) for .constdata
    __printf_ss_wp.o(.text) refers to __printf_wp.o(i._is_digit) for _is_digit
    __printf_ss_wp.o(.text) refers to _printf_percent.o(.ARM.Collect$$_printf_percent$$00000000) for _printf_percent
    __printf_flags_ss_wp.o(.text) refers to __printf_wp.o(i._is_digit) for _is_digit
    __printf_flags_ss_wp.o(.text) refers to _printf_percent.o(.ARM.Collect$$_printf_percent$$00000000) for _printf_percent
    __printf_flags_ss_wp.o(.text) refers to __printf_flags_ss_wp.o(.constdata) for .constdata
    _printf_f.o(.ARM.Collect$$_printf_percent$$00000003) refers (Weak) to printf1.o(x$fpl$printf1) for _printf_fp_dec
    _printf_percent.o(.ARM.Collect$$_printf_percent$$00000000) refers (Special) to _printf_percent_end.o(.ARM.Collect$$_printf_percent$$00000017) for _printf_percent_end
    atexit_aeabi.o(.text) refers to aeabi_atexit.o(.text) for __aeabi_atexit
    atexit_aeabi.o(.ARM.exidx) refers to atexit_aeabi.o(.text) for .text
    aeabi_atexit.o(.text) refers (Special) to cxa_finalize.o(.text) for __cxa_finalize
    aeabi_atexit.o(.text) refers to h1_alloc.o(.text) for malloc
    aeabi_atexit.o(.text) refers to rt_ddtor_pointer_addr_intlibspace.o(.text) for __rt_ddtor_pointer_addr
    aeabi_atexit.o(.ARM.exidx) refers (Special) to cxa_finalize.o(.text) for __cxa_finalize
    aeabi_atexit.o(.ARM.exidx) refers to aeabi_atexit.o(.text) for .text
    rt_memcpy.o(.text) refers to rt_memcpy.o(.emb_text) for __aeabi_memcpy4
    rt_memmove.o(.text) refers to rt_memcpy.o(.emb_text) for __aeabi_memcpy4
    rt_memmove.o(.text) refers to rt_memcpy.o(.text) for __aeabi_memcpy
    __main.o(!!!main) refers to __rtentry.o(.ARM.Collect$$rtentry$$00000000) for __rt_entry
    init_aeabi.o(.emb_text) refers (Special) to libinit2.o(.ARM.Collect$$libinit$$00000031) for __rt_lib_init_cpp_2
    init_aeabi.o(.init_array) refers (Special) to libinit2.o(.ARM.Collect$$libinit$$00000031) for __rt_lib_init_cpp_2
    init_aeabi.o(.init_array) refers to init_aeabi.o(.text) for __cpp_initialize__aeabi_
    init_aeabi.o(.dummy_text) refers (Special) to libinit2.o(.ARM.Collect$$libinit$$00000031) for __rt_lib_init_cpp_2
    init_aeabi.o(.text) refers (Special) to libinit2.o(.ARM.Collect$$libinit$$00000031) for __rt_lib_init_cpp_2
    init_aeabi.o(.ARM.exidx) refers (Special) to libinit2.o(.ARM.Collect$$libinit$$00000031) for __rt_lib_init_cpp_2
    init_aeabi.o(.ARM.exidx) refers to init_aeabi.o(.text) for .text
    array_del.o(i._ZdaPv) refers to delete.o(i._ZdlPv) for operator delete (void*)
    array_del.o(.ARM.exidx) refers to array_del.o(i._ZdaPv) for i._ZdaPv
    array_new.o(i._Znaj) refers to new.o(i._Znwj) for operator new(unsigned)
    array_new.o(.ARM.exidx) refers to array_new.o(i._Znaj) for i._Znaj
    array_new.o(.ARM.exidx) refers to unwind_pr0.o(.text) for __aeabi_unwind_cpp_pr0
    array_new.o(.ARM.exidx) refers to array_new.o(.ARM.extab) for .extab._Znaj
    array_new.o(.ARM.extab) refers to arm_callunex_noexceptions.o(.text) for __cxa_call_unexpected
    array_new.o(.ARM.extab) refers to bad_alloc_dtor.o(.constdata__ZTISt9bad_alloc) for typeinfo for std::bad_alloc
    delete.o(i._ZdlPv) refers to h1_free.o(.text) for free
    delete.o(.ARM.exidx) refers to delete.o(i._ZdlPv) for i._ZdlPv
    new.o(i._Znwj) refers to rt_new_handler_addr_intlibspace.o(.text) for __rt_new_handler_addr
    new.o(i._Znwj) refers to h1_alloc.o(.text) for malloc
    new.o(i._Znwj) refers to arm_newhandler_noexceptions.o(.text) for __default_new_handler()
    new.o(.ARM.exidx) refers to new.o(i._Znwj) for i._Znwj
    new.o(.ARM.exidx) refers to unwind_pr0.o(.text) for __aeabi_unwind_cpp_pr0
    new.o(.ARM.exidx) refers to new.o(.ARM.extab) for .extab._Znwj
    new.o(.ARM.extab) refers to arm_callunex_noexceptions.o(.text) for __cxa_call_unexpected
    new.o(.ARM.extab) refers to bad_alloc_dtor.o(.constdata__ZTISt9bad_alloc) for typeinfo for std::bad_alloc
    pure_virt.o(i.__cxa_pure_virtual) refers to defsig_pvfn_outer.o(.text) for __rt_SIGPVFN
    pure_virt.o(.ARM.exidx) refers to pure_virt.o(i.__cxa_pure_virtual) for i.__cxa_pure_virtual
    lib_rtti_impl.o(i._ZN10__cxxabiv116__enum_type_infoD0Ev) refers to lib_rtti_impl.o(i._ZN10__cxxabiv116__enum_type_infoD1Ev) for __cxxabiv1::__enum_type_info::~__enum_type_info()
    lib_rtti_impl.o(i._ZN10__cxxabiv117__array_type_infoD0Ev) refers to lib_rtti_impl.o(i._ZN10__cxxabiv117__array_type_infoD1Ev) for __cxxabiv1::__array_type_info::~__array_type_info()
    lib_rtti_impl.o(i._ZN10__cxxabiv117__class_type_infoD0Ev) refers to lib_rtti_impl.o(i._ZN10__cxxabiv117__class_type_infoD1Ev) for __cxxabiv1::__class_type_info::~__class_type_info()
    lib_rtti_impl.o(i._ZN10__cxxabiv117__pbase_type_infoD0Ev) refers to lib_rtti_impl.o(i._ZN10__cxxabiv117__pbase_type_infoD1Ev) for __cxxabiv1::__pbase_type_info::~__pbase_type_info()
    lib_rtti_impl.o(i._ZN10__cxxabiv119__pointer_type_infoD0Ev) refers to lib_rtti_impl.o(i._ZN10__cxxabiv119__pointer_type_infoD1Ev) for __cxxabiv1::__pointer_type_info::~__pointer_type_info()
    lib_rtti_impl.o(i._ZN10__cxxabiv119__pointer_type_infoD1Ev) refers to lib_rtti_impl.o(i._ZN10__cxxabiv117__pbase_type_infoD1Ev) for __cxxabiv1::__pbase_type_info::~__pbase_type_info()
    lib_rtti_impl.o(i._ZN10__cxxabiv120__function_type_infoD0Ev) refers to lib_rtti_impl.o(i._ZN10__cxxabiv120__function_type_infoD1Ev) for __cxxabiv1::__function_type_info::~__function_type_info()
    lib_rtti_impl.o(i._ZN10__cxxabiv120__si_class_type_infoD0Ev) refers to lib_rtti_impl.o(i._ZN10__cxxabiv120__si_class_type_infoD1Ev) for __cxxabiv1::__si_class_type_info::~__si_class_type_info()
    lib_rtti_impl.o(i._ZN10__cxxabiv120__si_class_type_infoD1Ev) refers to lib_rtti_impl.o(i._ZN10__cxxabiv117__class_type_infoD1Ev) for __cxxabiv1::__class_type_info::~__class_type_info()
    lib_rtti_impl.o(i._ZN10__cxxabiv121__vmi_class_type_infoD0Ev) refers to lib_rtti_impl.o(i._ZN10__cxxabiv121__vmi_class_type_infoD1Ev) for __cxxabiv1::__vmi_class_type_info::~__vmi_class_type_info()
    lib_rtti_impl.o(i._ZN10__cxxabiv121__vmi_class_type_infoD1Ev) refers to lib_rtti_impl.o(i._ZN10__cxxabiv117__class_type_infoD1Ev) for __cxxabiv1::__class_type_info::~__class_type_info()
    lib_rtti_impl.o(i._ZN10__cxxabiv123__fundamental_type_infoD0Ev) refers to lib_rtti_impl.o(i._ZN10__cxxabiv123__fundamental_type_infoD1Ev) for __cxxabiv1::__fundamental_type_info::~__fundamental_type_info()
    lib_rtti_impl.o(i._ZN10__cxxabiv129__pointer_to_member_type_infoD0Ev) refers to lib_rtti_impl.o(i._ZN10__cxxabiv129__pointer_to_member_type_infoD1Ev) for __cxxabiv1::__pointer_to_member_type_info::~__pointer_to_member_type_info()
    lib_rtti_impl.o(i._ZN10__cxxabiv129__pointer_to_member_type_infoD1Ev) refers to lib_rtti_impl.o(i._ZN10__cxxabiv117__pbase_type_infoD1Ev) for __cxxabiv1::__pbase_type_info::~__pbase_type_info()
    lib_rtti_impl.o(.ARM.exidx) refers to lib_rtti_impl.o(i._ZN10__cxxabiv123__fundamental_type_infoD1Ev) for i._ZN10__cxxabiv123__fundamental_type_infoD1Ev
    lib_rtti_impl.o(.ARM.exidx) refers to lib_rtti_impl.o(i._ZN10__cxxabiv123__fundamental_type_infoD0Ev) for i._ZN10__cxxabiv123__fundamental_type_infoD0Ev
    lib_rtti_impl.o(.ARM.exidx) refers to lib_rtti_impl.o(i._ZN10__cxxabiv117__array_type_infoD1Ev) for i._ZN10__cxxabiv117__array_type_infoD1Ev
    lib_rtti_impl.o(.ARM.exidx) refers to lib_rtti_impl.o(i._ZN10__cxxabiv117__array_type_infoD0Ev) for i._ZN10__cxxabiv117__array_type_infoD0Ev
    lib_rtti_impl.o(.ARM.exidx) refers to lib_rtti_impl.o(i._ZN10__cxxabiv120__function_type_infoD1Ev) for i._ZN10__cxxabiv120__function_type_infoD1Ev
    lib_rtti_impl.o(.ARM.exidx) refers to lib_rtti_impl.o(i._ZN10__cxxabiv120__function_type_infoD0Ev) for i._ZN10__cxxabiv120__function_type_infoD0Ev
    lib_rtti_impl.o(.ARM.exidx) refers to lib_rtti_impl.o(i._ZN10__cxxabiv116__enum_type_infoD1Ev) for i._ZN10__cxxabiv116__enum_type_infoD1Ev
    lib_rtti_impl.o(.ARM.exidx) refers to lib_rtti_impl.o(i._ZN10__cxxabiv116__enum_type_infoD0Ev) for i._ZN10__cxxabiv116__enum_type_infoD0Ev
    lib_rtti_impl.o(.ARM.exidx) refers to lib_rtti_impl.o(i._ZN10__cxxabiv117__class_type_infoD1Ev) for i._ZN10__cxxabiv117__class_type_infoD1Ev
    lib_rtti_impl.o(.ARM.exidx) refers to lib_rtti_impl.o(i._ZN10__cxxabiv117__class_type_infoD0Ev) for i._ZN10__cxxabiv117__class_type_infoD0Ev
    lib_rtti_impl.o(.ARM.exidx) refers to lib_rtti_impl.o(i._ZN10__cxxabiv120__si_class_type_infoD1Ev) for i._ZN10__cxxabiv120__si_class_type_infoD1Ev
    lib_rtti_impl.o(.ARM.exidx) refers to lib_rtti_impl.o(i._ZN10__cxxabiv120__si_class_type_infoD0Ev) for i._ZN10__cxxabiv120__si_class_type_infoD0Ev
    lib_rtti_impl.o(.ARM.exidx) refers to lib_rtti_impl.o(i._ZN10__cxxabiv121__vmi_class_type_infoD1Ev) for i._ZN10__cxxabiv121__vmi_class_type_infoD1Ev
    lib_rtti_impl.o(.ARM.exidx) refers to lib_rtti_impl.o(i._ZN10__cxxabiv121__vmi_class_type_infoD0Ev) for i._ZN10__cxxabiv121__vmi_class_type_infoD0Ev
    lib_rtti_impl.o(.ARM.exidx) refers to lib_rtti_impl.o(i._ZN10__cxxabiv117__pbase_type_infoD1Ev) for i._ZN10__cxxabiv117__pbase_type_infoD1Ev
    lib_rtti_impl.o(.ARM.exidx) refers to lib_rtti_impl.o(i._ZN10__cxxabiv117__pbase_type_infoD0Ev) for i._ZN10__cxxabiv117__pbase_type_infoD0Ev
    lib_rtti_impl.o(.ARM.exidx) refers to lib_rtti_impl.o(i._ZN10__cxxabiv119__pointer_type_infoD1Ev) for i._ZN10__cxxabiv119__pointer_type_infoD1Ev
    lib_rtti_impl.o(.ARM.exidx) refers to lib_rtti_impl.o(i._ZN10__cxxabiv119__pointer_type_infoD0Ev) for i._ZN10__cxxabiv119__pointer_type_infoD0Ev
    lib_rtti_impl.o(.ARM.exidx) refers to lib_rtti_impl.o(i._ZN10__cxxabiv129__pointer_to_member_type_infoD1Ev) for i._ZN10__cxxabiv129__pointer_to_member_type_infoD1Ev
    lib_rtti_impl.o(.ARM.exidx) refers to lib_rtti_impl.o(i._ZN10__cxxabiv129__pointer_to_member_type_infoD0Ev) for i._ZN10__cxxabiv129__pointer_to_member_type_infoD0Ev
    d2f.o(.text) refers (Special) to usenofp.o(x$fpl$usenofp) for __I$use$fp
    dmul.o(.text) refers (Special) to usenofp.o(x$fpl$usenofp) for __I$use$fp
    f2d.o(.text) refers (Special) to usenofp.o(x$fpl$usenofp) for __I$use$fp
    faddsub.o(x$fpl$fadd) refers (Special) to usenofp.o(x$fpl$usenofp) for __I$use$fp
    faddsub.o(x$fpl$fadd) refers to faddsub.o(x$fpl$fsub) for _fsub1
    faddsub.o(x$fpl$frsb) refers (Special) to usenofp.o(x$fpl$usenofp) for __I$use$fp
    faddsub.o(x$fpl$frsb) refers to faddsub.o(x$fpl$fsub) for _fsub1
    faddsub.o(x$fpl$frsb) refers to faddsub.o(x$fpl$fadd) for _fadd1
    faddsub.o(x$fpl$fsub) refers (Special) to usenofp.o(x$fpl$usenofp) for __I$use$fp
    faddsub.o(x$fpl$fsub) refers to faddsub.o(x$fpl$fadd) for _fadd1
    fdiv.o(.text) refers (Special) to usenofp.o(x$fpl$usenofp) for __I$use$fp
    fdiv.o(.text) refers to fdiv.o(.constdata) for .constdata
    fdiv.o(.constdata) refers (Special) to usenofp.o(x$fpl$usenofp) for __I$use$fp
    ffixui.o(.text) refers (Special) to usenofp.o(x$fpl$usenofp) for __I$use$fp
    fflti.o(.text) refers (Special) to usenofp.o(x$fpl$usenofp) for __I$use$fp
    fmul.o(x$fpl$fmul) refers (Special) to usenofp.o(x$fpl$usenofp) for __I$use$fp
    printf1.o(x$fpl$printf1) refers to _printf_fp_dec.o(.text) for _printf_fp_dec_real
    sqrtf.o(i.__softfp_sqrtf) refers (Special) to usenofp.o(x$fpl$usenofp) for __I$use$fp
    sqrtf.o(i.__softfp_sqrtf) refers to fsqrt.o(.text) for _fsqrt
    sqrtf.o(i.__softfp_sqrtf) refers to _rserrno.o(.text) for __set_errno
    sqrtf.o(i.sqrtf) refers (Special) to usenofp.o(x$fpl$usenofp) for __I$use$fp
    sqrtf.o(i.sqrtf) refers to fsqrt.o(.text) for _fsqrt
    sqrtf.o(i.sqrtf) refers to _rserrno.o(.text) for __set_errno
    sqrtf_x.o(i.____softfp_sqrtf$lsc) refers (Special) to usenofp.o(x$fpl$usenofp) for __I$use$fp
    sqrtf_x.o(i.____softfp_sqrtf$lsc) refers to _rserrno.o(.text) for __set_errno
    sqrtf_x.o(i.____softfp_sqrtf$lsc) refers to fsqrt.o(.text) for _fsqrt
    sqrtf_x.o(i.__sqrtf$lsc) refers (Special) to usenofp.o(x$fpl$usenofp) for __I$use$fp
    sqrtf_x.o(i.__sqrtf$lsc) refers to _rserrno.o(.text) for __set_errno
    sqrtf_x.o(i.__sqrtf$lsc) refers to fsqrt.o(.text) for _fsqrt
    __rtentry.o(.ARM.Collect$$rtentry$$00000000) refers (Special) to __rtentry2.o(.ARM.Collect$$rtentry$$0000000A) for __rt_entry_li
    __rtentry.o(.ARM.Collect$$rtentry$$00000000) refers (Special) to __rtentry2.o(.ARM.Collect$$rtentry$$0000000D) for __rt_entry_main
    __rtentry.o(.ARM.Collect$$rtentry$$00000000) refers (Special) to __rtentry2.o(.ARM.Collect$$rtentry$$0000000C) for __rt_entry_postli_1
    __rtentry.o(.ARM.Collect$$rtentry$$00000000) refers (Special) to __rtentry2.o(.ARM.Collect$$rtentry$$00000009) for __rt_entry_postsh_1
    __rtentry.o(.ARM.Collect$$rtentry$$00000000) refers (Special) to __rtentry2.o(.ARM.Collect$$rtentry$$00000002) for __rt_entry_presh_1
    __rtentry.o(.ARM.Collect$$rtentry$$00000000) refers (Special) to __rtentry4.o(.ARM.Collect$$rtentry$$00000004) for __rt_entry_sh
    aeabi_idiv0_sigfpe.o(.text) refers to rt_div0.o(.text) for __rt_div0
    rt_new_handler_addr.o(.text) refers to rt_new_handler_addr.o(.bss) for __rt_new_handler_addr_data
    rt_new_handler_addr_intlibspace.o(.text) refers to libspace.o(.bss) for __libspace_start
    rt_ddtor_pointer_addr.o(.text) refers to rt_ddtor_pointer_addr.o(.bss) for __rt_ddtor_pointer_addr_data
    rt_ddtor_pointer_addr_intlibspace.o(.text) refers to libspace.o(.bss) for __libspace_start
    malloc.o(.text) refers (Special) to hguard.o(.text) for __heap$guard
    malloc.o(.text) refers (Special) to init_alloc.o(.text) for _init_alloc
    malloc.o(.text) refers to rt_heap_descriptor_intlibspace.o(.text) for __rt_heap_descriptor
    free.o(.text) refers (Special) to hguard.o(.text) for __heap$guard
    free.o(.text) refers to rt_heap_descriptor_intlibspace.o(.text) for __rt_heap_descriptor
    h1_alloc.o(.text) refers (Special) to h1_init.o(.text) for __Heap_Initialize
    h1_alloc.o(.text) refers to rt_heap_descriptor_intlibspace.o(.text) for __rt_heap_descriptor
    h1_alloc.o(.text) refers to init_alloc.o(.text) for __Heap_Full
    h1_free.o(.text) refers to rt_heap_descriptor_intlibspace.o(.text) for __rt_heap_descriptor
    h1_alloc_mt.o(.text) refers (Special) to h1_init.o(.text) for __Heap_Initialize
    h1_alloc_mt.o(.text) refers to init_alloc.o(.text) for __Heap_Full
    h1_alloc_mt.o(.text) refers to rt_heap_descriptor_intlibspace.o(.text) for __rt_heap_descriptor
    h1_free_mt.o(.text) refers to rt_heap_descriptor_intlibspace.o(.text) for __rt_heap_descriptor
    heap2.o(i._FDIterate) refers to heap2.o(.conststring) for .conststring
    heap2.o(i.___Heap_ProvideMemory$realtime) refers to fdtree.o(i._FDTree_Delete) for _FDTree_Delete
    heap2.o(i.___Heap_ProvideMemory$realtime) refers to fdtree.o(i._FDTree_Insert) for _FDTree_Insert
    heap2.o(i.___Heap_Stats$realtime) refers to heap2.o(i._Heap2_StatsIterate) for _Heap2_StatsIterate
    heap2.o(i.___Heap_Stats$realtime) refers to aeabi_sdiv.o(.text) for __aeabi_uidivmod
    heap2.o(i.___Heap_Valid$realtime) refers to heap2.o(i._FDIterate) for _FDIterate
    heap2.o(i.___Heap_Valid$realtime) refers to heap2.o(.conststring) for .conststring
    heap2.o(i._free$realtime) refers to rt_heap_descriptor_intlibspace.o(.text) for __rt_heap_descriptor
    heap2.o(i._free$realtime) refers to fdtree.o(i._FDTree_Delete) for _FDTree_Delete
    heap2.o(i._free$realtime) refers to fdtree.o(i._FDTree_Insert) for _FDTree_Insert
    heap2.o(i._malloc$realtime) refers to rt_heap_descriptor_intlibspace.o(.text) for __rt_heap_descriptor
    heap2.o(i._malloc$realtime) refers to fdtree.o(i._FDTree_FindFirst) for _FDTree_FindFirst
    heap2.o(i._malloc$realtime) refers to init_alloc.o(.text) for __Heap_Full
    heap2.o(i._malloc$realtime) refers to fdtree.o(i._FDTree_RemoveNode) for _FDTree_RemoveNode
    heap2.o(i._malloc$realtime) refers to fdtree.o(i._FDTree_Insert) for _FDTree_Insert
    heap2.o(i._posix_memalign$realtime) refers to rt_heap_descriptor_intlibspace.o(.text) for __rt_heap_descriptor
    heap2.o(i._posix_memalign$realtime) refers to fdtree.o(i._FDTree_FindFirst) for _FDTree_FindFirst
    heap2.o(i._posix_memalign$realtime) refers to init_alloc.o(.text) for __Heap_Full
    heap2.o(i._posix_memalign$realtime) refers to fdtree.o(i._FDTree_RemoveNode) for _FDTree_RemoveNode
    heap2.o(i._posix_memalign$realtime) refers to fdtree.o(i._FDTree_Insert) for _FDTree_Insert
    heap2.o(i._realloc$realtime) refers to rt_heap_descriptor_intlibspace.o(.text) for __rt_heap_descriptor
    heap2.o(i._realloc$realtime) refers to h1_free.o(.text) for free
    heap2.o(i._realloc$realtime) refers to h1_alloc.o(.text) for malloc
    heap2.o(i._realloc$realtime) refers to fdtree.o(i._FDTree_Delete) for _FDTree_Delete
    heap2.o(i._realloc$realtime) refers to fdtree.o(i._FDTree_Insert) for _FDTree_Insert
    heap2.o(i._realloc$realtime) refers to rt_memcpy.o(.emb_text) for __aeabi_memcpy4
    heap2mt.o(i._FDIterate) refers to heap2mt.o(.conststring) for .conststring
    heap2mt.o(i.___Heap_ProvideMemory$realtime$concurrent) refers to fdtree.o(i._FDTree_Delete) for _FDTree_Delete
    heap2mt.o(i.___Heap_ProvideMemory$realtime$concurrent) refers to fdtree.o(i._FDTree_Insert) for _FDTree_Insert
    heap2mt.o(i.___Heap_Stats$realtime$concurrent) refers to heap2mt.o(i._Heap2_StatsIterate) for _Heap2_StatsIterate
    heap2mt.o(i.___Heap_Stats$realtime$concurrent) refers to aeabi_sdiv.o(.text) for __aeabi_uidivmod
    heap2mt.o(i.___Heap_Valid$realtime$concurrent) refers to heap2mt.o(i._FDIterate) for _FDIterate
    heap2mt.o(i.___Heap_Valid$realtime$concurrent) refers to heap2mt.o(.conststring) for .conststring
    heap2mt.o(i._free$realtime$concurrent) refers to rt_heap_descriptor_intlibspace.o(.text) for __rt_heap_descriptor
    heap2mt.o(i._free$realtime$concurrent) refers to fdtree.o(i._FDTree_Delete) for _FDTree_Delete
    heap2mt.o(i._free$realtime$concurrent) refers to fdtree.o(i._FDTree_Insert) for _FDTree_Insert
    heap2mt.o(i._malloc$realtime$concurrent) refers to rt_heap_descriptor_intlibspace.o(.text) for __rt_heap_descriptor
    heap2mt.o(i._malloc$realtime$concurrent) refers to fdtree.o(i._FDTree_FindFirst) for _FDTree_FindFirst
    heap2mt.o(i._malloc$realtime$concurrent) refers to init_alloc.o(.text) for __Heap_Full
    heap2mt.o(i._malloc$realtime$concurrent) refers to fdtree.o(i._FDTree_RemoveNode) for _FDTree_RemoveNode
    heap2mt.o(i._malloc$realtime$concurrent) refers to fdtree.o(i._FDTree_Insert) for _FDTree_Insert
    heap2mt.o(i._posix_memalign$realtime$concurrent) refers to rt_heap_descriptor_intlibspace.o(.text) for __rt_heap_descriptor
    heap2mt.o(i._posix_memalign$realtime$concurrent) refers to fdtree.o(i._FDTree_FindFirst) for _FDTree_FindFirst
    heap2mt.o(i._posix_memalign$realtime$concurrent) refers to init_alloc.o(.text) for __Heap_Full
    heap2mt.o(i._posix_memalign$realtime$concurrent) refers to fdtree.o(i._FDTree_RemoveNode) for _FDTree_RemoveNode
    heap2mt.o(i._posix_memalign$realtime$concurrent) refers to fdtree.o(i._FDTree_Insert) for _FDTree_Insert
    heap2mt.o(i._realloc$realtime$concurrent) refers to rt_heap_descriptor_intlibspace.o(.text) for __rt_heap_descriptor
    heap2mt.o(i._realloc$realtime$concurrent) refers to h1_free.o(.text) for free
    heap2mt.o(i._realloc$realtime$concurrent) refers to h1_alloc.o(.text) for malloc
    heap2mt.o(i._realloc$realtime$concurrent) refers to fdtree.o(i._FDTree_Delete) for _FDTree_Delete
    heap2mt.o(i._realloc$realtime$concurrent) refers to fdtree.o(i._FDTree_Insert) for _FDTree_Insert
    heap2mt.o(i._realloc$realtime$concurrent) refers to rt_memcpy.o(.emb_text) for __aeabi_memcpy4
    _rserrno.o(.text) refers to rt_errno_addr_intlibspace.o(.text) for __aeabi_errno_addr
    _printf_fp_dec.o(.text) refers (Special) to usenofp.o(x$fpl$usenofp) for __I$use$fp
    _printf_fp_dec.o(.text) refers (Special) to lc_numeric_c.o(locale$$code) for _get_lc_numeric
    _printf_fp_dec.o(.text) refers to bigflt0.o(.text) for _btod_etento
    _printf_fp_dec.o(.text) refers to btod.o(.text) for _btod_d2e
    _printf_fp_dec.o(.text) refers to lludiv10.o(.text) for _ll_udiv10
    _printf_fp_dec.o(.text) refers to fpclassify.o(i.__ARM_fpclassify) for __ARM_fpclassify
    _printf_fp_dec.o(.text) refers to _printf_fp_infnan.o(.text) for _printf_fp_infnan
    _printf_fp_dec.o(.text) refers to rtudiv10.o(.text) for __rt_udiv10
    _printf_fp_dec.o(.text) refers (Weak) to _printf_pad.o(.text) for _printf_pre_padding
    _printf_fp_dec.o(.text) refers (Weak) to _printf_pad.o(.text) for _printf_pre_padding
    _printf_fp_dec.o(.text) refers to rt_locale_intlibspace.o(.text) for __rt_locale
    _printf_fp_dec.o(.text) refers (Weak) to _printf_pad.o(.text) for _printf_post_padding
    _printf_char_common.o(.text) refers to __printf_wp.o(.text) for __printf
    cxa_finalize.o(.text) refers (Special) to libshutdown2.o(.ARM.Collect$$libshutdown$$00000001) for __rt_lib_shutdown_cpp_2
    cxa_finalize.o(.text) refers to rt_ddtor_pointer_addr_intlibspace.o(.text) for __rt_ddtor_pointer_addr
    cxa_finalize.o(.text) refers to h1_free.o(.text) for free
    cxa_finalize.o(.ARM.exidx) refers (Special) to libshutdown2.o(.ARM.Collect$$libshutdown$$00000001) for __rt_lib_shutdown_cpp_2
    cxa_finalize.o(.ARM.exidx) refers to cxa_finalize.o(.text) for .text
    defsig_pvfn_outer.o(.text) refers to defsig_pvfn_inner.o(.text) for __rt_SIGPVFN_inner
    defsig_pvfn_outer.o(.text) refers to defsig_exit.o(.text) for __sig_exit
    defsig_pvfn_formal.o(.text) refers to rt_raise.o(.text) for __rt_raise
    libinit2.o(.ARM.Collect$$libinit$$00000005) refers (Weak) to init_alloc.o(.text) for _init_alloc
    libinit2.o(.ARM.Collect$$libinit$$0000000F) refers (Weak) to rt_locale_intlibspace.o(.text) for __rt_locale
    libinit2.o(.ARM.Collect$$libinit$$00000010) refers to libinit2.o(.ARM.Collect$$libinit$$0000000F) for .ARM.Collect$$libinit$$0000000F
    libinit2.o(.ARM.Collect$$libinit$$00000012) refers to libinit2.o(.ARM.Collect$$libinit$$0000000F) for .ARM.Collect$$libinit$$0000000F
    libinit2.o(.ARM.Collect$$libinit$$00000014) refers to libinit2.o(.ARM.Collect$$libinit$$0000000F) for .ARM.Collect$$libinit$$0000000F
    libinit2.o(.ARM.Collect$$libinit$$00000016) refers to libinit2.o(.ARM.Collect$$libinit$$0000000F) for .ARM.Collect$$libinit$$0000000F
    libinit2.o(.ARM.Collect$$libinit$$00000016) refers (Weak) to lc_numeric_c.o(locale$$code) for _get_lc_numeric
    libinit2.o(.ARM.Collect$$libinit$$00000018) refers to libinit2.o(.ARM.Collect$$libinit$$0000000F) for .ARM.Collect$$libinit$$0000000F
    libinit2.o(.ARM.Collect$$libinit$$00000026) refers to argv_veneer.o(.text) for __ARM_argv_veneer
    libinit2.o(.ARM.Collect$$libinit$$00000027) refers to argv_veneer.o(.text) for __ARM_argv_veneer
    libinit2.o(.ARM.Collect$$libinit$$00000031) refers (Weak) to init_aeabi.o(.text) for __cpp_initialize__aeabi_
    arm_callunex_noexceptions.o(.ARM.exidx) refers to arm_callunex_noexceptions.o(.text) for .text
    arm_newhandler_noexceptions.o(.text) refers to arm_exceptions_terminate.o(.text) for std::terminate()
    arm_newhandler_noexceptions.o(.ARM.exidx) refers to arm_newhandler_noexceptions.o(.text) for .text
    bad_alloc_dtor.o(i._ZNSt9bad_allocD0Ev) refers to bad_alloc_dtor.o(i._ZNSt9bad_allocD1Ev) for std::bad_alloc::~bad_alloc()
    bad_alloc_dtor.o(i._ZNSt9bad_allocD0Ev) refers to delete.o(i._ZdlPv) for operator delete (void*)
    bad_alloc_dtor.o(.ARM.exidx) refers to bad_alloc_dtor.o(i._ZNSt9bad_allocD1Ev) for i._ZNSt9bad_allocD1Ev
    bad_alloc_dtor.o(.ARM.exidx) refers to bad_alloc_dtor.o(i._ZNSt9bad_allocD0Ev) for i._ZNSt9bad_allocD0Ev
    type_info_dtor.o(.ARM.exidx) refers to type_info_dtor.o(i._ZNSt9type_infoD1Ev) for i._ZNSt9type_infoD1Ev
    type_info_dtor.o(.ARM.exidx) refers to type_info_dtor.o(i._ZNSt9type_infoD0Ev) for i._ZNSt9type_infoD0Ev
    arm_exceptions_callterm.o(.text) refers to arm_exceptions_globs.o(.text) for __cxa_get_globals
    arm_exceptions_callterm.o(.text) refers to arm_exceptions_support.o(.text) for __ARM::is_foreign_exception(_Unwind_Control_Block*)
    arm_exceptions_callterm.o(.text) refers to arm_exceptions_terminate.o(.text) for std::terminate()
    arm_exceptions_callterm.o(.ARM.exidx) refers to arm_exceptions_callterm.o(.text) for .text
    unwind_pr0.o(.text) refers to unwind_prcommon.o(.text) for __ARM_unwind_cpp_prcommon
    unwind_pr0.o(.ARM.exidx) refers to unwind_pr0.o(.text) for .text
    fsqrt.o(.text) refers (Special) to usenofp.o(x$fpl$usenofp) for __I$use$fp
    libspace.o(.text) refers to libspace.o(.bss) for __libspace_start
    __rtentry2.o(.ARM.Collect$$rtentry$$00000008) refers to boardinit2.o(.text) for _platform_post_stackheap_init
    __rtentry2.o(.ARM.Collect$$rtentry$$0000000A) refers to libinit.o(.ARM.Collect$$libinit$$00000000) for __rt_lib_init
    __rtentry2.o(.ARM.Collect$$rtentry$$0000000B) refers to boardinit3.o(.text) for _platform_post_lib_init
    __rtentry2.o(.ARM.Collect$$rtentry$$0000000D) refers to main_1.o(i.main) for main
    __rtentry2.o(.ARM.Collect$$rtentry$$0000000D) refers to exit.o(.text) for exit
    __rtentry2.o(.ARM.exidx) refers to __rtentry2.o(.ARM.Collect$$rtentry$$00000001) for .ARM.Collect$$rtentry$$00000001
    __rtentry2.o(.ARM.exidx) refers to __rtentry2.o(.ARM.Collect$$rtentry$$00000008) for .ARM.Collect$$rtentry$$00000008
    __rtentry2.o(.ARM.exidx) refers to __rtentry2.o(.ARM.Collect$$rtentry$$0000000A) for .ARM.Collect$$rtentry$$0000000A
    __rtentry2.o(.ARM.exidx) refers to __rtentry2.o(.ARM.Collect$$rtentry$$0000000B) for .ARM.Collect$$rtentry$$0000000B
    __rtentry2.o(.ARM.exidx) refers to __rtentry2.o(.ARM.Collect$$rtentry$$0000000D) for .ARM.Collect$$rtentry$$0000000D
    __rtentry4.o(.ARM.Collect$$rtentry$$00000004) refers to sys_stackheap_outer.o(.text) for __user_setup_stackheap
    __rtentry4.o(.ARM.exidx) refers to __rtentry4.o(.ARM.Collect$$rtentry$$00000004) for .ARM.Collect$$rtentry$$00000004
    rt_div0.o(.text) refers to defsig_fpe_outer.o(.text) for __rt_SIGFPE
    rt_raise.o(.text) refers to __raise.o(.text) for __raise
    rt_raise.o(.text) refers to sys_exit.o(.text) for _sys_exit
    rt_heap_descriptor.o(.text) refers to rt_heap_descriptor.o(.bss) for __rt_heap_descriptor_data
    rt_heap_descriptor_intlibspace.o(.text) refers to libspace.o(.bss) for __libspace_start
    rt_locale.o(.text) refers to rt_locale.o(.bss) for __rt_locale_data
    rt_locale_intlibspace.o(.text) refers to libspace.o(.bss) for __libspace_start
    rt_errno_addr.o(.text) refers to rt_errno_addr.o(.bss) for __aeabi_errno_addr_data
    rt_errno_addr_intlibspace.o(.text) refers to libspace.o(.bss) for __libspace_start
    init_alloc.o(.text) refers (Special) to hguard.o(.text) for __heap$guard
    init_alloc.o(.text) refers (Special) to libinit2.o(.ARM.Collect$$libinit$$00000005) for __rt_lib_init_heap_2
    init_alloc.o(.text) refers (Special) to maybetermalloc1.o(.emb_text) for _maybe_terminate_alloc
    init_alloc.o(.text) refers to h1_extend.o(.text) for __Heap_ProvideMemory
    init_alloc.o(.text) refers to defsig_rtmem_outer.o(.text) for __rt_SIGRTMEM
    init_alloc.o(.text) refers to rt_heap_descriptor_intlibspace.o(.text) for __rt_heap_descriptor
    init_alloc.o(.text) refers to h1_init.o(.text) for __Heap_Initialize
    _printf_fp_infnan.o(.text) refers (Weak) to _printf_pad.o(.text) for _printf_pre_padding
    _printf_fp_infnan.o(.text) refers (Weak) to _printf_pad.o(.text) for _printf_post_padding
    bigflt0.o(.text) refers (Special) to usenofp.o(x$fpl$usenofp) for __I$use$fp
    bigflt0.o(.text) refers to aeabi_sdiv.o(.text) for __aeabi_idivmod
    bigflt0.o(.text) refers to btod.o(.text) for _btod_emul
    bigflt0.o(.text) refers to bigflt0.o(.constdata) for .constdata
    bigflt0.o(.constdata) refers (Special) to usenofp.o(x$fpl$usenofp) for __I$use$fp
    btod.o(.text) refers to btod.o(i.__ARM_common_ll_muluu) for __ARM_common_ll_muluu
    lc_numeric_c.o(locale$$data) refers (Special) to libinit2.o(.ARM.Collect$$libinit$$00000016) for __rt_lib_init_lc_numeric_2
    lc_numeric_c.o(locale$$code) refers (Special) to libinit2.o(.ARM.Collect$$libinit$$00000016) for __rt_lib_init_lc_numeric_2
    lc_numeric_c.o(locale$$code) refers to strcmp.o(.text) for strcmp
    lc_numeric_c.o(locale$$code) refers to lc_numeric_c.o(locale$$data) for __lcnum_c_name
    defsig_exit.o(.text) refers to sys_exit.o(.text) for _sys_exit
    defsig_pvfn_inner.o(.text) refers to defsig_general.o(.text) for __default_signal_display
    _get_argv.o(.text) refers (Special) to hrguard.o(.text) for __heap_region$guard
    _get_argv.o(.text) refers to h1_alloc.o(.text) for malloc
    _get_argv.o(.text) refers to defsig_rtmem_outer.o(.text) for __rt_SIGRTMEM
    _get_argv.o(.text) refers to sys_command.o(.text) for _sys_command_string
    libshutdown2.o(.ARM.Collect$$libshutdown$$00000001) refers (Weak) to cxa_finalize.o(.text) for __cxa_finalize
    libshutdown2.o(.ARM.Collect$$libshutdown$$0000000D) refers (Weak) to term_alloc.o(.text) for _terminate_alloc
    arm_begincatch_noexceptions.o(.ARM.exidx) refers to arm_begincatch_noexceptions.o(.text) for .text
    bad_alloc_what.o(.ARM.exidx) refers to bad_alloc_what.o(i._ZNKSt9bad_alloc4whatEv) for i._ZNKSt9bad_alloc4whatEv
    exception_dtor.o(i._ZNSt9exceptionD0Ev) refers to delete.o(i._ZdlPv) for operator delete (void*)
    exception_dtor.o(.ARM.exidx) refers to exception_dtor.o(i._ZNSt9exceptionD1Ev) for i._ZNSt9exceptionD1Ev
    exception_dtor.o(.ARM.exidx) refers to exception_dtor.o(i._ZNSt9exceptionD0Ev) for i._ZNSt9exceptionD0Ev
    arm_exceptions_terminate.o(.text) refers to arm_exceptions_globs.o(.text) for __cxa_get_globals
    arm_exceptions_terminate.o(.text) refers to abort.o(.text) for abort
    arm_exceptions_terminate.o(.ARM.exidx) refers to arm_exceptions_terminate.o(.text) for .text
    arm_exceptions_support.o(.text) refers to arm_exceptions_support.o(.constdata) for .constdata
    arm_exceptions_support.o(.ARM.exidx) refers to arm_exceptions_support.o(.text) for .text
    arm_exceptions_globs.o(.text) refers to abort.o(.text) for abort
    arm_exceptions_globs.o(.text) refers to rt_eh_globals_addr_intlibspace.o(.text) for __rt_eh_globals_addr
    arm_exceptions_globs.o(.text) refers to h1_alloc.o(.text) for malloc
    arm_exceptions_globs.o(.text) refers to arm_exceptions_mem.o(.text) for __ARM_exceptions_buffer_init
    arm_exceptions_globs.o(.ARM.exidx) refers to arm_exceptions_globs.o(.text) for .text
    unwind_prcommon.o(.text) refers to unwinder.o(.text) for _Unwind_VRS_Get
    unwind_prcommon.o(.text) refers to unwind_activity.o(.emb_text) for _Unwind_Activity
    unwind_prcommon.o(.text) refers (Weak) to arm_callunex_noexceptions.o(.text) for __cxa_call_unexpected
    unwind_prcommon.o(.ARM.exidx) refers to unwind_prcommon.o(.text) for .text
    ieee_status.o(.text) refers (Special) to usenofp.o(x$fpl$usenofp) for __I$use$fp
    fpclassify.o(i.__ARM_fpclassify) refers (Special) to usenofp.o(x$fpl$usenofp) for __I$use$fp
    sys_command.o(.text) refers (Special) to use_no_semi.o(.text) for __I$use$semihosting
    sys_command.o(.text) refers (Special) to indicate_semi.o(.text) for __semihosting_library_function
    sys_exit.o(.text) refers (Special) to use_no_semi.o(.text) for __I$use$semihosting
    sys_exit.o(.text) refers (Special) to indicate_semi.o(.text) for __semihosting_library_function
    sys_stackheap_outer.o(.text) refers to libspace.o(.text) for __user_perproc_libspace
    sys_stackheap_outer.o(.text) refers to startup_stm32f071xb.o(.text) for __user_initial_stackheap
    sys_stackheap_outer.o(__vectab_stack_and_reset_area) refers to tempstk.o(.text) for __temporary_stack_top
    sys_stackheap_outer.o(__vectab_stack_and_reset_area) refers to __main.o(!!!main) for __main
    rt_eh_globals_addr.o(.text) refers to rt_eh_globals_addr.o(.bss) for __rt_eh_globals_addr_data
    rt_eh_globals_addr_intlibspace.o(.text) refers to libspace.o(.bss) for __libspace_start
    maybetermalloc2.o(.emb_text) refers (Special) to term_alloc.o(.text) for _terminate_alloc
    h1_extend.o(.text) refers to h1_free.o(.text) for free
    h1_extend_mt.o(.text) refers to h1_free_mt.o(.text) for _free_internal
    exit.o(.text) refers to rtexit.o(.ARM.Collect$$rtexit$$00000000) for __rt_exit
    abort.o(.text) refers to defsig_abrt_outer.o(.text) for __rt_SIGABRT
    abort.o(.text) refers (Weak) to libshutdown.o(.ARM.Collect$$libshutdown$$00000000) for __rt_lib_shutdown
    abort.o(.text) refers to sys_exit.o(.text) for _sys_exit
    __raise.o(.text) refers to defsig.o(CL$$defsig) for __default_signal_handler
    defsig_general.o(.text) refers to sys_wrch.o(.text) for _ttywrch
    defsig_fpe_outer.o(.text) refers to defsig_fpe_inner.o(.text) for __rt_SIGFPE_inner
    defsig_fpe_outer.o(.text) refers to defsig_exit.o(.text) for __sig_exit
    defsig_fpe_formal.o(.text) refers to rt_raise.o(.text) for __rt_raise
    defsig_rtmem_outer.o(.text) refers to defsig_rtmem_inner.o(.text) for __rt_SIGRTMEM_inner
    defsig_rtmem_outer.o(.text) refers to defsig_exit.o(.text) for __sig_exit
    defsig_rtmem_formal.o(.text) refers to rt_raise.o(.text) for __rt_raise
    heapauxa.o(.text) refers to heapauxa.o(.data) for .data
    _get_argv_nomalloc.o(.text) refers (Special) to hrguard.o(.text) for __heap_region$guard
    _get_argv_nomalloc.o(.text) refers to defsig_rtmem_outer.o(.text) for __rt_SIGRTMEM
    _get_argv_nomalloc.o(.text) refers to sys_command.o(.text) for _sys_command_string
    libinit.o(.ARM.Collect$$libinit$$00000000) refers (Special) to libinit2.o(.ARM.Collect$$libinit$$0000002E) for __rt_lib_init_alloca_1
    libinit.o(.ARM.Collect$$libinit$$00000000) refers (Special) to libinit2.o(.ARM.Collect$$libinit$$0000002C) for __rt_lib_init_argv_1
    libinit.o(.ARM.Collect$$libinit$$00000000) refers (Special) to libinit2.o(.ARM.Collect$$libinit$$0000001B) for __rt_lib_init_atexit_1
    libinit.o(.ARM.Collect$$libinit$$00000000) refers (Special) to libinit2.o(.ARM.Collect$$libinit$$00000021) for __rt_lib_init_clock_1
    libinit.o(.ARM.Collect$$libinit$$00000000) refers (Special) to libinit2.o(.ARM.Collect$$libinit$$00000032) for __rt_lib_init_cpp_1
    libinit.o(.ARM.Collect$$libinit$$00000000) refers (Special) to libinit2.o(.ARM.Collect$$libinit$$00000030) for __rt_lib_init_exceptions_1
    libinit.o(.ARM.Collect$$libinit$$00000000) refers (Special) to libinit2.o(.ARM.Collect$$libinit$$00000002) for __rt_lib_init_fp_1
    libinit.o(.ARM.Collect$$libinit$$00000000) refers (Special) to libinit2.o(.ARM.Collect$$libinit$$0000001F) for __rt_lib_init_fp_trap_1
    libinit.o(.ARM.Collect$$libinit$$00000000) refers (Special) to libinit2.o(.ARM.Collect$$libinit$$00000023) for __rt_lib_init_getenv_1
    libinit.o(.ARM.Collect$$libinit$$00000000) refers (Special) to libinit2.o(.ARM.Collect$$libinit$$0000000A) for __rt_lib_init_heap_1
    libinit.o(.ARM.Collect$$libinit$$00000000) refers (Special) to libinit2.o(.ARM.Collect$$libinit$$00000011) for __rt_lib_init_lc_collate_1
    libinit.o(.ARM.Collect$$libinit$$00000000) refers (Special) to libinit2.o(.ARM.Collect$$libinit$$00000013) for __rt_lib_init_lc_ctype_1
    libinit.o(.ARM.Collect$$libinit$$00000000) refers (Special) to libinit2.o(.ARM.Collect$$libinit$$00000015) for __rt_lib_init_lc_monetary_1
    libinit.o(.ARM.Collect$$libinit$$00000000) refers (Special) to libinit2.o(.ARM.Collect$$libinit$$00000017) for __rt_lib_init_lc_numeric_1
    libinit.o(.ARM.Collect$$libinit$$00000000) refers (Special) to libinit2.o(.ARM.Collect$$libinit$$00000019) for __rt_lib_init_lc_time_1
    libinit.o(.ARM.Collect$$libinit$$00000000) refers (Special) to libinit2.o(.ARM.Collect$$libinit$$00000004) for __rt_lib_init_preinit_1
    libinit.o(.ARM.Collect$$libinit$$00000000) refers (Special) to libinit2.o(.ARM.Collect$$libinit$$0000000E) for __rt_lib_init_rand_1
    libinit.o(.ARM.Collect$$libinit$$00000000) refers (Special) to libinit2.o(.ARM.Collect$$libinit$$00000033) for __rt_lib_init_return
    libinit.o(.ARM.Collect$$libinit$$00000000) refers (Special) to libinit2.o(.ARM.Collect$$libinit$$0000001D) for __rt_lib_init_signal_1
    libinit.o(.ARM.Collect$$libinit$$00000000) refers (Special) to libinit2.o(.ARM.Collect$$libinit$$00000025) for __rt_lib_init_stdio_1
    libinit.o(.ARM.Collect$$libinit$$00000000) refers (Special) to libinit2.o(.ARM.Collect$$libinit$$0000000C) for __rt_lib_init_user_alloc_1
    exception_what.o(.ARM.exidx) refers to exception_what.o(i._ZNKSt9exception4whatEv) for i._ZNKSt9exception4whatEv
    arm_exceptions_mem.o(.text) refers to h1_alloc.o(.text) for malloc
    arm_exceptions_mem.o(.ARM.exidx) refers to arm_exceptions_mem.o(.text) for .text
    unwinder.o(.emb_text) refers to unwinder.o(.text) for __ARM_Unwind_RaiseException
    unwinder.o(.text) refers to bsearchnoex.o(.text) for bsearch
    unwinder.o(.text) refers to unwind_activity.o(.emb_text) for _Unwind_Activity
    unwinder.o(.text) refers to abort.o(.text) for abort
    unwinder.o(.text) refers to unwinder.o(.emb_text) for __ARM_Unwind_VRS_corerestore
    unwinder.o(.text) refers to h1_alloc.o(.text) for malloc
    unwinder.o(.text) refers to rt_memcpy.o(.emb_text) for __aeabi_memcpy4
    unwinder.o(.text) refers to h1_free.o(.text) for free
    unwinder.o(.text) refers (Weak) to unwind_pr0.o(.text) for __aeabi_unwind_cpp_pr0
    unwinder.o(.ARM.exidx) refers to unwinder.o(.text) for .text
    sys_wrch.o(.text) refers (Special) to use_no_semi.o(.text) for __I$use$semihosting
    sys_wrch.o(.text) refers (Special) to indicate_semi.o(.text) for __semihosting_library_function
    rtexit.o(.ARM.Collect$$rtexit$$00000000) refers (Special) to rtexit2.o(.ARM.Collect$$rtexit$$00000004) for __rt_exit_exit
    rtexit.o(.ARM.Collect$$rtexit$$00000000) refers (Special) to rtexit2.o(.ARM.Collect$$rtexit$$00000003) for __rt_exit_ls
    rtexit.o(.ARM.Collect$$rtexit$$00000000) refers (Special) to rtexit2.o(.ARM.Collect$$rtexit$$00000002) for __rt_exit_prels_1
    rtexit.o(.ARM.exidx) refers (Special) to rtexit2.o(.ARM.Collect$$rtexit$$00000004) for __rt_exit_exit
    rtexit.o(.ARM.exidx) refers (Special) to rtexit2.o(.ARM.Collect$$rtexit$$00000003) for __rt_exit_ls
    rtexit.o(.ARM.exidx) refers (Special) to rtexit2.o(.ARM.Collect$$rtexit$$00000002) for __rt_exit_prels_1
    rtexit.o(.ARM.exidx) refers to rtexit.o(.ARM.Collect$$rtexit$$00000000) for .ARM.Collect$$rtexit$$00000000
    term_alloc.o(.text) refers (Special) to libshutdown2.o(.ARM.Collect$$libshutdown$$0000000E) for __rt_lib_shutdown_heap_2
    term_alloc.o(.text) refers to rt_heap_descriptor_intlibspace.o(.text) for __rt_heap_descriptor
    defsig_abrt_outer.o(.text) refers to defsig_abrt_inner.o(.text) for __rt_SIGABRT_inner
    defsig_abrt_outer.o(.text) refers to defsig_exit.o(.text) for __sig_exit
    defsig_abrt_formal.o(.text) refers to rt_raise.o(.text) for __rt_raise
    defsig_fpe_inner.o(.text) refers to defsig_general.o(.text) for __default_signal_display
    defsig_rtmem_inner.o(.text) refers to defsig_general.o(.text) for __default_signal_display
    defsig.o(CL$$defsig) refers to defsig_abrt_inner.o(.text) for __rt_SIGABRT_inner
    defsig.o(CL$$defsig) refers to defsig_fpe_inner.o(.text) for __rt_SIGFPE_inner
    defsig.o(CL$$defsig) refers to defsig_rtmem_inner.o(.text) for __rt_SIGRTMEM_inner
    defsig.o(CL$$defsig) refers to defsig_pvfn_inner.o(.text) for __rt_SIGPVFN_inner
    rtexit2.o(.ARM.Collect$$rtexit$$00000003) refers to libshutdown.o(.ARM.Collect$$libshutdown$$00000000) for __rt_lib_shutdown
    rtexit2.o(.ARM.Collect$$rtexit$$00000004) refers to sys_exit.o(.text) for _sys_exit
    rtexit2.o(.ARM.exidx) refers to rtexit2.o(.ARM.Collect$$rtexit$$00000001) for .ARM.Collect$$rtexit$$00000001
    rtexit2.o(.ARM.exidx) refers to rtexit2.o(.ARM.Collect$$rtexit$$00000003) for .ARM.Collect$$rtexit$$00000003
    rtexit2.o(.ARM.exidx) refers to rtexit2.o(.ARM.Collect$$rtexit$$00000004) for .ARM.Collect$$rtexit$$00000004
    defsig_abrt_inner.o(.text) refers to defsig_general.o(.text) for __default_signal_display
    defsig_rtred_inner.o(.text) refers to defsig_general.o(.text) for __default_signal_display
    defsig_stak_inner.o(.text) refers to defsig_general.o(.text) for __default_signal_display
    defsig_cppl_inner.o(.text) refers to defsig_general.o(.text) for __default_signal_display
    defsig_segv_inner.o(.text) refers to defsig_general.o(.text) for __default_signal_display
    defsig_other.o(.text) refers to defsig_general.o(.text) for __default_signal_display
    libshutdown.o(.ARM.Collect$$libshutdown$$00000000) refers (Special) to libshutdown2.o(.ARM.Collect$$libshutdown$$00000002) for __rt_lib_shutdown_cpp_1
    libshutdown.o(.ARM.Collect$$libshutdown$$00000000) refers (Special) to libshutdown2.o(.ARM.Collect$$libshutdown$$00000007) for __rt_lib_shutdown_fp_trap_1
    libshutdown.o(.ARM.Collect$$libshutdown$$00000000) refers (Special) to libshutdown2.o(.ARM.Collect$$libshutdown$$0000000F) for __rt_lib_shutdown_heap_1
    libshutdown.o(.ARM.Collect$$libshutdown$$00000000) refers (Special) to libshutdown2.o(.ARM.Collect$$libshutdown$$00000010) for __rt_lib_shutdown_return
    libshutdown.o(.ARM.Collect$$libshutdown$$00000000) refers (Special) to libshutdown2.o(.ARM.Collect$$libshutdown$$0000000A) for __rt_lib_shutdown_signal_1
    libshutdown.o(.ARM.Collect$$libshutdown$$00000000) refers (Special) to libshutdown2.o(.ARM.Collect$$libshutdown$$00000004) for __rt_lib_shutdown_stdio_1
    libshutdown.o(.ARM.Collect$$libshutdown$$00000000) refers (Special) to libshutdown2.o(.ARM.Collect$$libshutdown$$0000000C) for __rt_lib_shutdown_user_alloc_1
    stm32f0xx_hal_dma.o(.ARM.exidx) refers to stm32f0xx_hal_dma.o(i.__ARM_common_switch8) for i.__ARM_common_switch8
    screen.o(i._ZN7Segment8BSRR_OffEv) refers to stm32f0xx_hal_gpio.o(i.HAL_GPIO_WritePin) for HAL_GPIO_WritePin
    screen.o(.ARM.exidx) refers to screen.o(i._ZN7Segment8BSRR_OffEv) for i._ZN7Segment8BSRR_OffEv
    screen.o(i._ZN7Segment7BSRR_OnEv) refers to stm32f0xx_hal_gpio.o(i.HAL_GPIO_WritePin) for HAL_GPIO_WritePin
    screen.o(.ARM.exidx) refers to screen.o(i._ZN7Segment7BSRR_OnEv) for i._ZN7Segment7BSRR_OnEv
    screen.o(i._ZN5Digit8BSRR_OffEv) refers to stm32f0xx_hal_gpio.o(i.HAL_GPIO_WritePin) for HAL_GPIO_WritePin
    screen.o(.ARM.exidx) refers to screen.o(i._ZN5Digit8BSRR_OffEv) for i._ZN5Digit8BSRR_OffEv
    screen.o(i._ZN7SegmentC1EP12GPIO_TypeDeft) refers to screen.o(i._ZN7Segment8BSRR_OffEv) for Segment::BSRR_Off()
    screen.o(.ARM.exidx) refers to screen.o(i._ZN7SegmentC1EP12GPIO_TypeDeft) for i._ZN7SegmentC1EP12GPIO_TypeDeft
    screen.o(i._ZN5DigitC1EP12GPIO_TypeDeft) refers to screen.o(i._ZN5Digit8BSRR_OffEv) for Digit::BSRR_Off()
    screen.o(.ARM.exidx) refers to screen.o(i._ZN5DigitC1EP12GPIO_TypeDeft) for i._ZN5DigitC1EP12GPIO_TypeDeft
    eeprom_user.o(.ARM.exidx) refers to eeprom_user.o(i._ZN10Flash_DataC1Etttt) for i._ZN10Flash_DataC1Etttt
    voltage_relay.o(.constdata__ZTV13voltage_relay) refers to voltage_relay.o(.constdata__ZTI13voltage_relay) for typeinfo for voltage_relay
    voltage_relay.o(.constdata__ZTV13voltage_relay) refers to voltage_relay.o(i._ZN13voltage_relay6updateEv) for voltage_relay::update()
    voltage_relay.o(i._ZN13voltage_relayC1EP10Flash_Data) refers to new.o(i._Znwj) for operator new(unsigned)
    voltage_relay.o(i._ZN13voltage_relayC1EP10Flash_Data) refers to array_new.o(i._Znaj) for operator new[] (unsigned)
    voltage_relay.o(i._ZN13voltage_relayC1EP10Flash_Data) refers to arm_fir_init_f32.o(i.arm_fir_init_f32) for arm_fir_init_f32
    voltage_relay.o(i._ZN13voltage_relayC1EP10Flash_Data) refers to eeprom_user.o(i._ZNK10Flash_Data9get_valueEv) for Flash_Data::get_value() const
    voltage_relay.o(i._ZN13voltage_relayC1EP10Flash_Data) refers to observer.o(i._ZN7Subject6attachEP8Observer) for Subject::attach(Observer*)
    voltage_relay.o(i._ZN13voltage_relayC1EP10Flash_Data) refers to voltage_relay.o(.constdata__ZTV13voltage_relay) for vtable for voltage_relay
    voltage_relay.o(i._ZN13voltage_relayC1EP10Flash_Data) refers to voltage_acq.o(.data) for kCoef
    voltage_relay.o(i._ZN13voltage_relayC1EP10Flash_Data) refers to voltage_acq.o(.bss) for pState
    voltage_relay.o(i._ZN13voltage_relayC1EP10Flash_Data) refers to eeprom_user.o(.data) for Flash_Data::subj
    voltage_relay.o(.ARM.exidx) refers to voltage_relay.o(i._ZN13voltage_relayC1EP10Flash_Data) for i._ZN13voltage_relayC1EP10Flash_Data
    voltage_relay.o(i._ZN13voltage_relayD1Ev) refers to array_del.o(i._ZdaPv) for operator delete[] (void*)
    voltage_relay.o(i._ZN13voltage_relayD1Ev) refers to delete.o(i._ZdlPv) for operator delete (void*)
    voltage_relay.o(i._ZN13voltage_relayD1Ev) refers to voltage_relay.o(.constdata__ZTV13voltage_relay) for vtable for voltage_relay
    voltage_relay.o(.ARM.exidx) refers to voltage_relay.o(i._ZN13voltage_relayD1Ev) for i._ZN13voltage_relayD1Ev
    voltage_relay.o(.constdata__ZTI13voltage_relay) refers to lib_rtti_impl.o(.constdata__ZTVN10__cxxabiv120__si_class_type_infoE) for vtable for __cxxabiv1::__si_class_type_info
    voltage_relay.o(.constdata__ZTI13voltage_relay) refers to voltage_relay.o(.constdata__ZTS13voltage_relay) for typeinfo name for voltage_relay
    voltage_relay.o(.constdata__ZTI13voltage_relay) refers to voltage_relay.o(.constdata__ZTI8Observer) for typeinfo for Observer
    voltage_relay.o(.constdata__ZTI8Observer) refers to lib_rtti_impl.o(.constdata__ZTVN10__cxxabiv117__class_type_infoE) for vtable for __cxxabiv1::__class_type_info
    voltage_relay.o(.constdata__ZTI8Observer) refers to voltage_relay.o(.constdata__ZTS8Observer) for typeinfo name for Observer
    main_state_machine.o(i._ZN22Voltage_Relay_ExecutorD1Ev) refers to array_del.o(i._ZdaPv) for operator delete[] (void*)
    main_state_machine.o(i._ZN22Voltage_Relay_ExecutorD1Ev) refers to delete.o(i._ZdlPv) for operator delete (void*)
    main_state_machine.o(.ARM.exidx) refers to main_state_machine.o(i._ZN22Voltage_Relay_ExecutorD1Ev) for i._ZN22Voltage_Relay_ExecutorD1Ev
    main_state_machine.o(.ARM.exidx) refers to main_state_machine.o(t._ZN5StackIP14OPERATION_BASEE3getEv) for t._ZN5StackIP14OPERATION_BASEE3getEv
    alarms_events.o(.constdata__ZTV5Event) refers to alarms_events.o(.constdata__ZTI5Event) for typeinfo for Event
    alarms_events.o(.constdata__ZTV5Event) refers to alarms_events.o(i._ZN5Event12execute_taskEv) for Event::execute_task()
    alarms_events.o(.constdata__ZTV5Event) refers to alarms_events.o(i._ZN5EventD1Ev) for Event::~Event()
    alarms_events.o(.constdata__ZTV5Event) refers to alarms_events.o(i._ZN5EventD0Ev) for Event::~Event__deallocating()
    alarms_events.o(.constdata__ZTV18Event_EEprom_Write) refers to alarms_events.o(.constdata__ZTI18Event_EEprom_Write) for typeinfo for Event_EEprom_Write
    alarms_events.o(.constdata__ZTV18Event_EEprom_Write) refers to alarms_events.o(i._ZN18Event_EEprom_Write12execute_taskEv) for Event_EEprom_Write::execute_task()
    alarms_events.o(.constdata__ZTV18Event_EEprom_Write) refers to alarms_events.o(i._ZN18Event_EEprom_WriteD1Ev) for Event_EEprom_Write::~Event_EEprom_Write()
    alarms_events.o(.constdata__ZTV18Event_EEprom_Write) refers to alarms_events.o(i._ZN18Event_EEprom_WriteD0Ev) for Event_EEprom_Write::~Event_EEprom_Write__deallocating()
    alarms_events.o(.constdata__ZTV5Alarm) refers to alarms_events.o(.constdata__ZTI5Alarm) for typeinfo for Alarm
    alarms_events.o(.constdata__ZTV5Alarm) refers to alarms_events.o(i._ZN5Alarm12execute_taskEv) for Alarm::execute_task()
    alarms_events.o(.constdata__ZTV5Alarm) refers to alarms_events.o(i._ZN5AlarmD1Ev) for Alarm::~Alarm()
    alarms_events.o(.constdata__ZTV5Alarm) refers to alarms_events.o(i._ZN5AlarmD0Ev) for Alarm::~Alarm__deallocating()
    alarms_events.o(.ARM.exidx) refers to alarms_events.o(i._ZN5EventD1Ev) for i._ZN5EventD1Ev
    alarms_events.o(.ARM.exidx) refers to alarms_events.o(i._ZN18Event_EEprom_WriteD1Ev) for i._ZN18Event_EEprom_WriteD1Ev
    alarms_events.o(.ARM.exidx) refers to alarms_events.o(i._ZN5AlarmD1Ev) for i._ZN5AlarmD1Ev
    alarms_events.o(i._ZN5EventD0Ev) refers to delete.o(i._ZdlPv) for operator delete (void*)
    alarms_events.o(.ARM.exidx) refers to alarms_events.o(i._ZN5EventD0Ev) for i._ZN5EventD0Ev
    alarms_events.o(i._ZN18Event_EEprom_WriteD0Ev) refers to delete.o(i._ZdlPv) for operator delete (void*)
    alarms_events.o(.ARM.exidx) refers to alarms_events.o(i._ZN18Event_EEprom_WriteD0Ev) for i._ZN18Event_EEprom_WriteD0Ev
    alarms_events.o(i._ZN5AlarmD0Ev) refers to delete.o(i._ZdlPv) for operator delete (void*)
    alarms_events.o(.ARM.exidx) refers to alarms_events.o(i._ZN5AlarmD0Ev) for i._ZN5AlarmD0Ev
    alarms_events.o(.ARM.exidx) refers to alarms_events.o(t._ZN11Event_CheckI13voltage_relayMS0_FvvEED1Ev) for t._ZN11Event_CheckI13voltage_relayMS0_FvvEED1Ev
    alarms_events.o(.constdata__ZTV11Event_CheckI13voltage_relayMS0_FvvEE) refers to alarms_events.o(.constdata__ZTI11Event_CheckI13voltage_relayMS0_FvvEE) for typeinfo for Event_Check<voltage_relay, void(voltage_relay::*)()>
    alarms_events.o(.constdata__ZTV11Event_CheckI13voltage_relayMS0_FvvEE) refers to alarms_events.o(t._ZN11Event_CheckI13voltage_relayMS0_FvvEE12execute_taskEv) for Event_Check<voltage_relay, void(voltage_relay::*)()>::execute_task()
    alarms_events.o(.constdata__ZTV11Event_CheckI13voltage_relayMS0_FvvEE) refers to alarms_events.o(t._ZN11Event_CheckI13voltage_relayMS0_FvvEED1Ev) for Event_Check<voltage_relay, void(voltage_relay::*)()>::~Event_Check()
    alarms_events.o(.constdata__ZTV11Event_CheckI13voltage_relayMS0_FvvEE) refers to alarms_events.o(t._ZN11Event_CheckI13voltage_relayMS0_FvvEED0Ev) for Event_Check<voltage_relay, void(voltage_relay::*)()>::~Event_Check__deallocating()
    alarms_events.o(.constdata__ZTI5Event) refers to lib_rtti_impl.o(.constdata__ZTVN10__cxxabiv120__si_class_type_infoE) for vtable for __cxxabiv1::__si_class_type_info
    alarms_events.o(.constdata__ZTI5Event) refers to alarms_events.o(.constdata__ZTS5Event) for typeinfo name for Event
    alarms_events.o(.constdata__ZTI5Event) refers to alarms_events.o(.constdata__ZTI14OPERATION_BASE) for typeinfo for OPERATION_BASE
    alarms_events.o(.constdata__ZTI18Event_EEprom_Write) refers to lib_rtti_impl.o(.constdata__ZTVN10__cxxabiv120__si_class_type_infoE) for vtable for __cxxabiv1::__si_class_type_info
    alarms_events.o(.constdata__ZTI18Event_EEprom_Write) refers to alarms_events.o(.constdata__ZTS18Event_EEprom_Write) for typeinfo name for Event_EEprom_Write
    alarms_events.o(.constdata__ZTI18Event_EEprom_Write) refers to alarms_events.o(.constdata__ZTI14OPERATION_BASE) for typeinfo for OPERATION_BASE
    alarms_events.o(.constdata__ZTI5Alarm) refers to lib_rtti_impl.o(.constdata__ZTVN10__cxxabiv120__si_class_type_infoE) for vtable for __cxxabiv1::__si_class_type_info
    alarms_events.o(.constdata__ZTI5Alarm) refers to alarms_events.o(.constdata__ZTS5Alarm) for typeinfo name for Alarm
    alarms_events.o(.constdata__ZTI5Alarm) refers to alarms_events.o(.constdata__ZTI14OPERATION_BASE) for typeinfo for OPERATION_BASE
    alarms_events.o(.constdata__ZTI14OPERATION_BASE) refers to lib_rtti_impl.o(.constdata__ZTVN10__cxxabiv117__class_type_infoE) for vtable for __cxxabiv1::__class_type_info
    alarms_events.o(.constdata__ZTI14OPERATION_BASE) refers to alarms_events.o(.constdata__ZTS14OPERATION_BASE) for typeinfo name for OPERATION_BASE
    alarms_events.o(.constdata__ZTI11Event_CheckI13voltage_relayMS0_FvvEE) refers to lib_rtti_impl.o(.constdata__ZTVN10__cxxabiv120__si_class_type_infoE) for vtable for __cxxabiv1::__si_class_type_info
    alarms_events.o(.constdata__ZTI11Event_CheckI13voltage_relayMS0_FvvEE) refers to alarms_events.o(.constdata__ZTS11Event_CheckI13voltage_relayMS0_FvvEE) for typeinfo name for Event_Check<voltage_relay, void(voltage_relay::*)()>
    alarms_events.o(.constdata__ZTI11Event_CheckI13voltage_relayMS0_FvvEE) refers to alarms_events.o(.constdata__ZTI14OPERATION_BASE) for typeinfo for OPERATION_BASE
    alarms_events.o(.ARM.exidx) refers to alarms_events.o(t._ZN11Event_CheckI13voltage_relayMS0_FvvEE12execute_taskEv) for t._ZN11Event_CheckI13voltage_relayMS0_FvvEE12execute_taskEv
    alarms_events.o(t._ZN11Event_CheckI13voltage_relayMS0_FvvEED0Ev) refers to delete.o(i._ZdlPv) for operator delete (void*)
    alarms_events.o(.ARM.exidx) refers to alarms_events.o(t._ZN11Event_CheckI13voltage_relayMS0_FvvEED0Ev) for t._ZN11Event_CheckI13voltage_relayMS0_FvvEED0Ev
    menu.o(.constdata__ZTV9Menu_item) refers to menu.o(.constdata__ZTI9Menu_item) for typeinfo for Menu_item
    menu.o(.constdata__ZTV9Menu_item) refers to menu.o(i._ZN9Menu_item6actionEv) for Menu_item::action()
    menu.o(.constdata__ZTV9Menu_item) refers to menu.o(i._ZN9Menu_item8menu_scrEv) for Menu_item::menu_scr()
    menu.o(.constdata__ZTV9Menu_item) refers to menu.o(i._ZN9Menu_itemD1Ev) for Menu_item::~Menu_item()
    menu.o(.constdata__ZTV9Menu_item) refers to menu.o(i._ZN9Menu_itemD0Ev) for Menu_item::~Menu_item__deallocating()
    menu.o(.constdata__ZTV15Menu_flash_read) refers to menu.o(.constdata__ZTI15Menu_flash_read) for typeinfo for Menu_flash_read
    menu.o(.constdata__ZTV15Menu_flash_read) refers to menu.o(i._ZN15Menu_flash_read6actionEv) for Menu_flash_read::action()
    menu.o(.constdata__ZTV15Menu_flash_read) refers to menu.o(i._ZN15Menu_flash_read8menu_scrEv) for Menu_flash_read::menu_scr()
    menu.o(.constdata__ZTV15Menu_flash_read) refers to menu.o(i._ZN15Menu_flash_readD1Ev) for Menu_flash_read::~Menu_flash_read()
    menu.o(.constdata__ZTV15Menu_flash_read) refers to menu.o(i._ZN15Menu_flash_readD0Ev) for Menu_flash_read::~Menu_flash_read__deallocating()
    menu.o(.constdata__ZTV13Menu_flash_rw) refers to menu.o(.constdata__ZTI13Menu_flash_rw) for typeinfo for Menu_flash_rw
    menu.o(.constdata__ZTV13Menu_flash_rw) refers to menu.o(i._ZN13Menu_flash_rw6actionEv) for Menu_flash_rw::action()
    menu.o(.constdata__ZTV13Menu_flash_rw) refers to menu.o(i._ZN13Menu_flash_rw8menu_scrEv) for Menu_flash_rw::menu_scr()
    menu.o(.constdata__ZTV13Menu_flash_rw) refers to menu.o(i._ZN13Menu_flash_rwD1Ev) for Menu_flash_rw::~Menu_flash_rw()
    menu.o(.constdata__ZTV13Menu_flash_rw) refers to menu.o(i._ZN13Menu_flash_rwD0Ev) for Menu_flash_rw::~Menu_flash_rw__deallocating()
    menu.o(.constdata__ZTV18Menu_Voltage_Relay) refers to menu.o(.constdata__ZTI18Menu_Voltage_Relay) for typeinfo for Menu_Voltage_Relay
    menu.o(.constdata__ZTV18Menu_Voltage_Relay) refers to menu.o(i._ZN18Menu_Voltage_Relay6actionEv) for Menu_Voltage_Relay::action()
    menu.o(.constdata__ZTV18Menu_Voltage_Relay) refers to menu.o(i._ZN18Menu_Voltage_Relay8menu_scrEv) for Menu_Voltage_Relay::menu_scr()
    menu.o(.constdata__ZTV18Menu_Voltage_Relay) refers to menu.o(i._ZN18Menu_Voltage_RelayD1Ev) for Menu_Voltage_Relay::~Menu_Voltage_Relay()
    menu.o(.constdata__ZTV18Menu_Voltage_Relay) refers to menu.o(i._ZN18Menu_Voltage_RelayD0Ev) for Menu_Voltage_Relay::~Menu_Voltage_Relay__deallocating()
    menu.o(.constdata__ZTV9Menu_Time) refers to menu.o(.constdata__ZTI9Menu_Time) for typeinfo for Menu_Time
    menu.o(.constdata__ZTV9Menu_Time) refers to menu.o(i._ZN9Menu_Time6actionEv) for Menu_Time::action()
    menu.o(.constdata__ZTV9Menu_Time) refers to menu.o(i._ZN9Menu_Time8menu_scrEv) for Menu_Time::menu_scr()
    menu.o(.constdata__ZTV9Menu_Time) refers to menu.o(i._ZN9Menu_TimeD1Ev) for Menu_Time::~Menu_Time()
    menu.o(.constdata__ZTV9Menu_Time) refers to menu.o(i._ZN9Menu_TimeD0Ev) for Menu_Time::~Menu_Time__deallocating()
    menu.o(.constdata__ZTV10Menu_Error) refers to menu.o(.constdata__ZTI10Menu_Error) for typeinfo for Menu_Error
    menu.o(.constdata__ZTV10Menu_Error) refers to menu.o(i._ZN10Menu_Error6actionEv) for Menu_Error::action()
    menu.o(.constdata__ZTV10Menu_Error) refers to menu.o(i._ZN10Menu_Error8menu_scrEv) for Menu_Error::menu_scr()
    menu.o(.constdata__ZTV10Menu_Error) refers to menu.o(i._ZN10Menu_ErrorD1Ev) for Menu_Error::~Menu_Error()
    menu.o(.constdata__ZTV10Menu_Error) refers to menu.o(i._ZN10Menu_ErrorD0Ev) for Menu_Error::~Menu_Error__deallocating()
    menu.o(i._ZN9Menu_itemD1Ev) refers to array_del.o(i._ZdaPv) for operator delete[] (void*)
    menu.o(i._ZN9Menu_itemD1Ev) refers to menu.o(.constdata__ZTV9Menu_item) for vtable for Menu_item
    menu.o(.ARM.exidx) refers to menu.o(i._ZN9Menu_itemD1Ev) for i._ZN9Menu_itemD1Ev
    menu.o(.ARM.exidx) refers to menu.o(i._ZN15Menu_flash_readD1Ev) for i._ZN15Menu_flash_readD1Ev
    menu.o(.ARM.exidx) refers to menu.o(i._ZN13Menu_flash_rwD1Ev) for i._ZN13Menu_flash_rwD1Ev
    menu.o(.ARM.exidx) refers to menu.o(i._ZN18Menu_Voltage_RelayD1Ev) for i._ZN18Menu_Voltage_RelayD1Ev
    menu.o(.ARM.exidx) refers to menu.o(i._ZN9Menu_TimeD1Ev) for i._ZN9Menu_TimeD1Ev
    menu.o(.ARM.exidx) refers to menu.o(i._ZN10Menu_ErrorD1Ev) for i._ZN10Menu_ErrorD1Ev
    menu.o(i._ZN9Menu_BaseC2EPKc) refers to menu.o(.constdata__ZTV9Menu_Base) for vtable for Menu_Base
    menu.o(.ARM.exidx) refers to menu.o(i._ZN9Menu_BaseC2EPKc) for i._ZN9Menu_BaseC2EPKc
    menu.o(i._ZN9Menu_itemC1EPKchz) refers to menu.o(i._ZN9Menu_BaseC2EPKc) for Menu_Base::Menu_Base__sub_object(const char*)
    menu.o(i._ZN9Menu_itemC1EPKchz) refers to array_new.o(i._Znaj) for operator new[] (unsigned)
    menu.o(i._ZN9Menu_itemC1EPKchz) refers to menu.o(.constdata__ZTV9Menu_item) for vtable for Menu_item
    menu.o(.ARM.exidx) refers to menu.o(i._ZN9Menu_itemC1EPKchz) for i._ZN9Menu_itemC1EPKchz
    menu.o(i._ZN9Menu_itemD0Ev) refers to menu.o(i._ZN9Menu_itemD1Ev) for Menu_item::~Menu_item()
    menu.o(i._ZN9Menu_itemD0Ev) refers to delete.o(i._ZdlPv) for operator delete (void*)
    menu.o(.ARM.exidx) refers to menu.o(i._ZN9Menu_itemD0Ev) for i._ZN9Menu_itemD0Ev
    menu.o(i._ZN15Menu_flash_readD0Ev) refers to delete.o(i._ZdlPv) for operator delete (void*)
    menu.o(.ARM.exidx) refers to menu.o(i._ZN15Menu_flash_readD0Ev) for i._ZN15Menu_flash_readD0Ev
    menu.o(i._ZN13Menu_flash_rwC1EPKcR10Flash_DataP9Menu_Base) refers to menu.o(i._ZN9Menu_BaseC2EPKc) for Menu_Base::Menu_Base__sub_object(const char*)
    menu.o(i._ZN13Menu_flash_rwC1EPKcR10Flash_DataP9Menu_Base) refers to menu.o(.constdata__ZTV13Menu_flash_rw) for vtable for Menu_flash_rw
    menu.o(.ARM.exidx) refers to menu.o(i._ZN13Menu_flash_rwC1EPKcR10Flash_DataP9Menu_Base) for i._ZN13Menu_flash_rwC1EPKcR10Flash_DataP9Menu_Base
    menu.o(i._ZN13Menu_flash_rwD0Ev) refers to delete.o(i._ZdlPv) for operator delete (void*)
    menu.o(.ARM.exidx) refers to menu.o(i._ZN13Menu_flash_rwD0Ev) for i._ZN13Menu_flash_rwD0Ev
    menu.o(i._ZN18Menu_Voltage_RelayD0Ev) refers to delete.o(i._ZdlPv) for operator delete (void*)
    menu.o(.ARM.exidx) refers to menu.o(i._ZN18Menu_Voltage_RelayD0Ev) for i._ZN18Menu_Voltage_RelayD0Ev
    menu.o(i._ZN9Menu_TimeC1EPKcR10Flash_DataP9Menu_Base) refers to menu.o(i._ZN13Menu_flash_rwC1EPKcR10Flash_DataP9Menu_Base) for Menu_flash_rw::Menu_flash_rw(const char*, Flash_Data&, Menu_Base*)
    menu.o(i._ZN9Menu_TimeC1EPKcR10Flash_DataP9Menu_Base) refers to menu.o(.constdata__ZTV9Menu_Time) for vtable for Menu_Time
    menu.o(.ARM.exidx) refers to menu.o(i._ZN9Menu_TimeC1EPKcR10Flash_DataP9Menu_Base) for i._ZN9Menu_TimeC1EPKcR10Flash_DataP9Menu_Base
    menu.o(i._ZN9Menu_TimeD0Ev) refers to delete.o(i._ZdlPv) for operator delete (void*)
    menu.o(.ARM.exidx) refers to menu.o(i._ZN9Menu_TimeD0Ev) for i._ZN9Menu_TimeD0Ev
    menu.o(i._ZN10Menu_ErrorD0Ev) refers to delete.o(i._ZdlPv) for operator delete (void*)
    menu.o(.ARM.exidx) refers to menu.o(i._ZN10Menu_ErrorD0Ev) for i._ZN10Menu_ErrorD0Ev
    menu.o(.constdata__ZTV9Menu_Base) refers to menu.o(.constdata__ZTI9Menu_Base) for typeinfo for Menu_Base
    menu.o(.constdata__ZTV9Menu_Base) refers to pure_virt.o(i.__cxa_pure_virtual) for __cxa_pure_virtual
    menu.o(.constdata__ZTV9Menu_Base) refers to menu.o(i._ZN9Menu_BaseD2Ev) for Menu_Base::~Menu_Base__sub_object()
    menu.o(.constdata__ZTV9Menu_Base) refers to menu.o(i._ZN9Menu_BaseD0Ev) for Menu_Base::~Menu_Base__deallocating()
    menu.o(.constdata__ZTI9Menu_item) refers to lib_rtti_impl.o(.constdata__ZTVN10__cxxabiv120__si_class_type_infoE) for vtable for __cxxabiv1::__si_class_type_info
    menu.o(.constdata__ZTI9Menu_item) refers to menu.o(.constdata__ZTS9Menu_item) for typeinfo name for Menu_item
    menu.o(.constdata__ZTI9Menu_item) refers to menu.o(.constdata__ZTI9Menu_Base) for typeinfo for Menu_Base
    menu.o(.constdata__ZTI15Menu_flash_read) refers to lib_rtti_impl.o(.constdata__ZTVN10__cxxabiv120__si_class_type_infoE) for vtable for __cxxabiv1::__si_class_type_info
    menu.o(.constdata__ZTI15Menu_flash_read) refers to menu.o(.constdata__ZTS15Menu_flash_read) for typeinfo name for Menu_flash_read
    menu.o(.constdata__ZTI15Menu_flash_read) refers to menu.o(.constdata__ZTI9Menu_Base) for typeinfo for Menu_Base
    menu.o(.constdata__ZTI13Menu_flash_rw) refers to lib_rtti_impl.o(.constdata__ZTVN10__cxxabiv120__si_class_type_infoE) for vtable for __cxxabiv1::__si_class_type_info
    menu.o(.constdata__ZTI13Menu_flash_rw) refers to menu.o(.constdata__ZTS13Menu_flash_rw) for typeinfo name for Menu_flash_rw
    menu.o(.constdata__ZTI13Menu_flash_rw) refers to menu.o(.constdata__ZTI9Menu_Base) for typeinfo for Menu_Base
    menu.o(.constdata__ZTI18Menu_Voltage_Relay) refers to lib_rtti_impl.o(.constdata__ZTVN10__cxxabiv120__si_class_type_infoE) for vtable for __cxxabiv1::__si_class_type_info
    menu.o(.constdata__ZTI18Menu_Voltage_Relay) refers to menu.o(.constdata__ZTS18Menu_Voltage_Relay) for typeinfo name for Menu_Voltage_Relay
    menu.o(.constdata__ZTI18Menu_Voltage_Relay) refers to menu.o(.constdata__ZTI9Menu_Base) for typeinfo for Menu_Base
    menu.o(.constdata__ZTI9Menu_Time) refers to lib_rtti_impl.o(.constdata__ZTVN10__cxxabiv120__si_class_type_infoE) for vtable for __cxxabiv1::__si_class_type_info
    menu.o(.constdata__ZTI9Menu_Time) refers to menu.o(.constdata__ZTS9Menu_Time) for typeinfo name for Menu_Time
    menu.o(.constdata__ZTI9Menu_Time) refers to menu.o(.constdata__ZTI13Menu_flash_rw) for typeinfo for Menu_flash_rw
    menu.o(.constdata__ZTI10Menu_Error) refers to lib_rtti_impl.o(.constdata__ZTVN10__cxxabiv120__si_class_type_infoE) for vtable for __cxxabiv1::__si_class_type_info
    menu.o(.constdata__ZTI10Menu_Error) refers to menu.o(.constdata__ZTS10Menu_Error) for typeinfo name for Menu_Error
    menu.o(.constdata__ZTI10Menu_Error) refers to menu.o(.constdata__ZTI9Menu_Base) for typeinfo for Menu_Base
    menu.o(.constdata__ZTI9Menu_Base) refers to lib_rtti_impl.o(.constdata__ZTVN10__cxxabiv117__class_type_infoE) for vtable for __cxxabiv1::__class_type_info
    menu.o(.constdata__ZTI9Menu_Base) refers to menu.o(.constdata__ZTS9Menu_Base) for typeinfo name for Menu_Base
    menu.o(.ARM.exidx) refers to menu.o(i._ZN9Menu_BaseD2Ev) for i._ZN9Menu_BaseD2Ev
    menu.o(i._ZN9Menu_BaseD0Ev) refers to delete.o(i._ZdlPv) for operator delete (void*)
    menu.o(.ARM.exidx) refers to menu.o(i._ZN9Menu_BaseD0Ev) for i._ZN9Menu_BaseD0Ev
    lib_rtti_impl.o(.constdata__ZTVN10__cxxabiv123__fundamental_type_infoE) refers to lib_rtti_impl.o(.constdata__ZTIN10__cxxabiv123__fundamental_type_infoE) for typeinfo for __cxxabiv1::__fundamental_type_info
    lib_rtti_impl.o(.constdata__ZTVN10__cxxabiv123__fundamental_type_infoE) refers to lib_rtti_impl.o(i._ZN10__cxxabiv123__fundamental_type_infoD1Ev) for __cxxabiv1::__fundamental_type_info::~__fundamental_type_info()
    lib_rtti_impl.o(.constdata__ZTVN10__cxxabiv123__fundamental_type_infoE) refers to lib_rtti_impl.o(i._ZN10__cxxabiv123__fundamental_type_infoD0Ev) for __cxxabiv1::__fundamental_type_info::~__fundamental_type_info__deallocating()
    lib_rtti_impl.o(.constdata__ZTVN10__cxxabiv117__array_type_infoE) refers to lib_rtti_impl.o(.constdata__ZTIN10__cxxabiv117__array_type_infoE) for typeinfo for __cxxabiv1::__array_type_info
    lib_rtti_impl.o(.constdata__ZTVN10__cxxabiv117__array_type_infoE) refers to lib_rtti_impl.o(i._ZN10__cxxabiv117__array_type_infoD1Ev) for __cxxabiv1::__array_type_info::~__array_type_info()
    lib_rtti_impl.o(.constdata__ZTVN10__cxxabiv117__array_type_infoE) refers to lib_rtti_impl.o(i._ZN10__cxxabiv117__array_type_infoD0Ev) for __cxxabiv1::__array_type_info::~__array_type_info__deallocating()
    lib_rtti_impl.o(.constdata__ZTVN10__cxxabiv120__function_type_infoE) refers to lib_rtti_impl.o(.constdata__ZTIN10__cxxabiv120__function_type_infoE) for typeinfo for __cxxabiv1::__function_type_info
    lib_rtti_impl.o(.constdata__ZTVN10__cxxabiv120__function_type_infoE) refers to lib_rtti_impl.o(i._ZN10__cxxabiv120__function_type_infoD1Ev) for __cxxabiv1::__function_type_info::~__function_type_info()
    lib_rtti_impl.o(.constdata__ZTVN10__cxxabiv120__function_type_infoE) refers to lib_rtti_impl.o(i._ZN10__cxxabiv120__function_type_infoD0Ev) for __cxxabiv1::__function_type_info::~__function_type_info__deallocating()
    lib_rtti_impl.o(.constdata__ZTVN10__cxxabiv116__enum_type_infoE) refers to lib_rtti_impl.o(.constdata__ZTIN10__cxxabiv116__enum_type_infoE) for typeinfo for __cxxabiv1::__enum_type_info
    lib_rtti_impl.o(.constdata__ZTVN10__cxxabiv116__enum_type_infoE) refers to lib_rtti_impl.o(i._ZN10__cxxabiv116__enum_type_infoD1Ev) for __cxxabiv1::__enum_type_info::~__enum_type_info()
    lib_rtti_impl.o(.constdata__ZTVN10__cxxabiv116__enum_type_infoE) refers to lib_rtti_impl.o(i._ZN10__cxxabiv116__enum_type_infoD0Ev) for __cxxabiv1::__enum_type_info::~__enum_type_info__deallocating()
    lib_rtti_impl.o(.constdata__ZTVN10__cxxabiv117__class_type_infoE) refers to lib_rtti_impl.o(.constdata__ZTIN10__cxxabiv117__class_type_infoE) for typeinfo for __cxxabiv1::__class_type_info
    lib_rtti_impl.o(.constdata__ZTVN10__cxxabiv117__class_type_infoE) refers to lib_rtti_impl.o(i._ZN10__cxxabiv117__class_type_infoD1Ev) for __cxxabiv1::__class_type_info::~__class_type_info()
    lib_rtti_impl.o(.constdata__ZTVN10__cxxabiv117__class_type_infoE) refers to lib_rtti_impl.o(i._ZN10__cxxabiv117__class_type_infoD0Ev) for __cxxabiv1::__class_type_info::~__class_type_info__deallocating()
    lib_rtti_impl.o(.constdata__ZTVN10__cxxabiv120__si_class_type_infoE) refers to lib_rtti_impl.o(.constdata__ZTIN10__cxxabiv120__si_class_type_infoE) for typeinfo for __cxxabiv1::__si_class_type_info
    lib_rtti_impl.o(.constdata__ZTVN10__cxxabiv120__si_class_type_infoE) refers to lib_rtti_impl.o(i._ZN10__cxxabiv120__si_class_type_infoD1Ev) for __cxxabiv1::__si_class_type_info::~__si_class_type_info()
    lib_rtti_impl.o(.constdata__ZTVN10__cxxabiv120__si_class_type_infoE) refers to lib_rtti_impl.o(i._ZN10__cxxabiv120__si_class_type_infoD0Ev) for __cxxabiv1::__si_class_type_info::~__si_class_type_info__deallocating()
    lib_rtti_impl.o(.constdata__ZTVN10__cxxabiv121__vmi_class_type_infoE) refers to lib_rtti_impl.o(.constdata__ZTIN10__cxxabiv121__vmi_class_type_infoE) for typeinfo for __cxxabiv1::__vmi_class_type_info
    lib_rtti_impl.o(.constdata__ZTVN10__cxxabiv121__vmi_class_type_infoE) refers to lib_rtti_impl.o(i._ZN10__cxxabiv121__vmi_class_type_infoD1Ev) for __cxxabiv1::__vmi_class_type_info::~__vmi_class_type_info()
    lib_rtti_impl.o(.constdata__ZTVN10__cxxabiv121__vmi_class_type_infoE) refers to lib_rtti_impl.o(i._ZN10__cxxabiv121__vmi_class_type_infoD0Ev) for __cxxabiv1::__vmi_class_type_info::~__vmi_class_type_info__deallocating()
    lib_rtti_impl.o(.constdata__ZTVN10__cxxabiv117__pbase_type_infoE) refers to lib_rtti_impl.o(.constdata__ZTIN10__cxxabiv117__pbase_type_infoE) for typeinfo for __cxxabiv1::__pbase_type_info
    lib_rtti_impl.o(.constdata__ZTVN10__cxxabiv117__pbase_type_infoE) refers to lib_rtti_impl.o(i._ZN10__cxxabiv117__pbase_type_infoD1Ev) for __cxxabiv1::__pbase_type_info::~__pbase_type_info()
    lib_rtti_impl.o(.constdata__ZTVN10__cxxabiv117__pbase_type_infoE) refers to lib_rtti_impl.o(i._ZN10__cxxabiv117__pbase_type_infoD0Ev) for __cxxabiv1::__pbase_type_info::~__pbase_type_info__deallocating()
    lib_rtti_impl.o(.constdata__ZTVN10__cxxabiv119__pointer_type_infoE) refers to lib_rtti_impl.o(.constdata__ZTIN10__cxxabiv119__pointer_type_infoE) for typeinfo for __cxxabiv1::__pointer_type_info
    lib_rtti_impl.o(.constdata__ZTVN10__cxxabiv119__pointer_type_infoE) refers to lib_rtti_impl.o(i._ZN10__cxxabiv119__pointer_type_infoD1Ev) for __cxxabiv1::__pointer_type_info::~__pointer_type_info()
    lib_rtti_impl.o(.constdata__ZTVN10__cxxabiv119__pointer_type_infoE) refers to lib_rtti_impl.o(i._ZN10__cxxabiv119__pointer_type_infoD0Ev) for __cxxabiv1::__pointer_type_info::~__pointer_type_info__deallocating()
    lib_rtti_impl.o(.constdata__ZTVN10__cxxabiv129__pointer_to_member_type_infoE) refers to lib_rtti_impl.o(.constdata__ZTIN10__cxxabiv129__pointer_to_member_type_infoE) for typeinfo for __cxxabiv1::__pointer_to_member_type_info
    lib_rtti_impl.o(.constdata__ZTVN10__cxxabiv129__pointer_to_member_type_infoE) refers to lib_rtti_impl.o(i._ZN10__cxxabiv129__pointer_to_member_type_infoD1Ev) for __cxxabiv1::__pointer_to_member_type_info::~__pointer_to_member_type_info()
    lib_rtti_impl.o(.constdata__ZTVN10__cxxabiv129__pointer_to_member_type_infoE) refers to lib_rtti_impl.o(i._ZN10__cxxabiv129__pointer_to_member_type_infoD0Ev) for __cxxabiv1::__pointer_to_member_type_info::~__pointer_to_member_type_info__deallocating()
    lib_rtti_impl.o(.ARM.exidx) refers to lib_rtti_impl.o(i._ZNSt9type_infodlEPv) for i._ZNSt9type_infodlEPv
    lib_rtti_impl.o(.constdata__ZTIN10__cxxabiv123__fundamental_type_infoE) refers to lib_rtti_impl.o(.constdata__ZTVN10__cxxabiv120__si_class_type_infoE) for vtable for __cxxabiv1::__si_class_type_info
    lib_rtti_impl.o(.constdata__ZTIN10__cxxabiv123__fundamental_type_infoE) refers to lib_rtti_impl.o(.constdata__ZTSN10__cxxabiv123__fundamental_type_infoE) for typeinfo name for __cxxabiv1::__fundamental_type_info
    lib_rtti_impl.o(.constdata__ZTIN10__cxxabiv123__fundamental_type_infoE) refers to type_info_dtor.o(.constdata__ZTISt9type_info) for typeinfo for std::type_info
    lib_rtti_impl.o(.constdata__ZTIN10__cxxabiv117__array_type_infoE) refers to lib_rtti_impl.o(.constdata__ZTVN10__cxxabiv120__si_class_type_infoE) for vtable for __cxxabiv1::__si_class_type_info
    lib_rtti_impl.o(.constdata__ZTIN10__cxxabiv117__array_type_infoE) refers to lib_rtti_impl.o(.constdata__ZTSN10__cxxabiv117__array_type_infoE) for typeinfo name for __cxxabiv1::__array_type_info
    lib_rtti_impl.o(.constdata__ZTIN10__cxxabiv117__array_type_infoE) refers to type_info_dtor.o(.constdata__ZTISt9type_info) for typeinfo for std::type_info
    lib_rtti_impl.o(.constdata__ZTIN10__cxxabiv120__function_type_infoE) refers to lib_rtti_impl.o(.constdata__ZTVN10__cxxabiv120__si_class_type_infoE) for vtable for __cxxabiv1::__si_class_type_info
    lib_rtti_impl.o(.constdata__ZTIN10__cxxabiv120__function_type_infoE) refers to lib_rtti_impl.o(.constdata__ZTSN10__cxxabiv120__function_type_infoE) for typeinfo name for __cxxabiv1::__function_type_info
    lib_rtti_impl.o(.constdata__ZTIN10__cxxabiv120__function_type_infoE) refers to type_info_dtor.o(.constdata__ZTISt9type_info) for typeinfo for std::type_info
    lib_rtti_impl.o(.constdata__ZTIN10__cxxabiv116__enum_type_infoE) refers to lib_rtti_impl.o(.constdata__ZTVN10__cxxabiv120__si_class_type_infoE) for vtable for __cxxabiv1::__si_class_type_info
    lib_rtti_impl.o(.constdata__ZTIN10__cxxabiv116__enum_type_infoE) refers to lib_rtti_impl.o(.constdata__ZTSN10__cxxabiv116__enum_type_infoE) for typeinfo name for __cxxabiv1::__enum_type_info
    lib_rtti_impl.o(.constdata__ZTIN10__cxxabiv116__enum_type_infoE) refers to type_info_dtor.o(.constdata__ZTISt9type_info) for typeinfo for std::type_info
    lib_rtti_impl.o(.constdata__ZTIN10__cxxabiv117__class_type_infoE) refers to lib_rtti_impl.o(.constdata__ZTVN10__cxxabiv120__si_class_type_infoE) for vtable for __cxxabiv1::__si_class_type_info
    lib_rtti_impl.o(.constdata__ZTIN10__cxxabiv117__class_type_infoE) refers to lib_rtti_impl.o(.constdata__ZTSN10__cxxabiv117__class_type_infoE) for typeinfo name for __cxxabiv1::__class_type_info
    lib_rtti_impl.o(.constdata__ZTIN10__cxxabiv117__class_type_infoE) refers to type_info_dtor.o(.constdata__ZTISt9type_info) for typeinfo for std::type_info
    lib_rtti_impl.o(.constdata__ZTIN10__cxxabiv120__si_class_type_infoE) refers to lib_rtti_impl.o(.constdata__ZTVN10__cxxabiv120__si_class_type_infoE) for vtable for __cxxabiv1::__si_class_type_info
    lib_rtti_impl.o(.constdata__ZTIN10__cxxabiv120__si_class_type_infoE) refers to lib_rtti_impl.o(.constdata__ZTSN10__cxxabiv120__si_class_type_infoE) for typeinfo name for __cxxabiv1::__si_class_type_info
    lib_rtti_impl.o(.constdata__ZTIN10__cxxabiv120__si_class_type_infoE) refers to lib_rtti_impl.o(.constdata__ZTIN10__cxxabiv117__class_type_infoE) for typeinfo for __cxxabiv1::__class_type_info
    lib_rtti_impl.o(.constdata__ZTIN10__cxxabiv121__vmi_class_type_infoE) refers to lib_rtti_impl.o(.constdata__ZTVN10__cxxabiv120__si_class_type_infoE) for vtable for __cxxabiv1::__si_class_type_info
    lib_rtti_impl.o(.constdata__ZTIN10__cxxabiv121__vmi_class_type_infoE) refers to lib_rtti_impl.o(.constdata__ZTSN10__cxxabiv121__vmi_class_type_infoE) for typeinfo name for __cxxabiv1::__vmi_class_type_info
    lib_rtti_impl.o(.constdata__ZTIN10__cxxabiv121__vmi_class_type_infoE) refers to lib_rtti_impl.o(.constdata__ZTIN10__cxxabiv117__class_type_infoE) for typeinfo for __cxxabiv1::__class_type_info
    lib_rtti_impl.o(.constdata__ZTIN10__cxxabiv117__pbase_type_infoE) refers to lib_rtti_impl.o(.constdata__ZTVN10__cxxabiv120__si_class_type_infoE) for vtable for __cxxabiv1::__si_class_type_info
    lib_rtti_impl.o(.constdata__ZTIN10__cxxabiv117__pbase_type_infoE) refers to lib_rtti_impl.o(.constdata__ZTSN10__cxxabiv117__pbase_type_infoE) for typeinfo name for __cxxabiv1::__pbase_type_info
    lib_rtti_impl.o(.constdata__ZTIN10__cxxabiv117__pbase_type_infoE) refers to type_info_dtor.o(.constdata__ZTISt9type_info) for typeinfo for std::type_info
    lib_rtti_impl.o(.constdata__ZTIN10__cxxabiv119__pointer_type_infoE) refers to lib_rtti_impl.o(.constdata__ZTVN10__cxxabiv120__si_class_type_infoE) for vtable for __cxxabiv1::__si_class_type_info
    lib_rtti_impl.o(.constdata__ZTIN10__cxxabiv119__pointer_type_infoE) refers to lib_rtti_impl.o(.constdata__ZTSN10__cxxabiv119__pointer_type_infoE) for typeinfo name for __cxxabiv1::__pointer_type_info
    lib_rtti_impl.o(.constdata__ZTIN10__cxxabiv119__pointer_type_infoE) refers to lib_rtti_impl.o(.constdata__ZTIN10__cxxabiv117__pbase_type_infoE) for typeinfo for __cxxabiv1::__pbase_type_info
    lib_rtti_impl.o(.constdata__ZTIN10__cxxabiv129__pointer_to_member_type_infoE) refers to lib_rtti_impl.o(.constdata__ZTVN10__cxxabiv120__si_class_type_infoE) for vtable for __cxxabiv1::__si_class_type_info
    lib_rtti_impl.o(.constdata__ZTIN10__cxxabiv129__pointer_to_member_type_infoE) refers to lib_rtti_impl.o(.constdata__ZTSN10__cxxabiv129__pointer_to_member_type_infoE) for typeinfo name for __cxxabiv1::__pointer_to_member_type_info
    lib_rtti_impl.o(.constdata__ZTIN10__cxxabiv129__pointer_to_member_type_infoE) refers to lib_rtti_impl.o(.constdata__ZTIN10__cxxabiv117__pbase_type_infoE) for typeinfo for __cxxabiv1::__pbase_type_info
    lib_rtti_impl.o(i.__ARM_common_noexcept_landing) refers to arm_exceptions_callterm.o(.text) for __cxa_call_terminate
    lib_rtti_impl.o(.ARM.exidx) refers to lib_rtti_impl.o(i.__ARM_common_noexcept_landing) for i.__ARM_common_noexcept_landing
    bad_alloc_dtor.o(.constdata__ZTVSt9bad_alloc) refers to bad_alloc_dtor.o(.constdata__ZTISt9bad_alloc) for typeinfo for std::bad_alloc
    bad_alloc_dtor.o(.constdata__ZTVSt9bad_alloc) refers to bad_alloc_dtor.o(i._ZNSt9bad_allocD1Ev) for std::bad_alloc::~bad_alloc()
    bad_alloc_dtor.o(.constdata__ZTVSt9bad_alloc) refers to bad_alloc_dtor.o(i._ZNSt9bad_allocD0Ev) for std::bad_alloc::~bad_alloc__deallocating()
    bad_alloc_dtor.o(.constdata__ZTVSt9bad_alloc) refers to bad_alloc_what.o(i._ZNKSt9bad_alloc4whatEv) for std::bad_alloc::what() const
    bad_alloc_dtor.o(.constdata__ZTISt9bad_alloc) refers to lib_rtti_impl.o(.constdata__ZTVN10__cxxabiv120__si_class_type_infoE) for vtable for __cxxabiv1::__si_class_type_info
    bad_alloc_dtor.o(.constdata__ZTISt9bad_alloc) refers to bad_alloc_dtor.o(.constdata__ZTSSt9bad_alloc) for typeinfo name for std::bad_alloc
    bad_alloc_dtor.o(.constdata__ZTISt9bad_alloc) refers to exception_dtor.o(.constdata__ZTISt9exception) for typeinfo for std::exception
    type_info_dtor.o(.constdata__ZTVSt9type_info) refers to type_info_dtor.o(.constdata__ZTISt9type_info) for typeinfo for std::type_info
    type_info_dtor.o(.constdata__ZTVSt9type_info) refers to type_info_dtor.o(i._ZNSt9type_infoD1Ev) for std::type_info::~type_info()
    type_info_dtor.o(.constdata__ZTVSt9type_info) refers to type_info_dtor.o(i._ZNSt9type_infoD0Ev) for std::type_info::~type_info__deallocating()
    type_info_dtor.o(.constdata__ZTISt9type_info) refers to lib_rtti_impl.o(.constdata__ZTVN10__cxxabiv117__class_type_infoE) for vtable for __cxxabiv1::__class_type_info
    type_info_dtor.o(.constdata__ZTISt9type_info) refers to type_info_dtor.o(.constdata__ZTSSt9type_info) for typeinfo name for std::type_info
    exception_dtor.o(.constdata__ZTVSt9exception) refers to exception_dtor.o(.constdata__ZTISt9exception) for typeinfo for std::exception
    exception_dtor.o(.constdata__ZTVSt9exception) refers to exception_dtor.o(i._ZNSt9exceptionD1Ev) for std::exception::~exception()
    exception_dtor.o(.constdata__ZTVSt9exception) refers to exception_dtor.o(i._ZNSt9exceptionD0Ev) for std::exception::~exception__deallocating()
    exception_dtor.o(.constdata__ZTVSt9exception) refers to exception_what.o(i._ZNKSt9exception4whatEv) for std::exception::what() const
    exception_dtor.o(.constdata__ZTISt9exception) refers to lib_rtti_impl.o(.constdata__ZTVN10__cxxabiv117__class_type_infoE) for vtable for __cxxabiv1::__class_type_info
    exception_dtor.o(.constdata__ZTISt9exception) refers to exception_dtor.o(.constdata__ZTSSt9exception) for typeinfo name for std::exception


==============================================================================

Removing Unused input sections from the image.

    Removing stm32f0xx_hal_i2c.o(.rev16_text), (4 bytes).
    Removing stm32f0xx_hal_i2c.o(.revsh_text), (4 bytes).
    Removing stm32f0xx_hal_i2c.o(i.HAL_I2C_AbortCpltCallback), (2 bytes).
    Removing stm32f0xx_hal_i2c.o(i.HAL_I2C_AddrCallback), (2 bytes).
    Removing stm32f0xx_hal_i2c.o(i.HAL_I2C_DeInit), (44 bytes).
    Removing stm32f0xx_hal_i2c.o(i.HAL_I2C_DisableListen_IT), (44 bytes).
    Removing stm32f0xx_hal_i2c.o(i.HAL_I2C_ER_IRQHandler), (88 bytes).
    Removing stm32f0xx_hal_i2c.o(i.HAL_I2C_EV_IRQHandler), (16 bytes).
    Removing stm32f0xx_hal_i2c.o(i.HAL_I2C_EnableListen_IT), (36 bytes).
    Removing stm32f0xx_hal_i2c.o(i.HAL_I2C_ErrorCallback), (2 bytes).
    Removing stm32f0xx_hal_i2c.o(i.HAL_I2C_GetError), (4 bytes).
    Removing stm32f0xx_hal_i2c.o(i.HAL_I2C_GetMode), (4 bytes).
    Removing stm32f0xx_hal_i2c.o(i.HAL_I2C_GetState), (4 bytes).
    Removing stm32f0xx_hal_i2c.o(i.HAL_I2C_Init), (176 bytes).
    Removing stm32f0xx_hal_i2c.o(i.HAL_I2C_IsDeviceReady), (276 bytes).
    Removing stm32f0xx_hal_i2c.o(i.HAL_I2C_ListenCpltCallback), (2 bytes).
    Removing stm32f0xx_hal_i2c.o(i.HAL_I2C_MasterRxCpltCallback), (2 bytes).
    Removing stm32f0xx_hal_i2c.o(i.HAL_I2C_MasterTxCpltCallback), (2 bytes).
    Removing stm32f0xx_hal_i2c.o(i.HAL_I2C_Master_Abort_IT), (84 bytes).
    Removing stm32f0xx_hal_i2c.o(i.HAL_I2C_Master_Receive), (276 bytes).
    Removing stm32f0xx_hal_i2c.o(i.HAL_I2C_Master_Receive_DMA), (228 bytes).
    Removing stm32f0xx_hal_i2c.o(i.HAL_I2C_Master_Receive_IT), (120 bytes).
    Removing stm32f0xx_hal_i2c.o(i.HAL_I2C_Master_Sequential_Receive_IT), (112 bytes).
    Removing stm32f0xx_hal_i2c.o(i.HAL_I2C_Master_Sequential_Transmit_IT), (112 bytes).
    Removing stm32f0xx_hal_i2c.o(i.HAL_I2C_Master_Transmit), (276 bytes).
    Removing stm32f0xx_hal_i2c.o(i.HAL_I2C_Master_Transmit_DMA), (232 bytes).
    Removing stm32f0xx_hal_i2c.o(i.HAL_I2C_Master_Transmit_IT), (120 bytes).
    Removing stm32f0xx_hal_i2c.o(i.HAL_I2C_MemRxCpltCallback), (2 bytes).
    Removing stm32f0xx_hal_i2c.o(i.HAL_I2C_MemTxCpltCallback), (2 bytes).
    Removing stm32f0xx_hal_i2c.o(i.HAL_I2C_Mem_Read), (340 bytes).
    Removing stm32f0xx_hal_i2c.o(i.HAL_I2C_Mem_Read_DMA), (244 bytes).
    Removing stm32f0xx_hal_i2c.o(i.HAL_I2C_Mem_Read_IT), (180 bytes).
    Removing stm32f0xx_hal_i2c.o(i.HAL_I2C_Mem_Write), (336 bytes).
    Removing stm32f0xx_hal_i2c.o(i.HAL_I2C_Mem_Write_DMA), (240 bytes).
    Removing stm32f0xx_hal_i2c.o(i.HAL_I2C_Mem_Write_IT), (176 bytes).
    Removing stm32f0xx_hal_i2c.o(i.HAL_I2C_MspDeInit), (2 bytes).
    Removing stm32f0xx_hal_i2c.o(i.HAL_I2C_MspInit), (2 bytes).
    Removing stm32f0xx_hal_i2c.o(i.HAL_I2C_SlaveRxCpltCallback), (2 bytes).
    Removing stm32f0xx_hal_i2c.o(i.HAL_I2C_SlaveTxCpltCallback), (2 bytes).
    Removing stm32f0xx_hal_i2c.o(i.HAL_I2C_Slave_Receive), (284 bytes).
    Removing stm32f0xx_hal_i2c.o(i.HAL_I2C_Slave_Receive_DMA), (152 bytes).
    Removing stm32f0xx_hal_i2c.o(i.HAL_I2C_Slave_Receive_IT), (84 bytes).
    Removing stm32f0xx_hal_i2c.o(i.HAL_I2C_Slave_Sequential_Receive_IT), (136 bytes).
    Removing stm32f0xx_hal_i2c.o(i.HAL_I2C_Slave_Sequential_Transmit_IT), (136 bytes).
    Removing stm32f0xx_hal_i2c.o(i.HAL_I2C_Slave_Transmit), (294 bytes).
    Removing stm32f0xx_hal_i2c.o(i.HAL_I2C_Slave_Transmit_DMA), (152 bytes).
    Removing stm32f0xx_hal_i2c.o(i.HAL_I2C_Slave_Transmit_IT), (84 bytes).
    Removing stm32f0xx_hal_i2c.o(i._ZN41_INTERNAL_19_stm32f0xx_hal_i2c_c_0eb271f411I2C_ITErrorEP19__I2C_HandleTypeDefj), (200 bytes).
    Removing stm32f0xx_hal_i2c.o(i._ZN41_INTERNAL_19_stm32f0xx_hal_i2c_c_0eb271f412I2C_DMAAbortEP19__DMA_HandleTypeDef), (48 bytes).
    Removing stm32f0xx_hal_i2c.o(i._ZN41_INTERNAL_19_stm32f0xx_hal_i2c_c_0eb271f412I2C_DMAErrorEP19__DMA_HandleTypeDef), (24 bytes).
    Removing stm32f0xx_hal_i2c.o(i._ZN41_INTERNAL_19_stm32f0xx_hal_i2c_c_0eb271f414I2C_Enable_IRQEP19__I2C_HandleTypeDeft), (100 bytes).
    Removing stm32f0xx_hal_i2c.o(i._ZN41_INTERNAL_19_stm32f0xx_hal_i2c_c_0eb271f414I2C_Flush_TXDREP19__I2C_HandleTypeDef), (34 bytes).
    Removing stm32f0xx_hal_i2c.o(i._ZN41_INTERNAL_19_stm32f0xx_hal_i2c_c_0eb271f414I2C_ITAddrCpltEP19__I2C_HandleTypeDefj), (116 bytes).
    Removing stm32f0xx_hal_i2c.o(i._ZN41_INTERNAL_19_stm32f0xx_hal_i2c_c_0eb271f415I2C_Disable_IRQEP19__I2C_HandleTypeDeft), (84 bytes).
    Removing stm32f0xx_hal_i2c.o(i._ZN41_INTERNAL_19_stm32f0xx_hal_i2c_c_0eb271f415I2C_ITSlaveCpltEP19__I2C_HandleTypeDefj), (228 bytes).
    Removing stm32f0xx_hal_i2c.o(i._ZN41_INTERNAL_19_stm32f0xx_hal_i2c_c_0eb271f416I2C_ITListenCpltEP19__I2C_HandleTypeDefj), (88 bytes).
    Removing stm32f0xx_hal_i2c.o(i._ZN41_INTERNAL_19_stm32f0xx_hal_i2c_c_0eb271f416I2C_ITMasterCpltEP19__I2C_HandleTypeDefj), (156 bytes).
    Removing stm32f0xx_hal_i2c.o(i._ZN41_INTERNAL_19_stm32f0xx_hal_i2c_c_0eb271f416I2C_Slave_ISR_ITEP19__I2C_HandleTypeDefjj), (276 bytes).
    Removing stm32f0xx_hal_i2c.o(i._ZN41_INTERNAL_19_stm32f0xx_hal_i2c_c_0eb271f417I2C_Master_ISR_ITEP19__I2C_HandleTypeDefjj), (288 bytes).
    Removing stm32f0xx_hal_i2c.o(i._ZN41_INTERNAL_19_stm32f0xx_hal_i2c_c_0eb271f417I2C_Slave_ISR_DMAEP19__I2C_HandleTypeDefjj), (98 bytes).
    Removing stm32f0xx_hal_i2c.o(i._ZN41_INTERNAL_19_stm32f0xx_hal_i2c_c_0eb271f418I2C_Master_ISR_DMAEP19__I2C_HandleTypeDefjj), (190 bytes).
    Removing stm32f0xx_hal_i2c.o(i._ZN41_INTERNAL_19_stm32f0xx_hal_i2c_c_0eb271f418I2C_TransferConfigEP19__I2C_HandleTypeDefthjj), (36 bytes).
    Removing stm32f0xx_hal_i2c.o(i._ZN41_INTERNAL_19_stm32f0xx_hal_i2c_c_0eb271f421I2C_RequestMemoryReadEP19__I2C_HandleTypeDeftttjj), (106 bytes).
    Removing stm32f0xx_hal_i2c.o(i._ZN41_INTERNAL_19_stm32f0xx_hal_i2c_c_0eb271f422I2C_RequestMemoryWriteEP19__I2C_HandleTypeDeftttjj), (106 bytes).
    Removing stm32f0xx_hal_i2c.o(i._ZN41_INTERNAL_19_stm32f0xx_hal_i2c_c_0eb271f423I2C_DMASlaveReceiveCpltEP19__DMA_HandleTypeDef), (2 bytes).
    Removing stm32f0xx_hal_i2c.o(i._ZN41_INTERNAL_19_stm32f0xx_hal_i2c_c_0eb271f423I2C_IsAcknowledgeFailedEP19__I2C_HandleTypeDefjj), (112 bytes).
    Removing stm32f0xx_hal_i2c.o(i._ZN41_INTERNAL_19_stm32f0xx_hal_i2c_c_0eb271f424I2C_DMAMasterReceiveCpltEP19__DMA_HandleTypeDef), (68 bytes).
    Removing stm32f0xx_hal_i2c.o(i._ZN41_INTERNAL_19_stm32f0xx_hal_i2c_c_0eb271f424I2C_DMASlaveTransmitCpltEP19__DMA_HandleTypeDef), (2 bytes).
    Removing stm32f0xx_hal_i2c.o(i._ZN41_INTERNAL_19_stm32f0xx_hal_i2c_c_0eb271f425I2C_DMAMasterTransmitCpltEP19__DMA_HandleTypeDef), (68 bytes).
    Removing stm32f0xx_hal_i2c.o(i._ZN41_INTERNAL_19_stm32f0xx_hal_i2c_c_0eb271f425I2C_ITSlaveSequentialCpltEP19__I2C_HandleTypeDef), (70 bytes).
    Removing stm32f0xx_hal_i2c.o(i._ZN41_INTERNAL_19_stm32f0xx_hal_i2c_c_0eb271f426I2C_ITMasterSequentialCpltEP19__I2C_HandleTypeDef), (66 bytes).
    Removing stm32f0xx_hal_i2c.o(i._ZN41_INTERNAL_19_stm32f0xx_hal_i2c_c_0eb271f426I2C_WaitOnFlagUntilTimeoutEP19__I2C_HandleTypeDefj10FlagStatusjj), (70 bytes).
    Removing stm32f0xx_hal_i2c.o(i._ZN41_INTERNAL_19_stm32f0xx_hal_i2c_c_0eb271f430I2C_WaitOnRXNEFlagUntilTimeoutEP19__I2C_HandleTypeDefjj), (116 bytes).
    Removing stm32f0xx_hal_i2c.o(i._ZN41_INTERNAL_19_stm32f0xx_hal_i2c_c_0eb271f430I2C_WaitOnSTOPFlagUntilTimeoutEP19__I2C_HandleTypeDefjj), (76 bytes).
    Removing stm32f0xx_hal_i2c.o(i._ZN41_INTERNAL_19_stm32f0xx_hal_i2c_c_0eb271f430I2C_WaitOnTXISFlagUntilTimeoutEP19__I2C_HandleTypeDefjj), (80 bytes).
    Removing stm32f0xx_hal_i2c.o(.ARM.exidx), (8 bytes).
    Removing stm32f0xx_hal_i2c.o(.ARM.exidx), (8 bytes).
    Removing stm32f0xx_hal_i2c.o(.ARM.exidx), (8 bytes).
    Removing stm32f0xx_hal_i2c.o(.ARM.exidx), (8 bytes).
    Removing stm32f0xx_hal_i2c.o(.ARM.exidx), (8 bytes).
    Removing stm32f0xx_hal_i2c.o(.ARM.exidx), (8 bytes).
    Removing stm32f0xx_hal_i2c.o(.ARM.exidx), (8 bytes).
    Removing stm32f0xx_hal_i2c.o(.ARM.exidx), (8 bytes).
    Removing stm32f0xx_hal_i2c.o(.ARM.exidx), (8 bytes).
    Removing stm32f0xx_hal_i2c.o(.ARM.exidx), (8 bytes).
    Removing stm32f0xx_hal_i2c.o(.ARM.exidx), (8 bytes).
    Removing stm32f0xx_hal_i2c.o(.ARM.exidx), (8 bytes).
    Removing stm32f0xx_hal_i2c.o(.ARM.exidx), (8 bytes).
    Removing stm32f0xx_hal_i2c.o(.ARM.exidx), (8 bytes).
    Removing stm32f0xx_hal_i2c.o(.ARM.exidx), (8 bytes).
    Removing stm32f0xx_hal_i2c.o(.ARM.exidx), (8 bytes).
    Removing stm32f0xx_hal_i2c.o(.ARM.exidx), (8 bytes).
    Removing stm32f0xx_hal_i2c.o(.ARM.exidx), (8 bytes).
    Removing stm32f0xx_hal_i2c.o(.ARM.exidx), (8 bytes).
    Removing stm32f0xx_hal_i2c.o(.ARM.exidx), (8 bytes).
    Removing stm32f0xx_hal_i2c.o(.ARM.exidx), (8 bytes).
    Removing stm32f0xx_hal_i2c.o(.ARM.exidx), (8 bytes).
    Removing stm32f0xx_hal_i2c.o(.ARM.exidx), (8 bytes).
    Removing stm32f0xx_hal_i2c.o(.ARM.exidx), (8 bytes).
    Removing stm32f0xx_hal_i2c.o(.ARM.exidx), (8 bytes).
    Removing stm32f0xx_hal_i2c.o(.ARM.exidx), (8 bytes).
    Removing stm32f0xx_hal_i2c.o(.ARM.exidx), (8 bytes).
    Removing stm32f0xx_hal_i2c.o(.ARM.exidx), (8 bytes).
    Removing stm32f0xx_hal_i2c.o(.ARM.exidx), (8 bytes).
    Removing stm32f0xx_hal_i2c.o(.ARM.exidx), (8 bytes).
    Removing stm32f0xx_hal_i2c.o(.ARM.exidx), (8 bytes).
    Removing stm32f0xx_hal_i2c.o(.ARM.exidx), (8 bytes).
    Removing stm32f0xx_hal_i2c.o(.ARM.exidx), (8 bytes).
    Removing stm32f0xx_hal_i2c.o(.ARM.exidx), (8 bytes).
    Removing stm32f0xx_hal_i2c.o(.ARM.exidx), (8 bytes).
    Removing stm32f0xx_hal_i2c.o(.ARM.exidx), (8 bytes).
    Removing stm32f0xx_hal_i2c.o(.ARM.exidx), (8 bytes).
    Removing stm32f0xx_hal_i2c.o(.ARM.exidx), (8 bytes).
    Removing stm32f0xx_hal_i2c.o(.ARM.exidx), (8 bytes).
    Removing stm32f0xx_hal_i2c.o(.ARM.exidx), (8 bytes).
    Removing stm32f0xx_hal_i2c.o(.ARM.exidx), (8 bytes).
    Removing stm32f0xx_hal_i2c.o(.ARM.exidx), (8 bytes).
    Removing stm32f0xx_hal_i2c.o(.ARM.exidx), (8 bytes).
    Removing stm32f0xx_hal_i2c.o(.ARM.exidx), (8 bytes).
    Removing stm32f0xx_hal_i2c.o(.ARM.exidx), (8 bytes).
    Removing stm32f0xx_hal_i2c.o(.ARM.exidx), (8 bytes).
    Removing stm32f0xx_hal_i2c.o(.ARM.exidx), (8 bytes).
    Removing stm32f0xx_hal_i2c.o(.ARM.exidx), (8 bytes).
    Removing stm32f0xx_hal_i2c.o(.ARM.exidx), (8 bytes).
    Removing stm32f0xx_hal_i2c.o(.ARM.exidx), (8 bytes).
    Removing stm32f0xx_hal_i2c.o(.ARM.exidx), (8 bytes).
    Removing stm32f0xx_hal_i2c.o(.ARM.exidx), (8 bytes).
    Removing stm32f0xx_hal_i2c.o(.ARM.exidx), (8 bytes).
    Removing stm32f0xx_hal_i2c.o(.ARM.exidx), (8 bytes).
    Removing stm32f0xx_hal_i2c.o(.ARM.exidx), (8 bytes).
    Removing stm32f0xx_hal_i2c.o(.ARM.exidx), (8 bytes).
    Removing stm32f0xx_hal_i2c.o(.ARM.exidx), (8 bytes).
    Removing stm32f0xx_hal_i2c.o(.ARM.exidx), (8 bytes).
    Removing stm32f0xx_hal_i2c.o(.ARM.exidx), (8 bytes).
    Removing stm32f0xx_hal_i2c.o(.ARM.exidx), (8 bytes).
    Removing stm32f0xx_hal_i2c.o(.ARM.exidx), (8 bytes).
    Removing stm32f0xx_hal_i2c.o(.ARM.exidx), (8 bytes).
    Removing stm32f0xx_hal_i2c.o(.ARM.exidx), (8 bytes).
    Removing stm32f0xx_hal_i2c.o(.ARM.exidx), (8 bytes).
    Removing stm32f0xx_hal_i2c.o(.ARM.exidx), (8 bytes).
    Removing stm32f0xx_hal_i2c.o(.ARM.exidx), (8 bytes).
    Removing stm32f0xx_hal_i2c.o(.ARM.exidx), (8 bytes).
    Removing stm32f0xx_hal_i2c.o(.ARM.exidx), (8 bytes).
    Removing stm32f0xx_hal_i2c.o(.ARM.exidx), (8 bytes).
    Removing stm32f0xx_hal_i2c.o(.ARM.exidx), (8 bytes).
    Removing stm32f0xx_hal_i2c.o(.ARM.exidx), (8 bytes).
    Removing stm32f0xx_hal_i2c.o(.ARM.exidx), (8 bytes).
    Removing stm32f0xx_hal_i2c.o(.ARM.exidx), (8 bytes).
    Removing stm32f0xx_hal_dma.o(.rev16_text), (4 bytes).
    Removing stm32f0xx_hal_dma.o(.revsh_text), (4 bytes).
    Removing stm32f0xx_hal_dma.o(i.HAL_DMA_Abort_IT), (68 bytes).
    Removing stm32f0xx_hal_dma.o(i.HAL_DMA_DeInit), (64 bytes).
    Removing stm32f0xx_hal_dma.o(i.HAL_DMA_GetError), (4 bytes).
    Removing stm32f0xx_hal_dma.o(i.HAL_DMA_GetState), (4 bytes).
    Removing stm32f0xx_hal_dma.o(i.HAL_DMA_PollForTransfer), (162 bytes).
    Removing stm32f0xx_hal_dma.o(i.HAL_DMA_Start), (68 bytes).
    Removing stm32f0xx_hal_dma.o(i.HAL_DMA_UnRegisterCallback), (74 bytes).
    Removing stm32f0xx_hal_dma.o(i._Z24HAL_DMA_RegisterCallbackP19__DMA_HandleTypeDef25HAL_DMA_CallbackIDTypeDefPFvS0_E), (68 bytes).
    Removing stm32f0xx_hal_dma.o(.ARM.exidx), (8 bytes).
    Removing stm32f0xx_hal_dma.o(.ARM.exidx), (8 bytes).
    Removing stm32f0xx_hal_dma.o(.ARM.exidx), (8 bytes).
    Removing stm32f0xx_hal_dma.o(.ARM.exidx), (8 bytes).
    Removing stm32f0xx_hal_dma.o(.ARM.exidx), (8 bytes).
    Removing stm32f0xx_hal_dma.o(.ARM.exidx), (8 bytes).
    Removing stm32f0xx_hal_dma.o(.ARM.exidx), (8 bytes).
    Removing stm32f0xx_hal_dma.o(.ARM.exidx), (8 bytes).
    Removing stm32f0xx_hal_dma.o(.ARM.exidx), (8 bytes).
    Removing stm32f0xx_hal_dma.o(.ARM.exidx), (8 bytes).
    Removing stm32f0xx_hal_dma.o(.ARM.exidx), (8 bytes).
    Removing stm32f0xx_hal_dma.o(.ARM.exidx), (8 bytes).
    Removing stm32f0xx_hal_dma.o(.ARM.exidx), (8 bytes).
    Removing stm32f0xx_hal_dma.o(.ARM.exidx), (8 bytes).
    Removing stm32f0xx_hal_tsc.o(.rev16_text), (4 bytes).
    Removing stm32f0xx_hal_tsc.o(.revsh_text), (4 bytes).
    Removing stm32f0xx_hal_tsc.o(i.HAL_TSC_DeInit), (28 bytes).
    Removing stm32f0xx_hal_tsc.o(i.HAL_TSC_GetState), (36 bytes).
    Removing stm32f0xx_hal_tsc.o(i.HAL_TSC_GroupGetStatus), (22 bytes).
    Removing stm32f0xx_hal_tsc.o(i.HAL_TSC_GroupGetValue), (10 bytes).
    Removing stm32f0xx_hal_tsc.o(i.HAL_TSC_IOConfig), (76 bytes).
    Removing stm32f0xx_hal_tsc.o(i.HAL_TSC_IODischarge), (40 bytes).
    Removing stm32f0xx_hal_tsc.o(i.HAL_TSC_MspDeInit), (2 bytes).
    Removing stm32f0xx_hal_tsc.o(i.HAL_TSC_MspInit), (2 bytes).
    Removing stm32f0xx_hal_tsc.o(i.HAL_TSC_PollForAcquisition), (34 bytes).
    Removing stm32f0xx_hal_tsc.o(i.HAL_TSC_Start), (72 bytes).
    Removing stm32f0xx_hal_tsc.o(i.HAL_TSC_Stop), (52 bytes).
    Removing stm32f0xx_hal_tsc.o(i.HAL_TSC_Stop_IT), (62 bytes).
    Removing stm32f0xx_hal_tsc.o(.ARM.exidx), (8 bytes).
    Removing stm32f0xx_hal_tsc.o(.ARM.exidx), (8 bytes).
    Removing stm32f0xx_hal_tsc.o(.ARM.exidx), (8 bytes).
    Removing stm32f0xx_hal_tsc.o(.ARM.exidx), (8 bytes).
    Removing stm32f0xx_hal_tsc.o(.ARM.exidx), (8 bytes).
    Removing stm32f0xx_hal_tsc.o(.ARM.exidx), (8 bytes).
    Removing stm32f0xx_hal_tsc.o(.ARM.exidx), (8 bytes).
    Removing stm32f0xx_hal_tsc.o(.ARM.exidx), (8 bytes).
    Removing stm32f0xx_hal_tsc.o(.ARM.exidx), (8 bytes).
    Removing stm32f0xx_hal_tsc.o(.ARM.exidx), (8 bytes).
    Removing stm32f0xx_hal_tsc.o(.ARM.exidx), (8 bytes).
    Removing stm32f0xx_hal_tsc.o(.ARM.exidx), (8 bytes).
    Removing stm32f0xx_hal_tsc.o(.ARM.exidx), (8 bytes).
    Removing stm32f0xx_hal_tsc.o(.ARM.exidx), (8 bytes).
    Removing stm32f0xx_hal_tsc.o(.ARM.exidx), (8 bytes).
    Removing stm32f0xx_hal_tsc.o(.ARM.exidx), (8 bytes).
    Removing stm32f0xx_hal_tsc.o(.ARM.exidx), (8 bytes).
    Removing stm32f0xx_hal_tsc.o(.ARM.exidx), (8 bytes).
    Removing stm32f0xx_hal_pwr_ex.o(.rev16_text), (4 bytes).
    Removing stm32f0xx_hal_pwr_ex.o(.revsh_text), (4 bytes).
    Removing stm32f0xx_hal_pwr_ex.o(i.HAL_PWREx_DisableVddio2Monitor), (32 bytes).
    Removing stm32f0xx_hal_pwr_ex.o(i.HAL_PWREx_EnableVddio2Monitor), (24 bytes).
    Removing stm32f0xx_hal_pwr_ex.o(i.HAL_PWREx_Vddio2MonitorCallback), (2 bytes).
    Removing stm32f0xx_hal_pwr_ex.o(i.HAL_PWREx_Vddio2Monitor_IRQHandler), (24 bytes).
    Removing stm32f0xx_hal_pwr_ex.o(i.HAL_PWR_DisablePVD), (16 bytes).
    Removing stm32f0xx_hal_pwr_ex.o(i.HAL_PWR_PVDCallback), (2 bytes).
    Removing stm32f0xx_hal_pwr_ex.o(i.HAL_PWR_PVD_IRQHandler), (28 bytes).
    Removing stm32f0xx_hal_pwr_ex.o(.ARM.exidx), (8 bytes).
    Removing stm32f0xx_hal_pwr_ex.o(.ARM.exidx), (8 bytes).
    Removing stm32f0xx_hal_pwr_ex.o(.ARM.exidx), (8 bytes).
    Removing stm32f0xx_hal_pwr_ex.o(.ARM.exidx), (8 bytes).
    Removing stm32f0xx_hal_pwr_ex.o(.ARM.exidx), (8 bytes).
    Removing stm32f0xx_hal_pwr_ex.o(.ARM.exidx), (8 bytes).
    Removing stm32f0xx_hal_pwr_ex.o(.ARM.exidx), (8 bytes).
    Removing stm32f0xx_hal_pwr_ex.o(.ARM.exidx), (8 bytes).
    Removing stm32f0xx_hal_pwr_ex.o(.ARM.exidx), (8 bytes).
    Removing stm32f0xx_hal_flash_ex.o(.rev16_text), (4 bytes).
    Removing stm32f0xx_hal_flash_ex.o(.revsh_text), (4 bytes).
    Removing stm32f0xx_hal_flash_ex.o(i.HAL_FLASHEx_Erase_IT), (88 bytes).
    Removing stm32f0xx_hal_flash_ex.o(i.HAL_FLASHEx_OBErase), (80 bytes).
    Removing stm32f0xx_hal_flash_ex.o(i.HAL_FLASHEx_OBGetConfig), (36 bytes).
    Removing stm32f0xx_hal_flash_ex.o(i.HAL_FLASHEx_OBGetUserData), (28 bytes).
    Removing stm32f0xx_hal_flash_ex.o(i.HAL_FLASHEx_OBProgram), (204 bytes).
    Removing stm32f0xx_hal_flash_ex.o(i._ZN46_INTERNAL_24_stm32f0xx_hal_flash_ex_c_6648b60e15FLASH_OB_GetRDPEv), (32 bytes).
    Removing stm32f0xx_hal_flash_ex.o(i._ZN46_INTERNAL_24_stm32f0xx_hal_flash_ex_c_6648b60e18FLASH_OB_EnableWRPEj), (164 bytes).
    Removing stm32f0xx_hal_flash_ex.o(i._ZN46_INTERNAL_24_stm32f0xx_hal_flash_ex_c_6648b60e19FLASH_OB_DisableWRPEj), (164 bytes).
    Removing stm32f0xx_hal_flash_ex.o(i._ZN46_INTERNAL_24_stm32f0xx_hal_flash_ex_c_6648b60e24FLASH_OB_RDP_LevelConfigEh), (96 bytes).
    Removing stm32f0xx_hal_flash_ex.o(.ARM.exidx), (8 bytes).
    Removing stm32f0xx_hal_flash_ex.o(.ARM.exidx), (8 bytes).
    Removing stm32f0xx_hal_flash_ex.o(.ARM.exidx), (8 bytes).
    Removing stm32f0xx_hal_flash_ex.o(.ARM.exidx), (8 bytes).
    Removing stm32f0xx_hal_flash_ex.o(.ARM.exidx), (8 bytes).
    Removing stm32f0xx_hal_flash_ex.o(.ARM.exidx), (8 bytes).
    Removing stm32f0xx_hal_flash_ex.o(.ARM.exidx), (8 bytes).
    Removing stm32f0xx_hal_flash_ex.o(.ARM.exidx), (8 bytes).
    Removing stm32f0xx_hal_flash_ex.o(.ARM.exidx), (8 bytes).
    Removing stm32f0xx_hal_flash_ex.o(.ARM.exidx), (8 bytes).
    Removing stm32f0xx_hal_flash_ex.o(.ARM.exidx), (8 bytes).
    Removing stm32f0xx_hal_flash_ex.o(.ARM.exidx), (8 bytes).
    Removing stm32f0xx_hal_cortex.o(.rev16_text), (4 bytes).
    Removing stm32f0xx_hal_cortex.o(.revsh_text), (4 bytes).
    Removing stm32f0xx_hal_cortex.o(i.HAL_NVIC_ClearPendingIRQ), (20 bytes).
    Removing stm32f0xx_hal_cortex.o(i.HAL_NVIC_DisableIRQ), (20 bytes).
    Removing stm32f0xx_hal_cortex.o(i.HAL_NVIC_GetPendingIRQ), (28 bytes).
    Removing stm32f0xx_hal_cortex.o(i.HAL_NVIC_GetPriority), (52 bytes).
    Removing stm32f0xx_hal_cortex.o(i.HAL_NVIC_SetPendingIRQ), (20 bytes).
    Removing stm32f0xx_hal_cortex.o(i.HAL_NVIC_SystemReset), (28 bytes).
    Removing stm32f0xx_hal_cortex.o(.ARM.exidx), (8 bytes).
    Removing stm32f0xx_hal_cortex.o(.ARM.exidx), (8 bytes).
    Removing stm32f0xx_hal_cortex.o(.ARM.exidx), (8 bytes).
    Removing stm32f0xx_hal_cortex.o(.ARM.exidx), (8 bytes).
    Removing stm32f0xx_hal_cortex.o(.ARM.exidx), (8 bytes).
    Removing stm32f0xx_hal_cortex.o(.ARM.exidx), (8 bytes).
    Removing stm32f0xx_hal_cortex.o(.ARM.exidx), (8 bytes).
    Removing stm32f0xx_hal_cortex.o(.ARM.exidx), (8 bytes).
    Removing stm32f0xx_hal_cortex.o(.ARM.exidx), (8 bytes).
    Removing stm32f0xx_hal_cortex.o(.ARM.exidx), (8 bytes).
    Removing stm32f0xx_hal_cortex.o(.ARM.exidx), (8 bytes).
    Removing stm32f0xx_hal_cortex.o(.ARM.exidx), (8 bytes).
    Removing stm32f0xx_hal_cortex.o(.ARM.exidx), (8 bytes).
    Removing stm32f0xx_hal_tim_ex.o(.rev16_text), (4 bytes).
    Removing stm32f0xx_hal_tim_ex.o(.revsh_text), (4 bytes).
    Removing stm32f0xx_hal_tim_ex.o(i.HAL_TIMEx_ConfigBreakDeadTime), (92 bytes).
    Removing stm32f0xx_hal_tim_ex.o(i.HAL_TIMEx_ConfigCommutationEvent), (86 bytes).
    Removing stm32f0xx_hal_tim_ex.o(i.HAL_TIMEx_ConfigCommutationEvent_DMA), (116 bytes).
    Removing stm32f0xx_hal_tim_ex.o(i.HAL_TIMEx_ConfigCommutationEvent_IT), (96 bytes).
    Removing stm32f0xx_hal_tim_ex.o(i.HAL_TIMEx_HallSensor_DeInit), (52 bytes).
    Removing stm32f0xx_hal_tim_ex.o(i.HAL_TIMEx_HallSensor_GetState), (4 bytes).
    Removing stm32f0xx_hal_tim_ex.o(i.HAL_TIMEx_HallSensor_Init), (178 bytes).
    Removing stm32f0xx_hal_tim_ex.o(i.HAL_TIMEx_HallSensor_MspDeInit), (2 bytes).
    Removing stm32f0xx_hal_tim_ex.o(i.HAL_TIMEx_HallSensor_MspInit), (2 bytes).
    Removing stm32f0xx_hal_tim_ex.o(i.HAL_TIMEx_HallSensor_Start), (28 bytes).
    Removing stm32f0xx_hal_tim_ex.o(i.HAL_TIMEx_HallSensor_Start_DMA), (104 bytes).
    Removing stm32f0xx_hal_tim_ex.o(i.HAL_TIMEx_HallSensor_Start_IT), (38 bytes).
    Removing stm32f0xx_hal_tim_ex.o(i.HAL_TIMEx_HallSensor_Stop), (48 bytes).
    Removing stm32f0xx_hal_tim_ex.o(i.HAL_TIMEx_HallSensor_Stop_DMA), (60 bytes).
    Removing stm32f0xx_hal_tim_ex.o(i.HAL_TIMEx_HallSensor_Stop_IT), (60 bytes).
    Removing stm32f0xx_hal_tim_ex.o(i.HAL_TIMEx_OCN_Start), (38 bytes).
    Removing stm32f0xx_hal_tim_ex.o(i.HAL_TIMEx_OCN_Start_DMA), (224 bytes).
    Removing stm32f0xx_hal_tim_ex.o(i.HAL_TIMEx_OCN_Start_IT), (94 bytes).
    Removing stm32f0xx_hal_tim_ex.o(i.HAL_TIMEx_OCN_Stop), (76 bytes).
    Removing stm32f0xx_hal_tim_ex.o(i.HAL_TIMEx_OCN_Stop_DMA), (132 bytes).
    Removing stm32f0xx_hal_tim_ex.o(i.HAL_TIMEx_OCN_Stop_IT), (136 bytes).
    Removing stm32f0xx_hal_tim_ex.o(i.HAL_TIMEx_OnePulseN_Start), (28 bytes).
    Removing stm32f0xx_hal_tim_ex.o(i.HAL_TIMEx_OnePulseN_Start_IT), (48 bytes).
    Removing stm32f0xx_hal_tim_ex.o(i.HAL_TIMEx_OnePulseN_Stop), (76 bytes).
    Removing stm32f0xx_hal_tim_ex.o(i.HAL_TIMEx_OnePulseN_Stop_IT), (96 bytes).
    Removing stm32f0xx_hal_tim_ex.o(i.HAL_TIMEx_PWMN_Start), (38 bytes).
    Removing stm32f0xx_hal_tim_ex.o(i.HAL_TIMEx_PWMN_Start_DMA), (224 bytes).
    Removing stm32f0xx_hal_tim_ex.o(i.HAL_TIMEx_PWMN_Start_IT), (94 bytes).
    Removing stm32f0xx_hal_tim_ex.o(i.HAL_TIMEx_PWMN_Stop), (76 bytes).
    Removing stm32f0xx_hal_tim_ex.o(i.HAL_TIMEx_PWMN_Stop_DMA), (132 bytes).
    Removing stm32f0xx_hal_tim_ex.o(i.HAL_TIMEx_PWMN_Stop_IT), (136 bytes).
    Removing stm32f0xx_hal_tim_ex.o(i.HAL_TIMEx_RemapConfig), (26 bytes).
    Removing stm32f0xx_hal_tim_ex.o(i.HAL_TIM_ConfigOCrefClear), (194 bytes).
    Removing stm32f0xx_hal_tim_ex.o(i.TIMEx_DMACommutationCplt), (14 bytes).
    Removing stm32f0xx_hal_tim_ex.o(i._ZN44_INTERNAL_22_stm32f0xx_hal_tim_ex_c_e8ef392018TIM_CCxNChannelCmdEP11TIM_TypeDefjj), (22 bytes).
    Removing stm32f0xx_hal_tim_ex.o(.ARM.exidx), (8 bytes).
    Removing stm32f0xx_hal_tim_ex.o(.ARM.exidx), (8 bytes).
    Removing stm32f0xx_hal_tim_ex.o(.ARM.exidx), (8 bytes).
    Removing stm32f0xx_hal_tim_ex.o(.ARM.exidx), (8 bytes).
    Removing stm32f0xx_hal_tim_ex.o(.ARM.exidx), (8 bytes).
    Removing stm32f0xx_hal_tim_ex.o(.ARM.exidx), (8 bytes).
    Removing stm32f0xx_hal_tim_ex.o(.ARM.exidx), (8 bytes).
    Removing stm32f0xx_hal_tim_ex.o(.ARM.exidx), (8 bytes).
    Removing stm32f0xx_hal_tim_ex.o(.ARM.exidx), (8 bytes).
    Removing stm32f0xx_hal_tim_ex.o(.ARM.exidx), (8 bytes).
    Removing stm32f0xx_hal_tim_ex.o(.ARM.exidx), (8 bytes).
    Removing stm32f0xx_hal_tim_ex.o(.ARM.exidx), (8 bytes).
    Removing stm32f0xx_hal_tim_ex.o(.ARM.exidx), (8 bytes).
    Removing stm32f0xx_hal_tim_ex.o(.ARM.exidx), (8 bytes).
    Removing stm32f0xx_hal_tim_ex.o(.ARM.exidx), (8 bytes).
    Removing stm32f0xx_hal_tim_ex.o(.ARM.exidx), (8 bytes).
    Removing stm32f0xx_hal_tim_ex.o(.ARM.exidx), (8 bytes).
    Removing stm32f0xx_hal_tim_ex.o(.ARM.exidx), (8 bytes).
    Removing stm32f0xx_hal_tim_ex.o(.ARM.exidx), (8 bytes).
    Removing stm32f0xx_hal_tim_ex.o(.ARM.exidx), (8 bytes).
    Removing stm32f0xx_hal_tim_ex.o(.ARM.exidx), (8 bytes).
    Removing stm32f0xx_hal_tim_ex.o(.ARM.exidx), (8 bytes).
    Removing stm32f0xx_hal_tim_ex.o(.ARM.exidx), (8 bytes).
    Removing stm32f0xx_hal_tim_ex.o(.ARM.exidx), (8 bytes).
    Removing stm32f0xx_hal_tim_ex.o(.ARM.exidx), (8 bytes).
    Removing stm32f0xx_hal_tim_ex.o(.ARM.exidx), (8 bytes).
    Removing stm32f0xx_hal_tim_ex.o(.ARM.exidx), (8 bytes).
    Removing stm32f0xx_hal_tim_ex.o(.ARM.exidx), (8 bytes).
    Removing stm32f0xx_hal_tim_ex.o(.ARM.exidx), (8 bytes).
    Removing stm32f0xx_hal_tim_ex.o(.ARM.exidx), (8 bytes).
    Removing stm32f0xx_hal_tim_ex.o(.ARM.exidx), (8 bytes).
    Removing stm32f0xx_hal_tim_ex.o(.ARM.exidx), (8 bytes).
    Removing stm32f0xx_hal_tim_ex.o(.ARM.exidx), (8 bytes).
    Removing stm32f0xx_hal_tim_ex.o(.ARM.exidx), (8 bytes).
    Removing stm32f0xx_hal_tim_ex.o(.ARM.exidx), (8 bytes).
    Removing stm32f0xx_hal_tim_ex.o(.ARM.exidx), (8 bytes).
    Removing stm32f0xx_hal_tim_ex.o(.ARM.exidx), (8 bytes).
    Removing stm32f0xx_hal_tim_ex.o(.ARM.exidx), (8 bytes).
    Removing stm32f0xx_hal_rcc_ex.o(.rev16_text), (4 bytes).
    Removing stm32f0xx_hal_rcc_ex.o(.revsh_text), (4 bytes).
    Removing stm32f0xx_hal_rcc_ex.o(i.HAL_RCCEx_CRSConfig), (76 bytes).
    Removing stm32f0xx_hal_rcc_ex.o(i.HAL_RCCEx_CRSGetSynchronizationInfo), (40 bytes).
    Removing stm32f0xx_hal_rcc_ex.o(i.HAL_RCCEx_CRSSoftwareSynchronizationGenerate), (16 bytes).
    Removing stm32f0xx_hal_rcc_ex.o(i.HAL_RCCEx_CRSWaitSynchronization), (120 bytes).
    Removing stm32f0xx_hal_rcc_ex.o(i.HAL_RCCEx_CRS_ErrorCallback), (2 bytes).
    Removing stm32f0xx_hal_rcc_ex.o(i.HAL_RCCEx_CRS_ExpectedSyncCallback), (2 bytes).
    Removing stm32f0xx_hal_rcc_ex.o(i.HAL_RCCEx_CRS_IRQHandler), (112 bytes).
    Removing stm32f0xx_hal_rcc_ex.o(i.HAL_RCCEx_CRS_SyncOkCallback), (2 bytes).
    Removing stm32f0xx_hal_rcc_ex.o(i.HAL_RCCEx_CRS_SyncWarnCallback), (2 bytes).
    Removing stm32f0xx_hal_rcc_ex.o(i.HAL_RCCEx_GetPeriphCLKConfig), (76 bytes).
    Removing stm32f0xx_hal_rcc_ex.o(i.HAL_RCCEx_GetPeriphCLKFreq), (232 bytes).
    Removing stm32f0xx_hal_rcc_ex.o(i.HAL_RCCEx_PeriphCLKConfig), (272 bytes).
    Removing stm32f0xx_hal_rcc_ex.o(.ARM.exidx), (8 bytes).
    Removing stm32f0xx_hal_rcc_ex.o(.ARM.exidx), (8 bytes).
    Removing stm32f0xx_hal_rcc_ex.o(.ARM.exidx), (8 bytes).
    Removing stm32f0xx_hal_rcc_ex.o(.ARM.exidx), (8 bytes).
    Removing stm32f0xx_hal_rcc_ex.o(.ARM.exidx), (8 bytes).
    Removing stm32f0xx_hal_rcc_ex.o(.ARM.exidx), (8 bytes).
    Removing stm32f0xx_hal_rcc_ex.o(.ARM.exidx), (8 bytes).
    Removing stm32f0xx_hal_rcc_ex.o(.ARM.exidx), (8 bytes).
    Removing stm32f0xx_hal_rcc_ex.o(.ARM.exidx), (8 bytes).
    Removing stm32f0xx_hal_rcc_ex.o(.ARM.exidx), (8 bytes).
    Removing stm32f0xx_hal_rcc_ex.o(.ARM.exidx), (8 bytes).
    Removing stm32f0xx_hal_rcc_ex.o(.ARM.exidx), (8 bytes).
    Removing stm32f0xx_hal_adc_ex.o(.rev16_text), (4 bytes).
    Removing stm32f0xx_hal_adc_ex.o(.revsh_text), (4 bytes).
    Removing stm32f0xx_hal_adc_ex.o(.ARM.exidx), (8 bytes).
    Removing stm32f0xx_hal_pwr.o(.rev16_text), (4 bytes).
    Removing stm32f0xx_hal_pwr.o(.revsh_text), (4 bytes).
    Removing stm32f0xx_hal_pwr.o(i.HAL_PWR_DeInit), (24 bytes).
    Removing stm32f0xx_hal_pwr.o(i.HAL_PWR_DisableBkUpAccess), (16 bytes).
    Removing stm32f0xx_hal_pwr.o(i.HAL_PWR_DisableSEVOnPend), (16 bytes).
    Removing stm32f0xx_hal_pwr.o(i.HAL_PWR_DisableSleepOnExit), (16 bytes).
    Removing stm32f0xx_hal_pwr.o(i.HAL_PWR_DisableWakeUpPin), (16 bytes).
    Removing stm32f0xx_hal_pwr.o(i.HAL_PWR_EnableBkUpAccess), (16 bytes).
    Removing stm32f0xx_hal_pwr.o(i.HAL_PWR_EnableSEVOnPend), (16 bytes).
    Removing stm32f0xx_hal_pwr.o(i.HAL_PWR_EnableSleepOnExit), (16 bytes).
    Removing stm32f0xx_hal_pwr.o(i.HAL_PWR_EnableWakeUpPin), (16 bytes).
    Removing stm32f0xx_hal_pwr.o(i.HAL_PWR_EnterSLEEPMode), (32 bytes).
    Removing stm32f0xx_hal_pwr.o(i.HAL_PWR_EnterSTANDBYMode), (32 bytes).
    Removing stm32f0xx_hal_pwr.o(i.HAL_PWR_EnterSTOPMode), (52 bytes).
    Removing stm32f0xx_hal_pwr.o(.ARM.exidx), (8 bytes).
    Removing stm32f0xx_hal_pwr.o(.ARM.exidx), (8 bytes).
    Removing stm32f0xx_hal_pwr.o(.ARM.exidx), (8 bytes).
    Removing stm32f0xx_hal_pwr.o(.ARM.exidx), (8 bytes).
    Removing stm32f0xx_hal_pwr.o(.ARM.exidx), (8 bytes).
    Removing stm32f0xx_hal_pwr.o(.ARM.exidx), (8 bytes).
    Removing stm32f0xx_hal_pwr.o(.ARM.exidx), (8 bytes).
    Removing stm32f0xx_hal_pwr.o(.ARM.exidx), (8 bytes).
    Removing stm32f0xx_hal_pwr.o(.ARM.exidx), (8 bytes).
    Removing stm32f0xx_hal_pwr.o(.ARM.exidx), (8 bytes).
    Removing stm32f0xx_hal_pwr.o(.ARM.exidx), (8 bytes).
    Removing stm32f0xx_hal_pwr.o(.ARM.exidx), (8 bytes).
    Removing stm32f0xx_hal_adc.o(.rev16_text), (4 bytes).
    Removing stm32f0xx_hal_adc.o(.revsh_text), (4 bytes).
    Removing stm32f0xx_hal_adc.o(i.HAL_ADC_AnalogWDGConfig), (148 bytes).
    Removing stm32f0xx_hal_adc.o(i.HAL_ADC_ConvHalfCpltCallback), (2 bytes).
    Removing stm32f0xx_hal_adc.o(i.HAL_ADC_DeInit), (160 bytes).
    Removing stm32f0xx_hal_adc.o(i.HAL_ADC_GetError), (4 bytes).
    Removing stm32f0xx_hal_adc.o(i.HAL_ADC_GetState), (4 bytes).
    Removing stm32f0xx_hal_adc.o(i.HAL_ADC_GetValue), (6 bytes).
    Removing stm32f0xx_hal_adc.o(i.HAL_ADC_IRQHandler), (208 bytes).
    Removing stm32f0xx_hal_adc.o(i.HAL_ADC_LevelOutOfWindowCallback), (2 bytes).
    Removing stm32f0xx_hal_adc.o(i.HAL_ADC_MspDeInit), (2 bytes).
    Removing stm32f0xx_hal_adc.o(i.HAL_ADC_MspInit), (2 bytes).
    Removing stm32f0xx_hal_adc.o(i.HAL_ADC_PollForConversion), (184 bytes).
    Removing stm32f0xx_hal_adc.o(i.HAL_ADC_PollForEvent), (114 bytes).
    Removing stm32f0xx_hal_adc.o(i.HAL_ADC_Start), (88 bytes).
    Removing stm32f0xx_hal_adc.o(i.HAL_ADC_Start_IT), (120 bytes).
    Removing stm32f0xx_hal_adc.o(i.HAL_ADC_Stop_IT), (68 bytes).
    Removing stm32f0xx_hal_adc.o(.ARM.exidx), (8 bytes).
    Removing stm32f0xx_hal_adc.o(.ARM.exidx), (8 bytes).
    Removing stm32f0xx_hal_adc.o(.ARM.exidx), (8 bytes).
    Removing stm32f0xx_hal_adc.o(.ARM.exidx), (8 bytes).
    Removing stm32f0xx_hal_adc.o(.ARM.exidx), (8 bytes).
    Removing stm32f0xx_hal_adc.o(.ARM.exidx), (8 bytes).
    Removing stm32f0xx_hal_adc.o(.ARM.exidx), (8 bytes).
    Removing stm32f0xx_hal_adc.o(.ARM.exidx), (8 bytes).
    Removing stm32f0xx_hal_adc.o(.ARM.exidx), (8 bytes).
    Removing stm32f0xx_hal_adc.o(.ARM.exidx), (8 bytes).
    Removing stm32f0xx_hal_adc.o(.ARM.exidx), (8 bytes).
    Removing stm32f0xx_hal_adc.o(.ARM.exidx), (8 bytes).
    Removing stm32f0xx_hal_adc.o(.ARM.exidx), (8 bytes).
    Removing stm32f0xx_hal_adc.o(.ARM.exidx), (8 bytes).
    Removing stm32f0xx_hal_adc.o(.ARM.exidx), (8 bytes).
    Removing stm32f0xx_hal_adc.o(.ARM.exidx), (8 bytes).
    Removing stm32f0xx_hal_adc.o(.ARM.exidx), (8 bytes).
    Removing stm32f0xx_hal_adc.o(.ARM.exidx), (8 bytes).
    Removing stm32f0xx_hal_adc.o(.ARM.exidx), (8 bytes).
    Removing stm32f0xx_hal_adc.o(.ARM.exidx), (8 bytes).
    Removing stm32f0xx_hal_adc.o(.ARM.exidx), (8 bytes).
    Removing stm32f0xx_hal_adc.o(.ARM.exidx), (8 bytes).
    Removing stm32f0xx_hal_adc.o(.ARM.exidx), (8 bytes).
    Removing stm32f0xx_hal_adc.o(.ARM.exidx), (8 bytes).
    Removing stm32f0xx_hal_adc.o(.ARM.exidx), (8 bytes).
    Removing stm32f0xx_hal_adc.o(.ARM.exidx), (8 bytes).
    Removing stm32f0xx_hal_adc.o(.ARM.exidx), (8 bytes).
    Removing stm32f0xx_hal_rcc.o(.rev16_text), (4 bytes).
    Removing stm32f0xx_hal_rcc.o(.revsh_text), (4 bytes).
    Removing stm32f0xx_hal_rcc.o(i.HAL_RCC_CSSCallback), (2 bytes).
    Removing stm32f0xx_hal_rcc.o(i.HAL_RCC_DeInit), (76 bytes).
    Removing stm32f0xx_hal_rcc.o(i.HAL_RCC_DisableCSS), (20 bytes).
    Removing stm32f0xx_hal_rcc.o(i.HAL_RCC_EnableCSS), (20 bytes).
    Removing stm32f0xx_hal_rcc.o(i.HAL_RCC_GetClockConfig), (56 bytes).
    Removing stm32f0xx_hal_rcc.o(i.HAL_RCC_GetOscConfig), (164 bytes).
    Removing stm32f0xx_hal_rcc.o(i.HAL_RCC_GetPCLK1Freq), (32 bytes).
    Removing stm32f0xx_hal_rcc.o(i.HAL_RCC_MCOConfig), (80 bytes).
    Removing stm32f0xx_hal_rcc.o(i.HAL_RCC_NMI_IRQHandler), (24 bytes).
    Removing stm32f0xx_hal_rcc.o(.ARM.exidx), (8 bytes).
    Removing stm32f0xx_hal_rcc.o(.ARM.exidx), (8 bytes).
    Removing stm32f0xx_hal_rcc.o(.ARM.exidx), (8 bytes).
    Removing stm32f0xx_hal_rcc.o(.ARM.exidx), (8 bytes).
    Removing stm32f0xx_hal_rcc.o(.ARM.exidx), (8 bytes).
    Removing stm32f0xx_hal_rcc.o(.ARM.exidx), (8 bytes).
    Removing stm32f0xx_hal_rcc.o(.ARM.exidx), (8 bytes).
    Removing stm32f0xx_hal_rcc.o(.ARM.exidx), (8 bytes).
    Removing stm32f0xx_hal_rcc.o(.ARM.exidx), (8 bytes).
    Removing stm32f0xx_hal_rcc.o(.ARM.exidx), (8 bytes).
    Removing stm32f0xx_hal_rcc.o(.ARM.exidx), (8 bytes).
    Removing stm32f0xx_hal_rcc.o(.ARM.exidx), (8 bytes).
    Removing stm32f0xx_hal_rcc.o(.ARM.exidx), (8 bytes).
    Removing stm32f0xx_hal.o(.rev16_text), (4 bytes).
    Removing stm32f0xx_hal.o(.revsh_text), (4 bytes).
    Removing stm32f0xx_hal.o(i.HAL_DBGMCU_DisableDBGStandbyMode), (16 bytes).
    Removing stm32f0xx_hal.o(i.HAL_DBGMCU_DisableDBGStopMode), (16 bytes).
    Removing stm32f0xx_hal.o(i.HAL_DBGMCU_EnableDBGStandbyMode), (16 bytes).
    Removing stm32f0xx_hal.o(i.HAL_DBGMCU_EnableDBGStopMode), (16 bytes).
    Removing stm32f0xx_hal.o(i.HAL_DeInit), (36 bytes).
    Removing stm32f0xx_hal.o(i.HAL_Delay), (28 bytes).
    Removing stm32f0xx_hal.o(i.HAL_GetDEVID), (16 bytes).
    Removing stm32f0xx_hal.o(i.HAL_GetHalVersion), (8 bytes).
    Removing stm32f0xx_hal.o(i.HAL_GetREVID), (12 bytes).
    Removing stm32f0xx_hal.o(i.HAL_GetUIDw0), (12 bytes).
    Removing stm32f0xx_hal.o(i.HAL_GetUIDw1), (12 bytes).
    Removing stm32f0xx_hal.o(i.HAL_GetUIDw2), (12 bytes).
    Removing stm32f0xx_hal.o(i.HAL_MspDeInit), (2 bytes).
    Removing stm32f0xx_hal.o(i.HAL_MspInit), (2 bytes).
    Removing stm32f0xx_hal.o(i.HAL_ResumeTick), (16 bytes).
    Removing stm32f0xx_hal.o(i.HAL_SuspendTick), (16 bytes).
    Removing stm32f0xx_hal.o(.ARM.exidx), (8 bytes).
    Removing stm32f0xx_hal.o(.ARM.exidx), (8 bytes).
    Removing stm32f0xx_hal.o(.ARM.exidx), (8 bytes).
    Removing stm32f0xx_hal.o(.ARM.exidx), (8 bytes).
    Removing stm32f0xx_hal.o(.ARM.exidx), (8 bytes).
    Removing stm32f0xx_hal.o(.ARM.exidx), (8 bytes).
    Removing stm32f0xx_hal.o(.ARM.exidx), (8 bytes).
    Removing stm32f0xx_hal.o(.ARM.exidx), (8 bytes).
    Removing stm32f0xx_hal.o(.ARM.exidx), (8 bytes).
    Removing stm32f0xx_hal.o(.ARM.exidx), (8 bytes).
    Removing stm32f0xx_hal.o(.ARM.exidx), (8 bytes).
    Removing stm32f0xx_hal.o(.ARM.exidx), (8 bytes).
    Removing stm32f0xx_hal.o(.ARM.exidx), (8 bytes).
    Removing stm32f0xx_hal.o(.ARM.exidx), (8 bytes).
    Removing stm32f0xx_hal.o(.ARM.exidx), (8 bytes).
    Removing stm32f0xx_hal.o(.ARM.exidx), (8 bytes).
    Removing stm32f0xx_hal.o(.ARM.exidx), (8 bytes).
    Removing stm32f0xx_hal.o(.ARM.exidx), (8 bytes).
    Removing stm32f0xx_hal.o(.ARM.exidx), (8 bytes).
    Removing stm32f0xx_hal.o(.ARM.exidx), (8 bytes).
    Removing stm32f0xx_hal_i2c_ex.o(.rev16_text), (4 bytes).
    Removing stm32f0xx_hal_i2c_ex.o(.revsh_text), (4 bytes).
    Removing stm32f0xx_hal_i2c_ex.o(i.HAL_I2CEx_ConfigAnalogFilter), (72 bytes).
    Removing stm32f0xx_hal_i2c_ex.o(i.HAL_I2CEx_ConfigDigitalFilter), (70 bytes).
    Removing stm32f0xx_hal_i2c_ex.o(i.HAL_I2CEx_DisableFastModePlus), (36 bytes).
    Removing stm32f0xx_hal_i2c_ex.o(i.HAL_I2CEx_DisableWakeUp), (64 bytes).
    Removing stm32f0xx_hal_i2c_ex.o(i.HAL_I2CEx_EnableFastModePlus), (36 bytes).
    Removing stm32f0xx_hal_i2c_ex.o(i.HAL_I2CEx_EnableWakeUp), (64 bytes).
    Removing stm32f0xx_hal_i2c_ex.o(.ARM.exidx), (8 bytes).
    Removing stm32f0xx_hal_i2c_ex.o(.ARM.exidx), (8 bytes).
    Removing stm32f0xx_hal_i2c_ex.o(.ARM.exidx), (8 bytes).
    Removing stm32f0xx_hal_i2c_ex.o(.ARM.exidx), (8 bytes).
    Removing stm32f0xx_hal_i2c_ex.o(.ARM.exidx), (8 bytes).
    Removing stm32f0xx_hal_i2c_ex.o(.ARM.exidx), (8 bytes).
    Removing stm32f0xx_hal_tim.o(.rev16_text), (4 bytes).
    Removing stm32f0xx_hal_tim.o(.revsh_text), (4 bytes).
    Removing stm32f0xx_hal_tim.o(i.HAL_TIM_Base_DeInit), (52 bytes).
    Removing stm32f0xx_hal_tim.o(i.HAL_TIM_Base_GetState), (4 bytes).
    Removing stm32f0xx_hal_tim.o(i.HAL_TIM_Base_MspDeInit), (2 bytes).
    Removing stm32f0xx_hal_tim.o(i.HAL_TIM_Base_MspInit), (2 bytes).
    Removing stm32f0xx_hal_tim.o(i.HAL_TIM_Base_Start), (20 bytes).
    Removing stm32f0xx_hal_tim.o(i.HAL_TIM_Base_Start_DMA), (92 bytes).
    Removing stm32f0xx_hal_tim.o(i.HAL_TIM_Base_Stop), (44 bytes).
    Removing stm32f0xx_hal_tim.o(i.HAL_TIM_Base_Stop_DMA), (52 bytes).
    Removing stm32f0xx_hal_tim.o(i.HAL_TIM_ConfigOCrefClear), (182 bytes).
    Removing stm32f0xx_hal_tim.o(i.HAL_TIM_ConfigTI1Input), (16 bytes).
    Removing stm32f0xx_hal_tim.o(i.HAL_TIM_DMABurst_MultiReadStart), (256 bytes).
    Removing stm32f0xx_hal_tim.o(i.HAL_TIM_DMABurst_MultiWriteStart), (256 bytes).
    Removing stm32f0xx_hal_tim.o(i.HAL_TIM_DMABurst_ReadStart), (18 bytes).
    Removing stm32f0xx_hal_tim.o(i.HAL_TIM_DMABurst_ReadStop), (100 bytes).
    Removing stm32f0xx_hal_tim.o(i.HAL_TIM_DMABurst_WriteStart), (18 bytes).
    Removing stm32f0xx_hal_tim.o(i.HAL_TIM_DMABurst_WriteStop), (100 bytes).
    Removing stm32f0xx_hal_tim.o(i.HAL_TIM_Encoder_DeInit), (52 bytes).
    Removing stm32f0xx_hal_tim.o(i.HAL_TIM_Encoder_GetState), (4 bytes).
    Removing stm32f0xx_hal_tim.o(i.HAL_TIM_Encoder_Init), (144 bytes).
    Removing stm32f0xx_hal_tim.o(i.HAL_TIM_Encoder_MspDeInit), (2 bytes).
    Removing stm32f0xx_hal_tim.o(i.HAL_TIM_Encoder_MspInit), (2 bytes).
    Removing stm32f0xx_hal_tim.o(i.HAL_TIM_Encoder_Start), (52 bytes).
    Removing stm32f0xx_hal_tim.o(i.HAL_TIM_Encoder_Start_DMA), (276 bytes).
    Removing stm32f0xx_hal_tim.o(i.HAL_TIM_Encoder_Start_IT), (92 bytes).
    Removing stm32f0xx_hal_tim.o(i.HAL_TIM_Encoder_Stop), (72 bytes).
    Removing stm32f0xx_hal_tim.o(i.HAL_TIM_Encoder_Stop_DMA), (120 bytes).
    Removing stm32f0xx_hal_tim.o(i.HAL_TIM_Encoder_Stop_IT), (116 bytes).
    Removing stm32f0xx_hal_tim.o(i.HAL_TIM_ErrorCallback), (2 bytes).
    Removing stm32f0xx_hal_tim.o(i.HAL_TIM_GenerateEvent), (30 bytes).
    Removing stm32f0xx_hal_tim.o(i.HAL_TIM_IC_ConfigChannel), (272 bytes).
    Removing stm32f0xx_hal_tim.o(i.HAL_TIM_IC_DeInit), (52 bytes).
    Removing stm32f0xx_hal_tim.o(i.HAL_TIM_IC_GetState), (4 bytes).
    Removing stm32f0xx_hal_tim.o(i.HAL_TIM_IC_Init), (48 bytes).
    Removing stm32f0xx_hal_tim.o(i.HAL_TIM_IC_MspDeInit), (2 bytes).
    Removing stm32f0xx_hal_tim.o(i.HAL_TIM_IC_MspInit), (2 bytes).
    Removing stm32f0xx_hal_tim.o(i.HAL_TIM_IC_Start), (26 bytes).
    Removing stm32f0xx_hal_tim.o(i.HAL_TIM_IC_Start_DMA), (200 bytes).
    Removing stm32f0xx_hal_tim.o(i.HAL_TIM_IC_Start_IT), (72 bytes).
    Removing stm32f0xx_hal_tim.o(i.HAL_TIM_IC_Stop), (48 bytes).
    Removing stm32f0xx_hal_tim.o(i.HAL_TIM_IC_Stop_DMA), (104 bytes).
    Removing stm32f0xx_hal_tim.o(i.HAL_TIM_IC_Stop_IT), (92 bytes).
    Removing stm32f0xx_hal_tim.o(i.HAL_TIM_OC_ConfigChannel), (78 bytes).
    Removing stm32f0xx_hal_tim.o(i.HAL_TIM_OC_DeInit), (52 bytes).
    Removing stm32f0xx_hal_tim.o(i.HAL_TIM_OC_GetState), (4 bytes).
    Removing stm32f0xx_hal_tim.o(i.HAL_TIM_OC_Init), (48 bytes).
    Removing stm32f0xx_hal_tim.o(i.HAL_TIM_OC_MspDeInit), (2 bytes).
    Removing stm32f0xx_hal_tim.o(i.HAL_TIM_OC_MspInit), (2 bytes).
    Removing stm32f0xx_hal_tim.o(i.HAL_TIM_OC_Start), (80 bytes).
    Removing stm32f0xx_hal_tim.o(i.HAL_TIM_OC_Start_DMA), (264 bytes).
    Removing stm32f0xx_hal_tim.o(i.HAL_TIM_OC_Start_IT), (124 bytes).
    Removing stm32f0xx_hal_tim.o(i.HAL_TIM_OC_Stop), (112 bytes).
    Removing stm32f0xx_hal_tim.o(i.HAL_TIM_OC_Stop_DMA), (168 bytes).
    Removing stm32f0xx_hal_tim.o(i.HAL_TIM_OC_Stop_IT), (156 bytes).
    Removing stm32f0xx_hal_tim.o(i.HAL_TIM_OnePulse_ConfigChannel), (210 bytes).
    Removing stm32f0xx_hal_tim.o(i.HAL_TIM_OnePulse_DeInit), (52 bytes).
    Removing stm32f0xx_hal_tim.o(i.HAL_TIM_OnePulse_GetState), (4 bytes).
    Removing stm32f0xx_hal_tim.o(i.HAL_TIM_OnePulse_Init), (68 bytes).
    Removing stm32f0xx_hal_tim.o(i.HAL_TIM_OnePulse_MspDeInit), (2 bytes).
    Removing stm32f0xx_hal_tim.o(i.HAL_TIM_OnePulse_MspInit), (2 bytes).
    Removing stm32f0xx_hal_tim.o(i.HAL_TIM_OnePulse_Start), (80 bytes).
    Removing stm32f0xx_hal_tim.o(i.HAL_TIM_OnePulse_Start_IT), (100 bytes).
    Removing stm32f0xx_hal_tim.o(i.HAL_TIM_OnePulse_Stop), (124 bytes).
    Removing stm32f0xx_hal_tim.o(i.HAL_TIM_OnePulse_Stop_IT), (144 bytes).
    Removing stm32f0xx_hal_tim.o(i.HAL_TIM_PWM_ConfigChannel), (198 bytes).
    Removing stm32f0xx_hal_tim.o(i.HAL_TIM_PWM_DeInit), (52 bytes).
    Removing stm32f0xx_hal_tim.o(i.HAL_TIM_PWM_GetState), (4 bytes).
    Removing stm32f0xx_hal_tim.o(i.HAL_TIM_PWM_Init), (48 bytes).
    Removing stm32f0xx_hal_tim.o(i.HAL_TIM_PWM_MspDeInit), (2 bytes).
    Removing stm32f0xx_hal_tim.o(i.HAL_TIM_PWM_MspInit), (2 bytes).
    Removing stm32f0xx_hal_tim.o(i.HAL_TIM_PWM_Start), (80 bytes).
    Removing stm32f0xx_hal_tim.o(i.HAL_TIM_PWM_Start_DMA), (264 bytes).
    Removing stm32f0xx_hal_tim.o(i.HAL_TIM_PWM_Start_IT), (124 bytes).
    Removing stm32f0xx_hal_tim.o(i.HAL_TIM_PWM_Stop), (116 bytes).
    Removing stm32f0xx_hal_tim.o(i.HAL_TIM_PWM_Stop_DMA), (168 bytes).
    Removing stm32f0xx_hal_tim.o(i.HAL_TIM_PWM_Stop_IT), (156 bytes).
    Removing stm32f0xx_hal_tim.o(i.HAL_TIM_PeriodElapsedCallback), (2 bytes).
    Removing stm32f0xx_hal_tim.o(i.HAL_TIM_ReadCapturedValue), (64 bytes).
    Removing stm32f0xx_hal_tim.o(i.HAL_TIM_SlaveConfigSynchronization), (56 bytes).
    Removing stm32f0xx_hal_tim.o(i.HAL_TIM_SlaveConfigSynchronization_IT), (56 bytes).
    Removing stm32f0xx_hal_tim.o(i.TIM_CCxChannelCmd), (22 bytes).
    Removing stm32f0xx_hal_tim.o(i.TIM_DMACaptureCplt), (60 bytes).
    Removing stm32f0xx_hal_tim.o(i.TIM_DMADelayPulseCplt), (60 bytes).
    Removing stm32f0xx_hal_tim.o(i.TIM_DMAError), (14 bytes).
    Removing stm32f0xx_hal_tim.o(i.TIM_OC2_SetConfig), (128 bytes).
    Removing stm32f0xx_hal_tim.o(i.TIM_TI1_SetConfig), (88 bytes).
    Removing stm32f0xx_hal_tim.o(i._ZN41_INTERNAL_19_stm32f0xx_hal_tim_c_a9d95b5217TIM_OC1_SetConfigEP11TIM_TypeDefP18TIM_OC_InitTypeDef), (136 bytes).
    Removing stm32f0xx_hal_tim.o(i._ZN41_INTERNAL_19_stm32f0xx_hal_tim_c_a9d95b5217TIM_OC3_SetConfigEP11TIM_TypeDefP18TIM_OC_InitTypeDef), (132 bytes).
    Removing stm32f0xx_hal_tim.o(i._ZN41_INTERNAL_19_stm32f0xx_hal_tim_c_a9d95b5217TIM_OC4_SetConfigEP11TIM_TypeDefP18TIM_OC_InitTypeDef), (108 bytes).
    Removing stm32f0xx_hal_tim.o(i._ZN41_INTERNAL_19_stm32f0xx_hal_tim_c_a9d95b5217TIM_TI2_SetConfigEP11TIM_TypeDefjjj), (52 bytes).
    Removing stm32f0xx_hal_tim.o(i._ZN41_INTERNAL_19_stm32f0xx_hal_tim_c_a9d95b5218TIM_DMATriggerCpltEP19__DMA_HandleTypeDef), (14 bytes).
    Removing stm32f0xx_hal_tim.o(i._ZN41_INTERNAL_19_stm32f0xx_hal_tim_c_a9d95b5224TIM_DMAPeriodElapsedCpltEP19__DMA_HandleTypeDef), (14 bytes).
    Removing stm32f0xx_hal_tim.o(i._ZN41_INTERNAL_19_stm32f0xx_hal_tim_c_a9d95b5224TIM_SlaveTimer_SetConfigEP17TIM_HandleTypeDefP22TIM_SlaveConfigTypeDef), (122 bytes).
    Removing stm32f0xx_hal_tim.o(.ARM.exidx), (8 bytes).
    Removing stm32f0xx_hal_tim.o(.ARM.exidx), (8 bytes).
    Removing stm32f0xx_hal_tim.o(.ARM.exidx), (8 bytes).
    Removing stm32f0xx_hal_tim.o(.ARM.exidx), (8 bytes).
    Removing stm32f0xx_hal_tim.o(.ARM.exidx), (8 bytes).
    Removing stm32f0xx_hal_tim.o(.ARM.exidx), (8 bytes).
    Removing stm32f0xx_hal_tim.o(.ARM.exidx), (8 bytes).
    Removing stm32f0xx_hal_tim.o(.ARM.exidx), (8 bytes).
    Removing stm32f0xx_hal_tim.o(.ARM.exidx), (8 bytes).
    Removing stm32f0xx_hal_tim.o(.ARM.exidx), (8 bytes).
    Removing stm32f0xx_hal_tim.o(.ARM.exidx), (8 bytes).
    Removing stm32f0xx_hal_tim.o(.ARM.exidx), (8 bytes).
    Removing stm32f0xx_hal_tim.o(.ARM.exidx), (8 bytes).
    Removing stm32f0xx_hal_tim.o(.ARM.exidx), (8 bytes).
    Removing stm32f0xx_hal_tim.o(.ARM.exidx), (8 bytes).
    Removing stm32f0xx_hal_tim.o(.ARM.exidx), (8 bytes).
    Removing stm32f0xx_hal_tim.o(.ARM.exidx), (8 bytes).
    Removing stm32f0xx_hal_tim.o(.ARM.exidx), (8 bytes).
    Removing stm32f0xx_hal_tim.o(.ARM.exidx), (8 bytes).
    Removing stm32f0xx_hal_tim.o(.ARM.exidx), (8 bytes).
    Removing stm32f0xx_hal_tim.o(.ARM.exidx), (8 bytes).
    Removing stm32f0xx_hal_tim.o(.ARM.exidx), (8 bytes).
    Removing stm32f0xx_hal_tim.o(.ARM.exidx), (8 bytes).
    Removing stm32f0xx_hal_tim.o(.ARM.exidx), (8 bytes).
    Removing stm32f0xx_hal_tim.o(.ARM.exidx), (8 bytes).
    Removing stm32f0xx_hal_tim.o(.ARM.exidx), (8 bytes).
    Removing stm32f0xx_hal_tim.o(.ARM.exidx), (8 bytes).
    Removing stm32f0xx_hal_tim.o(.ARM.exidx), (8 bytes).
    Removing stm32f0xx_hal_tim.o(.ARM.exidx), (8 bytes).
    Removing stm32f0xx_hal_tim.o(.ARM.exidx), (8 bytes).
    Removing stm32f0xx_hal_tim.o(.ARM.exidx), (8 bytes).
    Removing stm32f0xx_hal_tim.o(.ARM.exidx), (8 bytes).
    Removing stm32f0xx_hal_tim.o(.ARM.exidx), (8 bytes).
    Removing stm32f0xx_hal_tim.o(.ARM.exidx), (8 bytes).
    Removing stm32f0xx_hal_tim.o(.ARM.exidx), (8 bytes).
    Removing stm32f0xx_hal_tim.o(.ARM.exidx), (8 bytes).
    Removing stm32f0xx_hal_tim.o(.ARM.exidx), (8 bytes).
    Removing stm32f0xx_hal_tim.o(.ARM.exidx), (8 bytes).
    Removing stm32f0xx_hal_tim.o(.ARM.exidx), (8 bytes).
    Removing stm32f0xx_hal_tim.o(.ARM.exidx), (8 bytes).
    Removing stm32f0xx_hal_tim.o(.ARM.exidx), (8 bytes).
    Removing stm32f0xx_hal_tim.o(.ARM.exidx), (8 bytes).
    Removing stm32f0xx_hal_tim.o(.ARM.exidx), (8 bytes).
    Removing stm32f0xx_hal_tim.o(.ARM.exidx), (8 bytes).
    Removing stm32f0xx_hal_tim.o(.ARM.exidx), (8 bytes).
    Removing stm32f0xx_hal_tim.o(.ARM.exidx), (8 bytes).
    Removing stm32f0xx_hal_tim.o(.ARM.exidx), (8 bytes).
    Removing stm32f0xx_hal_tim.o(.ARM.exidx), (8 bytes).
    Removing stm32f0xx_hal_tim.o(.ARM.exidx), (8 bytes).
    Removing stm32f0xx_hal_tim.o(.ARM.exidx), (8 bytes).
    Removing stm32f0xx_hal_tim.o(.ARM.exidx), (8 bytes).
    Removing stm32f0xx_hal_tim.o(.ARM.exidx), (8 bytes).
    Removing stm32f0xx_hal_tim.o(.ARM.exidx), (8 bytes).
    Removing stm32f0xx_hal_tim.o(.ARM.exidx), (8 bytes).
    Removing stm32f0xx_hal_tim.o(.ARM.exidx), (8 bytes).
    Removing stm32f0xx_hal_tim.o(.ARM.exidx), (8 bytes).
    Removing stm32f0xx_hal_tim.o(.ARM.exidx), (8 bytes).
    Removing stm32f0xx_hal_tim.o(.ARM.exidx), (8 bytes).
    Removing stm32f0xx_hal_tim.o(.ARM.exidx), (8 bytes).
    Removing stm32f0xx_hal_tim.o(.ARM.exidx), (8 bytes).
    Removing stm32f0xx_hal_tim.o(.ARM.exidx), (8 bytes).
    Removing stm32f0xx_hal_tim.o(.ARM.exidx), (8 bytes).
    Removing stm32f0xx_hal_tim.o(.ARM.exidx), (8 bytes).
    Removing stm32f0xx_hal_tim.o(.ARM.exidx), (8 bytes).
    Removing stm32f0xx_hal_tim.o(.ARM.exidx), (8 bytes).
    Removing stm32f0xx_hal_tim.o(.ARM.exidx), (8 bytes).
    Removing stm32f0xx_hal_tim.o(.ARM.exidx), (8 bytes).
    Removing stm32f0xx_hal_tim.o(.ARM.exidx), (8 bytes).
    Removing stm32f0xx_hal_tim.o(.ARM.exidx), (8 bytes).
    Removing stm32f0xx_hal_tim.o(.ARM.exidx), (8 bytes).
    Removing stm32f0xx_hal_tim.o(.ARM.exidx), (8 bytes).
    Removing stm32f0xx_hal_tim.o(.ARM.exidx), (8 bytes).
    Removing stm32f0xx_hal_tim.o(.ARM.exidx), (8 bytes).
    Removing stm32f0xx_hal_tim.o(.ARM.exidx), (8 bytes).
    Removing stm32f0xx_hal_tim.o(.ARM.exidx), (8 bytes).
    Removing stm32f0xx_hal_tim.o(.ARM.exidx), (8 bytes).
    Removing stm32f0xx_hal_tim.o(.ARM.exidx), (8 bytes).
    Removing stm32f0xx_hal_tim.o(.ARM.exidx), (8 bytes).
    Removing stm32f0xx_hal_tim.o(.ARM.exidx), (8 bytes).
    Removing stm32f0xx_hal_tim.o(.ARM.exidx), (8 bytes).
    Removing stm32f0xx_hal_tim.o(.ARM.exidx), (8 bytes).
    Removing stm32f0xx_hal_tim.o(.ARM.exidx), (8 bytes).
    Removing stm32f0xx_hal_tim.o(.ARM.exidx), (8 bytes).
    Removing stm32f0xx_hal_tim.o(.ARM.exidx), (8 bytes).
    Removing stm32f0xx_hal_tim.o(.ARM.exidx), (8 bytes).
    Removing stm32f0xx_hal_tim.o(.ARM.exidx), (8 bytes).
    Removing stm32f0xx_hal_tim.o(.ARM.exidx), (8 bytes).
    Removing stm32f0xx_hal_tim.o(.ARM.exidx), (8 bytes).
    Removing stm32f0xx_hal_tim.o(.ARM.exidx), (8 bytes).
    Removing stm32f0xx_hal_tim.o(.ARM.exidx), (8 bytes).
    Removing stm32f0xx_hal_tim.o(.ARM.exidx), (8 bytes).
    Removing stm32f0xx_hal_tim.o(.ARM.exidx), (8 bytes).
    Removing stm32f0xx_hal_tim.o(.ARM.exidx), (8 bytes).
    Removing stm32f0xx_hal_tim.o(.ARM.exidx), (8 bytes).
    Removing stm32f0xx_hal_tim.o(.ARM.exidx), (8 bytes).
    Removing stm32f0xx_hal_tim.o(.ARM.exidx), (8 bytes).
    Removing stm32f0xx_hal_tim.o(.ARM.exidx), (8 bytes).
    Removing stm32f0xx_hal_tim.o(.ARM.exidx), (8 bytes).
    Removing stm32f0xx_hal_tim.o(.ARM.exidx), (8 bytes).
    Removing stm32f0xx_hal_tim.o(.ARM.exidx), (8 bytes).
    Removing stm32f0xx_hal_tim.o(.ARM.exidx), (8 bytes).
    Removing stm32f0xx_hal_tim.o(.ARM.exidx), (8 bytes).
    Removing stm32f0xx_hal_tim.o(.ARM.exidx), (8 bytes).
    Removing stm32f0xx_hal_tim.o(.ARM.exidx), (8 bytes).
    Removing stm32f0xx_hal_tim.o(.ARM.exidx), (8 bytes).
    Removing stm32f0xx_hal_tim.o(.ARM.exidx), (8 bytes).
    Removing stm32f0xx_hal_gpio.o(.rev16_text), (4 bytes).
    Removing stm32f0xx_hal_gpio.o(.revsh_text), (4 bytes).
    Removing stm32f0xx_hal_gpio.o(i.HAL_GPIO_DeInit), (220 bytes).
    Removing stm32f0xx_hal_gpio.o(i.HAL_GPIO_EXTI_Callback), (2 bytes).
    Removing stm32f0xx_hal_gpio.o(i.HAL_GPIO_EXTI_IRQHandler), (24 bytes).
    Removing stm32f0xx_hal_gpio.o(i.HAL_GPIO_LockPin), (36 bytes).
    Removing stm32f0xx_hal_gpio.o(i.HAL_GPIO_ReadPin), (10 bytes).
    Removing stm32f0xx_hal_gpio.o(i.HAL_GPIO_TogglePin), (8 bytes).
    Removing stm32f0xx_hal_gpio.o(.ARM.exidx), (8 bytes).
    Removing stm32f0xx_hal_gpio.o(.ARM.exidx), (8 bytes).
    Removing stm32f0xx_hal_gpio.o(.ARM.exidx), (8 bytes).
    Removing stm32f0xx_hal_gpio.o(.ARM.exidx), (8 bytes).
    Removing stm32f0xx_hal_gpio.o(.ARM.exidx), (8 bytes).
    Removing stm32f0xx_hal_gpio.o(.ARM.exidx), (8 bytes).
    Removing stm32f0xx_hal_gpio.o(.ARM.exidx), (8 bytes).
    Removing stm32f0xx_hal_gpio.o(.ARM.exidx), (8 bytes).
    Removing stm32f0xx_hal_flash.o(.rev16_text), (4 bytes).
    Removing stm32f0xx_hal_flash.o(.revsh_text), (4 bytes).
    Removing stm32f0xx_hal_flash.o(i.HAL_FLASH_EndOfOperationCallback), (2 bytes).
    Removing stm32f0xx_hal_flash.o(i.HAL_FLASH_GetError), (12 bytes).
    Removing stm32f0xx_hal_flash.o(i.HAL_FLASH_IRQHandler), (268 bytes).
    Removing stm32f0xx_hal_flash.o(i.HAL_FLASH_OB_Launch), (32 bytes).
    Removing stm32f0xx_hal_flash.o(i.HAL_FLASH_OB_Lock), (20 bytes).
    Removing stm32f0xx_hal_flash.o(i.HAL_FLASH_OB_Unlock), (36 bytes).
    Removing stm32f0xx_hal_flash.o(i.HAL_FLASH_OperationErrorCallback), (2 bytes).
    Removing stm32f0xx_hal_flash.o(i.HAL_FLASH_Program_IT), (96 bytes).
    Removing stm32f0xx_hal_flash.o(.ARM.exidx), (8 bytes).
    Removing stm32f0xx_hal_flash.o(.ARM.exidx), (8 bytes).
    Removing stm32f0xx_hal_flash.o(.ARM.exidx), (8 bytes).
    Removing stm32f0xx_hal_flash.o(.ARM.exidx), (8 bytes).
    Removing stm32f0xx_hal_flash.o(.ARM.exidx), (8 bytes).
    Removing stm32f0xx_hal_flash.o(.ARM.exidx), (8 bytes).
    Removing stm32f0xx_hal_flash.o(.ARM.exidx), (8 bytes).
    Removing stm32f0xx_hal_flash.o(.ARM.exidx), (8 bytes).
    Removing stm32f0xx_hal_flash.o(.ARM.exidx), (8 bytes).
    Removing stm32f0xx_hal_flash.o(.ARM.exidx), (8 bytes).
    Removing stm32f0xx_hal_flash.o(.ARM.exidx), (8 bytes).
    Removing stm32f0xx_hal_flash.o(.ARM.exidx), (8 bytes).
    Removing stm32f0xx_hal_flash.o(.ARM.exidx), (8 bytes).
    Removing stm32f0xx_hal_flash.o(.ARM.exidx), (8 bytes).
    Removing system_stm32f0xx.o(.rev16_text), (4 bytes).
    Removing system_stm32f0xx.o(.revsh_text), (4 bytes).
    Removing system_stm32f0xx.o(i.SystemCoreClockUpdate), (88 bytes).
    Removing system_stm32f0xx.o(.ARM.exidx), (8 bytes).
    Removing system_stm32f0xx.o(.ARM.exidx), (8 bytes).
    Removing system_stm32f0xx.o(.constdata), (8 bytes).
    Removing help.o(.rev16_text), (4 bytes).
    Removing help.o(.revsh_text), (4 bytes).
    Removing help.o(i._Z15time_elapsed_tmtRKSt2tmS1_), (56 bytes).
    Removing help.o(.ARM.exidx), (8 bytes).
    Removing help.o(.ARM.exidx), (8 bytes).
    Removing help.o(.ARM.exidx), (8 bytes).
    Removing screen.o(.rev16_text), (4 bytes).
    Removing screen.o(.revsh_text), (4 bytes).
    Removing screen.o(i._ZlsR6ScreenRKf), (40 bytes).
    Removing screen.o(i._ZlsR6ScreenRKh), (30 bytes).
    Removing screen.o(i._ZlsR6ScreenRKj), (30 bytes).
    Removing screen.o(.ARM.exidx), (8 bytes).
    Removing screen.o(.ARM.exidx), (8 bytes).
    Removing screen.o(.ARM.exidx), (8 bytes).
    Removing screen.o(.ARM.exidx), (8 bytes).
    Removing screen.o(.ARM.exidx), (8 bytes).
    Removing screen.o(.ARM.exidx), (8 bytes).
    Removing screen.o(.ARM.exidx), (8 bytes).
    Removing screen.o(.ARM.exidx), (8 bytes).
    Removing screen.o(.ARM.exidx), (8 bytes).
    Removing screen.o(.ARM.exidx), (8 bytes).
    Removing screen.o(.ARM.exidx), (8 bytes).
    Removing screen.o(.ARM.exidx), (8 bytes).
    Removing screen.o(.ARM.exidx), (8 bytes).
    Removing screen.o(.ARM.exidx), (8 bytes).
    Removing screen.o(.ARM.exidx), (8 bytes).
    Removing screen.o(.ARM.exidx), (8 bytes).
    Removing screen.o(.ARM.exidx), (8 bytes).
    Removing screen.o(.ARM.exidx), (8 bytes).
    Removing screen.o(.ARM.exidx), (8 bytes).
    Removing screen.o(.ARM.exidx), (8 bytes).
    Removing screen.o(.ARM.exidx), (8 bytes).
    Removing screen.o(.ARM.exidx), (8 bytes).
    Removing screen.o(.ARM.exidx), (8 bytes).
    Removing screen.o(.ARM.exidx), (8 bytes).
    Removing screen.o(.ARM.exidx), (8 bytes).
    Removing screen.o(.ARM.exidx), (8 bytes).
    Removing screen.o(.ARM.exidx), (8 bytes).
    Removing screen.o(.ARM.exidx), (8 bytes).
    Removing screen.o(.ARM.exidx), (8 bytes).
    Removing screen.o(.ARM.exidx), (8 bytes).
    Removing screen.o(.ARM.exidx), (8 bytes).
    Removing screen.o(.ARM.exidx), (8 bytes).
    Removing screen.o(.ARM.exidx), (8 bytes).
    Removing screen.o(.ARM.exidx), (8 bytes).
    Removing screen.o(.ARM.exidx), (8 bytes).
    Removing screen.o(.ARM.exidx), (8 bytes).
    Removing screen.o(.ARM.exidx), (8 bytes).
    Removing screen.o(.ARM.exidx), (8 bytes).
    Removing screen.o(.ARM.exidx), (8 bytes).
    Removing screen.o(.ARM.exidx), (8 bytes).
    Removing tsl_user.o(.rev16_text), (4 bytes).
    Removing tsl_user.o(.revsh_text), (4 bytes).
    Removing tsl_user.o(i._Z25MyLinRots_OffStateProcessv), (2 bytes).
    Removing tsl_user.o(i._Z27MyLinRots_ErrorStateProcessv), (24 bytes).
    Removing tsl_user.o(.ARM.exidx), (8 bytes).
    Removing tsl_user.o(.ARM.exidx), (8 bytes).
    Removing tsl_user.o(.ARM.exidx), (8 bytes).
    Removing tsl_user.o(.ARM.exidx), (8 bytes).
    Removing tsl_user.o(.ARM.exidx), (8 bytes).
    Removing tsl_user.o(.ARM.exidx), (8 bytes).
    Removing tsl_user.o(.ARM.exidx), (8 bytes).
    Removing keyboard.o(.rev16_text), (4 bytes).
    Removing keyboard.o(.revsh_text), (4 bytes).
    Removing keyboard.o(.ARM.exidx), (8 bytes).
    Removing keyboard.o(.ARM.exidx), (8 bytes).
    Removing stm32f0xx_hal_msp.o(.rev16_text), (4 bytes).
    Removing stm32f0xx_hal_msp.o(.revsh_text), (4 bytes).
    Removing stm32f0xx_hal_msp.o(i.HAL_ADC_MspDeInit), (48 bytes).
    Removing stm32f0xx_hal_msp.o(i.HAL_TIM_Base_MspDeInit), (60 bytes).
    Removing stm32f0xx_hal_msp.o(i.HAL_TSC_MspDeInit), (64 bytes).
    Removing stm32f0xx_hal_msp.o(.ARM.exidx), (8 bytes).
    Removing stm32f0xx_hal_msp.o(.ARM.exidx), (8 bytes).
    Removing stm32f0xx_hal_msp.o(.ARM.exidx), (8 bytes).
    Removing stm32f0xx_hal_msp.o(.ARM.exidx), (8 bytes).
    Removing stm32f0xx_hal_msp.o(.ARM.exidx), (8 bytes).
    Removing stm32f0xx_hal_msp.o(.ARM.exidx), (8 bytes).
    Removing stm32f0xx_hal_msp.o(.ARM.exidx), (8 bytes).
    Removing stm32f0xx_it.o(.rev16_text), (4 bytes).
    Removing stm32f0xx_it.o(.revsh_text), (4 bytes).
    Removing stm32f0xx_it.o(.ARM.exidx), (8 bytes).
    Removing stm32f0xx_it.o(.ARM.exidx), (8 bytes).
    Removing stm32f0xx_it.o(.ARM.exidx), (8 bytes).
    Removing stm32f0xx_it.o(.ARM.exidx), (8 bytes).
    Removing stm32f0xx_it.o(.ARM.exidx), (8 bytes).
    Removing stm32f0xx_it.o(.ARM.exidx), (8 bytes).
    Removing stm32f0xx_it.o(.ARM.exidx), (8 bytes).
    Removing stm32f0xx_it.o(.ARM.exidx), (8 bytes).
    Removing stm32f0xx_it.o(.ARM.exidx), (8 bytes).
    Removing stm32f0xx_it.o(.ARM.exidx), (8 bytes).
    Removing eeprom.o(.rev16_text), (4 bytes).
    Removing eeprom.o(.revsh_text), (4 bytes).
    Removing eeprom.o(.ARM.exidx), (8 bytes).
    Removing eeprom.o(.ARM.exidx), (8 bytes).
    Removing eeprom.o(.ARM.exidx), (8 bytes).
    Removing eeprom.o(.ARM.exidx), (8 bytes).
    Removing eeprom.o(.ARM.exidx), (8 bytes).
    Removing eeprom.o(.ARM.exidx), (8 bytes).
    Removing eeprom.o(.ARM.exidx), (8 bytes).
    Removing eeprom.o(.ARM.exidx), (8 bytes).
    Removing eeprom.o(.ARM.exidx), (8 bytes).
    Removing eeprom.o(.ARM.exidx), (8 bytes).
    Removing eeprom_user.o(.rev16_text), (4 bytes).
    Removing eeprom_user.o(.revsh_text), (4 bytes).
    Removing eeprom_user.o(i._ZN10Flash_Data9set_valueEt), (4 bytes).
    Removing eeprom_user.o(.ARM.exidx), (8 bytes).
    Removing eeprom_user.o(.ARM.exidx), (8 bytes).
    Removing eeprom_user.o(.ARM.exidx), (8 bytes).
    Removing eeprom_user.o(.ARM.exidx), (8 bytes).
    Removing eeprom_user.o(.ARM.exidx), (8 bytes).
    Removing eeprom_user.o(.ARM.exidx), (8 bytes).
    Removing eeprom_user.o(.ARM.exidx), (8 bytes).
    Removing eeprom_user.o(.ARM.exidx), (8 bytes).
    Removing eeprom_user.o(.ARM.exidx), (8 bytes).
    Removing eeprom_user.o(.ARM.exidx), (8 bytes).
    Removing voltage_acq.o(.rev16_text), (4 bytes).
    Removing voltage_acq.o(.revsh_text), (4 bytes).
    Removing voltage_acq.o(i._ZN8move_avg14execute_filterEt), (36 bytes).
    Removing voltage_acq.o(.ARM.exidx), (8 bytes).
    Removing voltage_acq.o(.ARM.exidx), (8 bytes).
    Removing voltage_acq.o(.ARM.exidx), (8 bytes).
    Removing voltage_acq.o(.ARM.exidx), (8 bytes).
    Removing voltage_acq.o(.ARM.exidx), (8 bytes).
    Removing voltage_acq.o(.ARM.exidx), (8 bytes).
    Removing voltage_acq.o(.ARM.exidx), (8 bytes).
    Removing voltage_relay.o(.rev16_text), (4 bytes).
    Removing voltage_relay.o(.revsh_text), (4 bytes).
    Removing voltage_relay.o(i._ZN13voltage_relay11get_voltageEv), (10 bytes).
    Removing voltage_relay.o(i._ZN13voltage_relay9calculateEv), (10 bytes).
    Removing voltage_relay.o(.ARM.exidx), (8 bytes).
    Removing voltage_relay.o(.ARM.exidx), (8 bytes).
    Removing voltage_relay.o(.ARM.exidx), (8 bytes).
    Removing voltage_relay.o(.ARM.exidx), (8 bytes).
    Removing voltage_relay.o(.ARM.exidx), (8 bytes).
    Removing voltage_relay.o(.ARM.exidx), (8 bytes).
    Removing voltage_relay.o(.ARM.exidx), (8 bytes).
    Removing voltage_relay.o(.ARM.exidx), (8 bytes).
    Removing voltage_relay.o(.ARM.exidx), (8 bytes).
    Removing voltage_relay.o(.ARM.exidx), (8 bytes).
    Removing voltage_relay.o(.ARM.exidx), (8 bytes).
    Removing voltage_relay.o(.ARM.exidx), (8 bytes).
    Removing voltage_relay.o(.ARM.exidx), (8 bytes).
    Removing main_state_machine.o(.rev16_text), (4 bytes).
    Removing main_state_machine.o(.revsh_text), (4 bytes).
    Removing main_state_machine.o(.ARM.exidx), (8 bytes).
    Removing main_state_machine.o(.ARM.exidx), (8 bytes).
    Removing main_state_machine.o(.ARM.exidx), (8 bytes).
    Removing main_state_machine.o(.ARM.exidx), (8 bytes).
    Removing alarms_events.o(.rev16_text), (4 bytes).
    Removing alarms_events.o(.revsh_text), (4 bytes).
    Removing alarms_events.o(i._ZN18Event_EEprom_WriteaSERKS_), (14 bytes).
    Removing alarms_events.o(.ARM.exidx), (8 bytes).
    Removing alarms_events.o(.ARM.exidx), (8 bytes).
    Removing alarms_events.o(.ARM.exidx), (8 bytes).
    Removing alarms_events.o(.ARM.exidx), (8 bytes).
    Removing alarms_events.o(.ARM.exidx), (8 bytes).
    Removing alarms_events.o(.ARM.exidx), (8 bytes).
    Removing alarms_events.o(.ARM.exidx), (8 bytes).
    Removing alarms_events.o(.ARM.exidx), (8 bytes).
    Removing observer.o(.rev16_text), (4 bytes).
    Removing observer.o(.revsh_text), (4 bytes).
    Removing observer.o(i._ZN7Subject6detachEP8Observer), (66 bytes).
    Removing observer.o(.ARM.exidx), (8 bytes).
    Removing observer.o(.ARM.exidx), (8 bytes).
    Removing observer.o(.ARM.exidx), (8 bytes).
    Removing main_1.o(.rev16_text), (4 bytes).
    Removing main_1.o(.revsh_text), (4 bytes).
    Removing main_1.o(.ARM.exidx), (8 bytes).
    Removing main_1.o(.ARM.exidx), (8 bytes).
    Removing main_1.o(.ARM.exidx), (8 bytes).
    Removing main_1.o(.ARM.exidx), (8 bytes).
    Removing main_1.o(.ARM.exidx), (8 bytes).
    Removing main_1.o(.ARM.exidx), (8 bytes).
    Removing main_1.o(.ARM.exidx), (8 bytes).
    Removing main_1.o(.ARM.exidx), (8 bytes).
    Removing main_1.o(.ARM.exidx), (8 bytes).
    Removing main_1.o(.ARM.exidx), (8 bytes).
    Removing menu.o(.rev16_text), (4 bytes).
    Removing menu.o(.revsh_text), (4 bytes).
    Removing menu.o(i._ZN10Menu_Error10set_parentEP9Menu_Base), (4 bytes).
    Removing menu.o(i._ZN15Menu_flash_read6actionEv), (56 bytes).
    Removing menu.o(i._ZN15Menu_flash_read8menu_scrEv), (40 bytes).
    Removing menu.o(i._ZN9Menu_item13return_to_topEv), (6 bytes).
    Removing menu.o(.ARM.exidx), (8 bytes).
    Removing menu.o(.ARM.exidx), (8 bytes).
    Removing menu.o(.ARM.exidx), (8 bytes).
    Removing menu.o(.ARM.exidx), (8 bytes).
    Removing menu.o(.ARM.exidx), (8 bytes).
    Removing menu.o(.ARM.exidx), (8 bytes).
    Removing menu.o(.ARM.exidx), (8 bytes).
    Removing menu.o(.ARM.exidx), (8 bytes).
    Removing menu.o(.ARM.exidx), (8 bytes).
    Removing menu.o(.ARM.exidx), (8 bytes).
    Removing menu.o(.ARM.exidx), (8 bytes).
    Removing menu.o(.ARM.exidx), (8 bytes).
    Removing menu.o(.ARM.exidx), (8 bytes).
    Removing menu.o(.ARM.exidx), (8 bytes).
    Removing menu.o(.ARM.exidx), (8 bytes).
    Removing menu.o(.ARM.exidx), (8 bytes).
    Removing menu.o(.ARM.exidx), (8 bytes).
    Removing menu.o(.ARM.exidx), (8 bytes).
    Removing menu.o(.data), (4 bytes).
    Removing arm_fir_f32.o(.rev16_text), (4 bytes).
    Removing arm_fir_f32.o(.revsh_text), (4 bytes).
    Removing arm_fir_f32.o(.ARM.exidx), (8 bytes).
    Removing arm_fir_init_f32.o(.rev16_text), (4 bytes).
    Removing arm_fir_init_f32.o(.revsh_text), (4 bytes).
    Removing arm_fir_init_f32.o(.ARM.exidx), (8 bytes).
    Removing tsl.o(.rev16_text), (4 bytes).
    Removing tsl.o(.revsh_text), (4 bytes).
    Removing tsl.o(.ARM.exidx), (8 bytes).
    Removing tsl_acq.o(.rev16_text), (4 bytes).
    Removing tsl_acq.o(.revsh_text), (4 bytes).
    Removing tsl_acq.o(i._Z21TSL_acq_BankCalibrateh), (256 bytes).
    Removing tsl_acq.o(i._Z21TSL_acq_BankClearDatah), (56 bytes).
    Removing tsl_acq.o(.ARM.exidx), (8 bytes).
    Removing tsl_acq.o(.ARM.exidx), (8 bytes).
    Removing tsl_acq.o(.ARM.exidx), (8 bytes).
    Removing tsl_acq.o(.data), (6 bytes).
    Removing tsl_acq_stm32f0xx.o(.rev16_text), (4 bytes).
    Removing tsl_acq_stm32f0xx.o(.revsh_text), (4 bytes).
    Removing tsl_acq_stm32f0xx.o(i._Z19TSL_acq_BankWaitEOCv), (28 bytes).
    Removing tsl_acq_stm32f0xx.o(.ARM.exidx), (8 bytes).
    Removing tsl_acq_stm32f0xx.o(.ARM.exidx), (8 bytes).
    Removing tsl_acq_stm32f0xx.o(.ARM.exidx), (8 bytes).
    Removing tsl_acq_stm32f0xx.o(.ARM.exidx), (8 bytes).
    Removing tsl_acq_stm32f0xx.o(.ARM.exidx), (8 bytes).
    Removing tsl_acq_stm32f0xx.o(.ARM.exidx), (8 bytes).
    Removing tsl_acq_stm32f0xx.o(.ARM.exidx), (8 bytes).
    Removing tsl_acq_stm32f0xx.o(.ARM.exidx), (8 bytes).
    Removing tsl_acq_stm32f0xx.o(.ARM.exidx), (8 bytes).
    Removing tsl_acq_stm32f0xx.o(.ARM.exidx), (8 bytes).
    Removing tsl_acq_stm32f0xx.o(.ARM.exidx), (8 bytes).
    Removing tsl_acq_stm32f0xx.o(.ARM.exidx), (8 bytes).
    Removing tsl_dxs.o(.rev16_text), (4 bytes).
    Removing tsl_dxs.o(.revsh_text), (4 bytes).
    Removing tsl_dxs.o(.ARM.exidx), (8 bytes).
    Removing tsl_ecs.o(.rev16_text), (4 bytes).
    Removing tsl_ecs.o(.revsh_text), (4 bytes).
    Removing tsl_ecs.o(.ARM.exidx), (8 bytes).
    Removing tsl_ecs.o(.ARM.exidx), (8 bytes).
    Removing tsl_ecs.o(.ARM.exidx), (8 bytes).
    Removing tsl_filter.o(.rev16_text), (4 bytes).
    Removing tsl_filter.o(.revsh_text), (4 bytes).
    Removing tsl_filter.o(i._Z19TSL_filt_MeasFiltertt), (32 bytes).
    Removing tsl_filter.o(i._Z20TSL_filt_DeltaFilters), (2 bytes).
    Removing tsl_filter.o(.ARM.exidx), (8 bytes).
    Removing tsl_filter.o(.ARM.exidx), (8 bytes).
    Removing tsl_globals.o(.rev16_text), (4 bytes).
    Removing tsl_globals.o(.revsh_text), (4 bytes).
    Removing tsl_linrot.o(.rev16_text), (4 bytes).
    Removing tsl_linrot.o(.revsh_text), (4 bytes).
    Removing tsl_object.o(.rev16_text), (4 bytes).
    Removing tsl_object.o(.revsh_text), (4 bytes).
    Removing tsl_object.o(.ARM.exidx), (8 bytes).
    Removing tsl_object.o(.ARM.exidx), (8 bytes).
    Removing tsl_object.o(.ARM.exidx), (8 bytes).
    Removing tsl_time.o(.rev16_text), (4 bytes).
    Removing tsl_time.o(.revsh_text), (4 bytes).
    Removing tsl_time.o(i._Z22TSL_tim_CheckDelay_sechPVh), (88 bytes).
    Removing tsl_time.o(.ARM.exidx), (8 bytes).
    Removing tsl_time.o(.ARM.exidx), (8 bytes).
    Removing tsl_time.o(.ARM.exidx), (8 bytes).
    Removing tsl_time_stm32f0xx.o(.rev16_text), (4 bytes).
    Removing tsl_time_stm32f0xx.o(.revsh_text), (4 bytes).
    Removing tsl_time_stm32f0xx.o(.ARM.exidx), (8 bytes).
    Removing tsl_touchkey.o(.rev16_text), (4 bytes).
    Removing tsl_touchkey.o(.revsh_text), (4 bytes).
    Removing tsl_touchkey.o(i._Z18TSL_tkey_IsChangedv), (20 bytes).
    Removing tsl_touchkey.o(i._Z19TSL_tkey_DTOGetTimev), (52 bytes).
    Removing tsl_touchkey.o(i._Z19TSL_tkey_GetStateIdv), (16 bytes).
    Removing tsl_touchkey.o(i._Z20TSL_tkey_SetStateOffv), (44 bytes).
    Removing tsl_touchkey.o(i._Z26TSL_tkey_SetStateBurstOnlyv), (44 bytes).
    Removing tsl_touchkey.o(.ARM.exidx), (8 bytes).
    Removing tsl_touchkey.o(.ARM.exidx), (8 bytes).
    Removing tsl_touchkey.o(.ARM.exidx), (8 bytes).
    Removing tsl_touchkey.o(.ARM.exidx), (8 bytes).
    Removing tsl_touchkey.o(.ARM.exidx), (8 bytes).
    Removing tsl_touchkey.o(.ARM.exidx), (8 bytes).
    Removing tsl_touchkey.o(.ARM.exidx), (8 bytes).
    Removing tsl_touchkey.o(.ARM.exidx), (8 bytes).
    Removing tsl_touchkey.o(.ARM.exidx), (8 bytes).
    Removing tsl_touchkey.o(.ARM.exidx), (8 bytes).
    Removing tsl_touchkey.o(.ARM.exidx), (8 bytes).
    Removing tsl_touchkey.o(.ARM.exidx), (8 bytes).
    Removing tsl_touchkey.o(.ARM.exidx), (8 bytes).
    Removing tsl_touchkey.o(.ARM.exidx), (8 bytes).
    Removing tsl_touchkey.o(.ARM.exidx), (8 bytes).
    Removing tsl_touchkey.o(.ARM.exidx), (8 bytes).
    Removing tsl_touchkey.o(.ARM.exidx), (8 bytes).
    Removing tsl_touchkey.o(.ARM.exidx), (8 bytes).
    Removing tsl_touchkey.o(.ARM.exidx), (8 bytes).
    Removing tsl_touchkey.o(.ARM.exidx), (8 bytes).
    Removing tsl_touchkey.o(.ARM.exidx), (8 bytes).
    Removing tsl_touchkey.o(.ARM.exidx), (8 bytes).
    Removing tsl_touchkey.o(.ARM.exidx), (8 bytes).
    Removing stm32f0xx_hal_dma.o(.ARM.exidx), (8 bytes).
    Removing screen.o(.ARM.exidx), (8 bytes).
    Removing screen.o(.ARM.exidx), (8 bytes).
    Removing screen.o(.ARM.exidx), (8 bytes).
    Removing screen.o(.ARM.exidx), (8 bytes).
    Removing screen.o(.ARM.exidx), (8 bytes).
    Removing eeprom_user.o(.ARM.exidx), (8 bytes).
    Removing voltage_relay.o(.ARM.exidx), (8 bytes).
    Removing voltage_relay.o(.ARM.exidx), (8 bytes).
    Removing voltage_relay.o(.constdata__ZTI13voltage_relay), (12 bytes).
    Removing voltage_relay.o(.constdata__ZTI8Observer), (8 bytes).
    Removing voltage_relay.o(.constdata__ZTS13voltage_relay), (16 bytes).
    Removing voltage_relay.o(.constdata__ZTS8Observer), (10 bytes).
    Removing main_state_machine.o(.ARM.exidx), (8 bytes).
    Removing main_state_machine.o(.ARM.exidx), (8 bytes).
    Removing alarms_events.o(.ARM.exidx), (8 bytes).
    Removing alarms_events.o(.ARM.exidx), (8 bytes).
    Removing alarms_events.o(.ARM.exidx), (8 bytes).
    Removing alarms_events.o(i._ZN5EventD0Ev), (8 bytes).
    Removing alarms_events.o(.ARM.exidx), (8 bytes).
    Removing alarms_events.o(i._ZN18Event_EEprom_WriteD0Ev), (8 bytes).
    Removing alarms_events.o(.ARM.exidx), (8 bytes).
    Removing alarms_events.o(i._ZN5AlarmD0Ev), (8 bytes).
    Removing alarms_events.o(.ARM.exidx), (8 bytes).
    Removing alarms_events.o(.ARM.exidx), (8 bytes).
    Removing alarms_events.o(.constdata__ZTI5Event), (12 bytes).
    Removing alarms_events.o(.constdata__ZTI18Event_EEprom_Write), (12 bytes).
    Removing alarms_events.o(.constdata__ZTI5Alarm), (12 bytes).
    Removing alarms_events.o(.constdata__ZTI14OPERATION_BASE), (8 bytes).
    Removing alarms_events.o(.constdata__ZTI11Event_CheckI13voltage_relayMS0_FvvEE), (12 bytes).
    Removing alarms_events.o(.constdata__ZTS5Event), (7 bytes).
    Removing alarms_events.o(.constdata__ZTS18Event_EEprom_Write), (21 bytes).
    Removing alarms_events.o(.constdata__ZTS5Alarm), (7 bytes).
    Removing alarms_events.o(.constdata__ZTS14OPERATION_BASE), (17 bytes).
    Removing alarms_events.o(.constdata__ZTS11Event_CheckI13voltage_relayMS0_FvvEE), (39 bytes).
    Removing alarms_events.o(.ARM.exidx), (8 bytes).
    Removing alarms_events.o(t._ZN11Event_CheckI13voltage_relayMS0_FvvEED0Ev), (8 bytes).
    Removing alarms_events.o(.ARM.exidx), (8 bytes).
    Removing menu.o(.constdata__ZTV15Menu_flash_read), (24 bytes).
    Removing menu.o(.ARM.exidx), (8 bytes).
    Removing menu.o(i._ZN15Menu_flash_readD1Ev), (2 bytes).
    Removing menu.o(.ARM.exidx), (8 bytes).
    Removing menu.o(.ARM.exidx), (8 bytes).
    Removing menu.o(.ARM.exidx), (8 bytes).
    Removing menu.o(.ARM.exidx), (8 bytes).
    Removing menu.o(.ARM.exidx), (8 bytes).
    Removing menu.o(.ARM.exidx), (8 bytes).
    Removing menu.o(.ARM.exidx), (8 bytes).
    Removing menu.o(i._ZN9Menu_itemD0Ev), (12 bytes).
    Removing menu.o(.ARM.exidx), (8 bytes).
    Removing menu.o(i._ZN15Menu_flash_readD0Ev), (8 bytes).
    Removing menu.o(.ARM.exidx), (8 bytes).
    Removing menu.o(.ARM.exidx), (8 bytes).
    Removing menu.o(i._ZN13Menu_flash_rwD0Ev), (8 bytes).
    Removing menu.o(.ARM.exidx), (8 bytes).
    Removing menu.o(i._ZN18Menu_Voltage_RelayD0Ev), (8 bytes).
    Removing menu.o(.ARM.exidx), (8 bytes).
    Removing menu.o(.ARM.exidx), (8 bytes).
    Removing menu.o(i._ZN9Menu_TimeD0Ev), (8 bytes).
    Removing menu.o(.ARM.exidx), (8 bytes).
    Removing menu.o(i._ZN10Menu_ErrorD0Ev), (8 bytes).
    Removing menu.o(.ARM.exidx), (8 bytes).
    Removing menu.o(.constdata__ZTI9Menu_item), (12 bytes).
    Removing menu.o(.constdata__ZTI15Menu_flash_read), (12 bytes).
    Removing menu.o(.constdata__ZTI13Menu_flash_rw), (12 bytes).
    Removing menu.o(.constdata__ZTI18Menu_Voltage_Relay), (12 bytes).
    Removing menu.o(.constdata__ZTI9Menu_Time), (12 bytes).
    Removing menu.o(.constdata__ZTI10Menu_Error), (12 bytes).
    Removing menu.o(.constdata__ZTI9Menu_Base), (8 bytes).
    Removing menu.o(.constdata__ZTS9Menu_item), (11 bytes).
    Removing menu.o(.constdata__ZTS15Menu_flash_read), (18 bytes).
    Removing menu.o(.constdata__ZTS13Menu_flash_rw), (16 bytes).
    Removing menu.o(.constdata__ZTS18Menu_Voltage_Relay), (21 bytes).
    Removing menu.o(.constdata__ZTS9Menu_Time), (11 bytes).
    Removing menu.o(.constdata__ZTS10Menu_Error), (13 bytes).
    Removing menu.o(.constdata__ZTS9Menu_Base), (11 bytes).
    Removing menu.o(i._ZN9Menu_BaseD2Ev), (2 bytes).
    Removing menu.o(.ARM.exidx), (8 bytes).
    Removing menu.o(i._ZN9Menu_BaseD0Ev), (8 bytes).
    Removing menu.o(.ARM.exidx), (8 bytes).

1138 unused section(s) (total 31848 bytes) removed from the image.

==============================================================================

Image Symbol Table

    Local Symbols

    Symbol Name                              Value     Ov Type        Size  Object(Section)

    ../../../clib/unwind_pr.c                0x00000000   Number         0  unwind_pr0.o ABSOLUTE
    ../../../clib/unwind_pr.c                0x00000000   Number         0  unwind_prcommon.o ABSOLUTE
    ../../../clib/unwinder.c                 0x00000000   Number         0  unwind_activity.o ABSOLUTE
    ../../../clib/unwinder.c                 0x00000000   Number         0  unwind_activity.o ABSOLUTE
    ../../../clib/unwinder.c                 0x00000000   Number         0  unwinder.o ABSOLUTE
    ../../../clib/unwinder.c                 0x00000000   Number         0  unwinder.o ABSOLUTE
    ../../../edgfe/lib_src/arm_exceptions.c  0x00000000   Number         0  arm_exceptions_callterm.o ABSOLUTE
    ../../../edgfe/lib_src/arm_exceptions.c  0x00000000   Number         0  arm_exceptions_globs.o ABSOLUTE
    ../../../edgfe/lib_src/arm_exceptions.c  0x00000000   Number         0  arm_exceptions_mem.o ABSOLUTE
    ../../../edgfe/lib_src/arm_exceptions.c  0x00000000   Number         0  arm_exceptions_support.o ABSOLUTE
    ../../../edgfe/lib_src/arm_exceptions.c  0x00000000   Number         0  arm_exceptions_terminate.o ABSOLUTE
    ../../../edgfe/lib_src/arm_noexceptions.c 0x00000000   Number         0  arm_begincatch_noexceptions.o ABSOLUTE
    ../../../edgfe/lib_src/arm_noexceptions.c 0x00000000   Number         0  arm_callunex_noexceptions.o ABSOLUTE
    ../../../edgfe/lib_src/arm_noexceptions.c 0x00000000   Number         0  arm_newhandler_noexceptions.o ABSOLUTE
    ../../../edgfe/lib_src/array_del.c       0x00000000   Number         0  array_del.o ABSOLUTE
    ../../../edgfe/lib_src/array_new.c       0x00000000   Number         0  array_new.o ABSOLUTE
    ../../../edgfe/lib_src/bad_alloc.c       0x00000000   Number         0  bad_alloc_what.o ABSOLUTE
    ../../../edgfe/lib_src/bad_alloc.c       0x00000000   Number         0  bad_alloc_dtor.o ABSOLUTE
    ../../../edgfe/lib_src/delete.c          0x00000000   Number         0  delete.o ABSOLUTE
    ../../../edgfe/lib_src/exception.c       0x00000000   Number         0  exception_dtor.o ABSOLUTE
    ../../../edgfe/lib_src/exception.c       0x00000000   Number         0  exception_what.o ABSOLUTE
    ../../../edgfe/lib_src/new.c             0x00000000   Number         0  new.o ABSOLUTE
    ../../../edgfe/lib_src/pure_virt.c       0x00000000   Number         0  pure_virt.o ABSOLUTE
    ../../../edgfe/lib_src/typeinfo.c        0x00000000   Number         0  lib_rtti_impl.o ABSOLUTE
    ../../../edgfe/lib_src/typeinfo.c        0x00000000   Number         0  type_info_dtor.o ABSOLUTE
    ../Drivers/STM32F0xx_HAL_Driver/Src/stm32f0xx_hal.c 0x00000000   Number         0  stm32f0xx_hal.o ABSOLUTE
    ../Drivers/STM32F0xx_HAL_Driver/Src/stm32f0xx_hal_adc.c 0x00000000   Number         0  stm32f0xx_hal_adc.o ABSOLUTE
    ../Drivers/STM32F0xx_HAL_Driver/Src/stm32f0xx_hal_adc_ex.c 0x00000000   Number         0  stm32f0xx_hal_adc_ex.o ABSOLUTE
    ../Drivers/STM32F0xx_HAL_Driver/Src/stm32f0xx_hal_cortex.c 0x00000000   Number         0  stm32f0xx_hal_cortex.o ABSOLUTE
    ../Drivers/STM32F0xx_HAL_Driver/Src/stm32f0xx_hal_dma.c 0x00000000   Number         0  stm32f0xx_hal_dma.o ABSOLUTE
    ../Drivers/STM32F0xx_HAL_Driver/Src/stm32f0xx_hal_flash.c 0x00000000   Number         0  stm32f0xx_hal_flash.o ABSOLUTE
    ../Drivers/STM32F0xx_HAL_Driver/Src/stm32f0xx_hal_flash_ex.c 0x00000000   Number         0  stm32f0xx_hal_flash_ex.o ABSOLUTE
    ../Drivers/STM32F0xx_HAL_Driver/Src/stm32f0xx_hal_gpio.c 0x00000000   Number         0  stm32f0xx_hal_gpio.o ABSOLUTE
    ../Drivers/STM32F0xx_HAL_Driver/Src/stm32f0xx_hal_i2c.c 0x00000000   Number         0  stm32f0xx_hal_i2c.o ABSOLUTE
    ../Drivers/STM32F0xx_HAL_Driver/Src/stm32f0xx_hal_i2c_ex.c 0x00000000   Number         0  stm32f0xx_hal_i2c_ex.o ABSOLUTE
    ../Drivers/STM32F0xx_HAL_Driver/Src/stm32f0xx_hal_pwr.c 0x00000000   Number         0  stm32f0xx_hal_pwr.o ABSOLUTE
    ../Drivers/STM32F0xx_HAL_Driver/Src/stm32f0xx_hal_pwr_ex.c 0x00000000   Number         0  stm32f0xx_hal_pwr_ex.o ABSOLUTE
    ../Drivers/STM32F0xx_HAL_Driver/Src/stm32f0xx_hal_rcc.c 0x00000000   Number         0  stm32f0xx_hal_rcc.o ABSOLUTE
    ../Drivers/STM32F0xx_HAL_Driver/Src/stm32f0xx_hal_rcc_ex.c 0x00000000   Number         0  stm32f0xx_hal_rcc_ex.o ABSOLUTE
    ../Drivers/STM32F0xx_HAL_Driver/Src/stm32f0xx_hal_tim.c 0x00000000   Number         0  stm32f0xx_hal_tim.o ABSOLUTE
    ../Drivers/STM32F0xx_HAL_Driver/Src/stm32f0xx_hal_tim_ex.c 0x00000000   Number         0  stm32f0xx_hal_tim_ex.o ABSOLUTE
    ../Drivers/STM32F0xx_HAL_Driver/Src/stm32f0xx_hal_tsc.c 0x00000000   Number         0  stm32f0xx_hal_tsc.o ABSOLUTE
    ../Src/main.c                            0x00000000   Number         0  main_1.o ABSOLUTE
    ../Src/stm32f0xx_hal_msp.c               0x00000000   Number         0  stm32f0xx_hal_msp.o ABSOLUTE
    ../Src/stm32f0xx_it.c                    0x00000000   Number         0  stm32f0xx_it.o ABSOLUTE
    ../Src/system_stm32f0xx.c                0x00000000   Number         0  system_stm32f0xx.o ABSOLUTE
    ../clib/../cmprslib/zerorunl2.c          0x00000000   Number         0  __dczerorl2.o ABSOLUTE
    ../clib/angel/boardlib.s                 0x00000000   Number         0  boardinit2.o ABSOLUTE
    ../clib/angel/boardlib.s                 0x00000000   Number         0  boardinit3.o ABSOLUTE
    ../clib/angel/boardlib.s                 0x00000000   Number         0  boardshut.o ABSOLUTE
    ../clib/angel/boardlib.s                 0x00000000   Number         0  boardinit1.o ABSOLUTE
    ../clib/angel/handlers.s                 0x00000000   Number         0  __scatter_zi.o ABSOLUTE
    ../clib/angel/kernel.s                   0x00000000   Number         0  rtexit2.o ABSOLUTE
    ../clib/angel/kernel.s                   0x00000000   Number         0  rtexit.o ABSOLUTE
    ../clib/angel/kernel.s                   0x00000000   Number         0  __rtentry4.o ABSOLUTE
    ../clib/angel/kernel.s                   0x00000000   Number         0  __rtentry.o ABSOLUTE
    ../clib/angel/kernel.s                   0x00000000   Number         0  __rtentry2.o ABSOLUTE
    ../clib/angel/rt.s                       0x00000000   Number         0  rt_eh_globals_addr_intlibspace.o ABSOLUTE
    ../clib/angel/rt.s                       0x00000000   Number         0  aeabi_idiv0.o ABSOLUTE
    ../clib/angel/rt.s                       0x00000000   Number         0  aeabi_idiv0_sigfpe.o ABSOLUTE
    ../clib/angel/rt.s                       0x00000000   Number         0  rt_new_handler_addr.o ABSOLUTE
    ../clib/angel/rt.s                       0x00000000   Number         0  rt_new_handler_addr_intlibspace.o ABSOLUTE
    ../clib/angel/rt.s                       0x00000000   Number         0  rt_ddtor_pointer_addr_intlibspace.o ABSOLUTE
    ../clib/angel/rt.s                       0x00000000   Number         0  rt_errno_addr_intlibspace.o ABSOLUTE
    ../clib/angel/rt.s                       0x00000000   Number         0  rt_errno_addr.o ABSOLUTE
    ../clib/angel/rt.s                       0x00000000   Number         0  rt_locale_intlibspace.o ABSOLUTE
    ../clib/angel/rt.s                       0x00000000   Number         0  rt_locale.o ABSOLUTE
    ../clib/angel/rt.s                       0x00000000   Number         0  rt_heap_descriptor_intlibspace.o ABSOLUTE
    ../clib/angel/rt.s                       0x00000000   Number         0  rt_heap_descriptor.o ABSOLUTE
    ../clib/angel/rt.s                       0x00000000   Number         0  rt_raise.o ABSOLUTE
    ../clib/angel/rt.s                       0x00000000   Number         0  rt_div0.o ABSOLUTE
    ../clib/angel/rt.s                       0x00000000   Number         0  rt_eh_globals_addr.o ABSOLUTE
    ../clib/angel/rt.s                       0x00000000   Number         0  rt_ddtor_pointer_addr.o ABSOLUTE
    ../clib/angel/scatterp.s                 0x00000000   Number         0  __scatter.o ABSOLUTE
    ../clib/angel/startup.s                  0x00000000   Number         0  __main.o ABSOLUTE
    ../clib/angel/sys.s                      0x00000000   Number         0  indicate_semi.o ABSOLUTE
    ../clib/angel/sys.s                      0x00000000   Number         0  use_no_semi.o ABSOLUTE
    ../clib/angel/sys.s                      0x00000000   Number         0  libspace.o ABSOLUTE
    ../clib/angel/sys.s                      0x00000000   Number         0  sys_stackheap_outer.o ABSOLUTE
    ../clib/angel/sys.s                      0x00000000   Number         0  mutex_dummy.o ABSOLUTE
    ../clib/angel/sys.s                      0x00000000   Number         0  tempstk.o ABSOLUTE
    ../clib/angel/sysapp.c                   0x00000000   Number         0  sys_wrch.o ABSOLUTE
    ../clib/angel/sysapp.c                   0x00000000   Number         0  sys_exit.o ABSOLUTE
    ../clib/angel/sysapp.c                   0x00000000   Number         0  sys_command.o ABSOLUTE
    ../clib/arm_runtime.c                    0x00000000   Number         0  init_aeabi.o ABSOLUTE
    ../clib/arm_runtime.c                    0x00000000   Number         0  init_aeabi.o ABSOLUTE
    ../clib/armsys.c                         0x00000000   Number         0  no_argv.o ABSOLUTE
    ../clib/armsys.c                         0x00000000   Number         0  _get_argv.o ABSOLUTE
    ../clib/armsys.c                         0x00000000   Number         0  argv_veneer.o ABSOLUTE
    ../clib/armsys.c                         0x00000000   Number         0  _get_argv_nomalloc.o ABSOLUTE
    ../clib/bigflt.c                         0x00000000   Number         0  bigflt0.o ABSOLUTE
    ../clib/btod.c                           0x00000000   Number         0  btod.o ABSOLUTE
    ../clib/division.c                       0x00000000   Number         0  rtudiv10.o ABSOLUTE
    ../clib/division.c                       0x00000000   Number         0  lludiv10.o ABSOLUTE
    ../clib/division.s                       0x00000000   Number         0  aeabi_sdiv_div0.o ABSOLUTE
    ../clib/division.s                       0x00000000   Number         0  aeabi_sdiv.o ABSOLUTE
    ../clib/fenv.c                           0x00000000   Number         0  _rserrno.o ABSOLUTE
    ../clib/heap1.c                          0x00000000   Number         0  h1_init_mt.o ABSOLUTE
    ../clib/heap1.c                          0x00000000   Number         0  h1_extend_mt.o ABSOLUTE
    ../clib/heap1.c                          0x00000000   Number         0  h1_extend.o ABSOLUTE
    ../clib/heap1.c                          0x00000000   Number         0  h1_alloc_mt.o ABSOLUTE
    ../clib/heap1.c                          0x00000000   Number         0  h1_final.o ABSOLUTE
    ../clib/heap1.c                          0x00000000   Number         0  h1_final_mt.o ABSOLUTE
    ../clib/heap1.c                          0x00000000   Number         0  h1_free_mt.o ABSOLUTE
    ../clib/heap1.c                          0x00000000   Number         0  h1_free.o ABSOLUTE
    ../clib/heap1.c                          0x00000000   Number         0  h1_init.o ABSOLUTE
    ../clib/heap1.c                          0x00000000   Number         0  h1_alloc.o ABSOLUTE
    ../clib/heap2.c                          0x00000000   Number         0  fdtree.o ABSOLUTE
    ../clib/heap2.c                          0x00000000   Number         0  heap2mt.o ABSOLUTE
    ../clib/heap2.c                          0x00000000   Number         0  heap2.o ABSOLUTE
    ../clib/heapalloc.c                      0x00000000   Number         0  hrguard.o ABSOLUTE
    ../clib/heapalloc.c                      0x00000000   Number         0  maybetermalloc1.o ABSOLUTE
    ../clib/heapalloc.c                      0x00000000   Number         0  malloc.o ABSOLUTE
    ../clib/heapalloc.c                      0x00000000   Number         0  term_alloc.o ABSOLUTE
    ../clib/heapalloc.c                      0x00000000   Number         0  maybetermalloc2.o ABSOLUTE
    ../clib/heapalloc.c                      0x00000000   Number         0  free.o ABSOLUTE
    ../clib/heapalloc.c                      0x00000000   Number         0  hguard.o ABSOLUTE
    ../clib/heapalloc.c                      0x00000000   Number         0  init_alloc.o ABSOLUTE
    ../clib/heapalloc.c                      0x00000000   Number         0  heapstubs.o ABSOLUTE
    ../clib/heapalloc.c                      0x00000000   Number         0  maybetermalloc2.o ABSOLUTE
    ../clib/heapalloc.c                      0x00000000   Number         0  maybetermalloc1.o ABSOLUTE
    ../clib/heapaux.c                        0x00000000   Number         0  heapauxi.o ABSOLUTE
    ../clib/heapaux.c                        0x00000000   Number         0  heapauxa.o ABSOLUTE
    ../clib/libinit.s                        0x00000000   Number         0  libshutdown.o ABSOLUTE
    ../clib/libinit.s                        0x00000000   Number         0  libinit2.o ABSOLUTE
    ../clib/libinit.s                        0x00000000   Number         0  libinit.o ABSOLUTE
    ../clib/libinit.s                        0x00000000   Number         0  libshutdown2.o ABSOLUTE
    ../clib/locale.s                         0x00000000   Number         0  lc_numeric_c.o ABSOLUTE
    ../clib/longlong.c                       0x00000000   Number         0  llushr.o ABSOLUTE
    ../clib/memcpset.c                       0x00000000   Number         0  rt_memmove.o ABSOLUTE
    ../clib/memcpset.c                       0x00000000   Number         0  rt_memclr.o ABSOLUTE
    ../clib/memcpset.c                       0x00000000   Number         0  rt_memcpy.o ABSOLUTE
    ../clib/memcpset.c                       0x00000000   Number         0  rt_memcpy.o ABSOLUTE
    ../clib/misc.s                           0x00000000   Number         0  printf_stubs.o ABSOLUTE
    ../clib/printf.c                         0x00000000   Number         0  _printf_fp_dec.o ABSOLUTE
    ../clib/printf.c                         0x00000000   Number         0  __printf_flags_wp.o ABSOLUTE
    ../clib/printf.c                         0x00000000   Number         0  _printf_pad.o ABSOLUTE
    ../clib/printf.c                         0x00000000   Number         0  __printf_flags.o ABSOLUTE
    ../clib/printf.c                         0x00000000   Number         0  __printf_ss.o ABSOLUTE
    ../clib/printf.c                         0x00000000   Number         0  __printf_flags_ss.o ABSOLUTE
    ../clib/printf.c                         0x00000000   Number         0  _printf_fp_infnan.o ABSOLUTE
    ../clib/printf.c                         0x00000000   Number         0  __printf_nopercent.o ABSOLUTE
    ../clib/printf.c                         0x00000000   Number         0  __printf_wp.o ABSOLUTE
    ../clib/printf.c                         0x00000000   Number         0  __printf_ss_wp.o ABSOLUTE
    ../clib/printf.c                         0x00000000   Number         0  _sputc.o ABSOLUTE
    ../clib/printf.c                         0x00000000   Number         0  __printf_flags_ss_wp.o ABSOLUTE
    ../clib/printf.c                         0x00000000   Number         0  _printf_char_common.o ABSOLUTE
    ../clib/printf.c                         0x00000000   Number         0  __2sprintf.o ABSOLUTE
    ../clib/printf.c                         0x00000000   Number         0  noretval__2sprintf.o ABSOLUTE
    ../clib/printf.c                         0x00000000   Number         0  __printf.o ABSOLUTE
    ../clib/printf_percent.s                 0x00000000   Number         0  _printf_f.o ABSOLUTE
    ../clib/printf_percent.s                 0x00000000   Number         0  _printf_percent_end.o ABSOLUTE
    ../clib/printf_percent.s                 0x00000000   Number         0  _printf_percent.o ABSOLUTE
    ../clib/signal.c                         0x00000000   Number         0  defsig_other.o ABSOLUTE
    ../clib/signal.c                         0x00000000   Number         0  defsig_segv_inner.o ABSOLUTE
    ../clib/signal.c                         0x00000000   Number         0  defsig_cppl_inner.o ABSOLUTE
    ../clib/signal.c                         0x00000000   Number         0  defsig_stak_inner.o ABSOLUTE
    ../clib/signal.c                         0x00000000   Number         0  defsig_general.o ABSOLUTE
    ../clib/signal.c                         0x00000000   Number         0  defsig_rtred_inner.o ABSOLUTE
    ../clib/signal.c                         0x00000000   Number         0  defsig_abrt_inner.o ABSOLUTE
    ../clib/signal.c                         0x00000000   Number         0  defsig_pvfn_outer.o ABSOLUTE
    ../clib/signal.c                         0x00000000   Number         0  defsig_rtmem_inner.o ABSOLUTE
    ../clib/signal.c                         0x00000000   Number         0  defsig_fpe_inner.o ABSOLUTE
    ../clib/signal.c                         0x00000000   Number         0  defsig_abrt_formal.o ABSOLUTE
    ../clib/signal.c                         0x00000000   Number         0  defsig_abrt_outer.o ABSOLUTE
    ../clib/signal.c                         0x00000000   Number         0  defsig_pvfn_formal.o ABSOLUTE
    ../clib/signal.c                         0x00000000   Number         0  defsig_pvfn_inner.o ABSOLUTE
    ../clib/signal.c                         0x00000000   Number         0  defsig_exit.o ABSOLUTE
    ../clib/signal.c                         0x00000000   Number         0  defsig_fpe_outer.o ABSOLUTE
    ../clib/signal.c                         0x00000000   Number         0  defsig_fpe_formal.o ABSOLUTE
    ../clib/signal.c                         0x00000000   Number         0  defsig_rtmem_outer.o ABSOLUTE
    ../clib/signal.c                         0x00000000   Number         0  defsig_rtmem_formal.o ABSOLUTE
    ../clib/signal.c                         0x00000000   Number         0  __raise.o ABSOLUTE
    ../clib/signal.s                         0x00000000   Number         0  defsig.o ABSOLUTE
    ../clib/stdlib.c                         0x00000000   Number         0  atexit_aeabi.o ABSOLUTE
    ../clib/stdlib.c                         0x00000000   Number         0  bsearchnoex.o ABSOLUTE
    ../clib/stdlib.c                         0x00000000   Number         0  exit.o ABSOLUTE
    ../clib/stdlib.c                         0x00000000   Number         0  abort.o ABSOLUTE
    ../clib/stdlib.c                         0x00000000   Number         0  aeabi_atexit.o ABSOLUTE
    ../clib/stdlib.c                         0x00000000   Number         0  cxa_finalize.o ABSOLUTE
    ../clib/string.c                         0x00000000   Number         0  strncmp.o ABSOLUTE
    ../clib/string.c                         0x00000000   Number         0  strcmp.o ABSOLUTE
    ../clib/string.c                         0x00000000   Number         0  strlen.o ABSOLUTE
    ../fplib/cfplib/d2f.c                    0x00000000   Number         0  d2f.o ABSOLUTE
    ../fplib/cfplib/dmul.c                   0x00000000   Number         0  dmul.o ABSOLUTE
    ../fplib/cfplib/f2d.c                    0x00000000   Number         0  f2d.o ABSOLUTE
    ../fplib/cfplib/fdiv.c                   0x00000000   Number         0  fdiv.o ABSOLUTE
    ../fplib/cfplib/ffix.c                   0x00000000   Number         0  ffixui.o ABSOLUTE
    ../fplib/cfplib/fflt.c                   0x00000000   Number         0  fflti.o ABSOLUTE
    ../fplib/cfplib/fpinit.c                 0x00000000   Number         0  fpinit.o ABSOLUTE
    ../fplib/cfplib/fsqrt.c                  0x00000000   Number         0  fsqrt.o ABSOLUTE
    ../fplib/cfplib/ieee_status.c            0x00000000   Number         0  ieee_status.o ABSOLUTE
    ../fplib/faddsub6m.s                     0x00000000   Number         0  faddsub.o ABSOLUTE
    ../fplib/fmul6m.s                        0x00000000   Number         0  fmul.o ABSOLUTE
    ../fplib/printf1.s                       0x00000000   Number         0  printf1.o ABSOLUTE
    ../fplib/usenofp.s                       0x00000000   Number         0  usenofp.o ABSOLUTE
    ../mathlib/fpclassify.c                  0x00000000   Number         0  fpclassify.o ABSOLUTE
    ../mathlib/sqrtf.c                       0x00000000   Number         0  sqrtf_x.o ABSOLUTE
    ../mathlib/sqrtf.c                       0x00000000   Number         0  sqrtf.o ABSOLUTE
    ..\Drivers\CMSIS\DSP_Lib\Source\FilteringFunctions\arm_fir_f32.c 0x00000000   Number         0  arm_fir_f32.o ABSOLUTE
    ..\Drivers\CMSIS\DSP_Lib\Source\FilteringFunctions\arm_fir_init_f32.c 0x00000000   Number         0  arm_fir_init_f32.o ABSOLUTE
    ..\Drivers\STM32F0xx_HAL_Driver\Src\stm32f0xx_hal.c 0x00000000   Number         0  stm32f0xx_hal.o ABSOLUTE
    ..\Drivers\STM32F0xx_HAL_Driver\Src\stm32f0xx_hal_adc.c 0x00000000   Number         0  stm32f0xx_hal_adc.o ABSOLUTE
    ..\Drivers\STM32F0xx_HAL_Driver\Src\stm32f0xx_hal_adc_ex.c 0x00000000   Number         0  stm32f0xx_hal_adc_ex.o ABSOLUTE
    ..\Drivers\STM32F0xx_HAL_Driver\Src\stm32f0xx_hal_cortex.c 0x00000000   Number         0  stm32f0xx_hal_cortex.o ABSOLUTE
    ..\Drivers\STM32F0xx_HAL_Driver\Src\stm32f0xx_hal_dma.c 0x00000000   Number         0  stm32f0xx_hal_dma.o ABSOLUTE
    ..\Drivers\STM32F0xx_HAL_Driver\Src\stm32f0xx_hal_flash.c 0x00000000   Number         0  stm32f0xx_hal_flash.o ABSOLUTE
    ..\Drivers\STM32F0xx_HAL_Driver\Src\stm32f0xx_hal_flash_ex.c 0x00000000   Number         0  stm32f0xx_hal_flash_ex.o ABSOLUTE
    ..\Drivers\STM32F0xx_HAL_Driver\Src\stm32f0xx_hal_gpio.c 0x00000000   Number         0  stm32f0xx_hal_gpio.o ABSOLUTE
    ..\Drivers\STM32F0xx_HAL_Driver\Src\stm32f0xx_hal_i2c.c 0x00000000   Number         0  stm32f0xx_hal_i2c.o ABSOLUTE
    ..\Drivers\STM32F0xx_HAL_Driver\Src\stm32f0xx_hal_i2c_ex.c 0x00000000   Number         0  stm32f0xx_hal_i2c_ex.o ABSOLUTE
    ..\Drivers\STM32F0xx_HAL_Driver\Src\stm32f0xx_hal_pwr.c 0x00000000   Number         0  stm32f0xx_hal_pwr.o ABSOLUTE
    ..\Drivers\STM32F0xx_HAL_Driver\Src\stm32f0xx_hal_pwr_ex.c 0x00000000   Number         0  stm32f0xx_hal_pwr_ex.o ABSOLUTE
    ..\Drivers\STM32F0xx_HAL_Driver\Src\stm32f0xx_hal_rcc.c 0x00000000   Number         0  stm32f0xx_hal_rcc.o ABSOLUTE
    ..\Drivers\STM32F0xx_HAL_Driver\Src\stm32f0xx_hal_rcc_ex.c 0x00000000   Number         0  stm32f0xx_hal_rcc_ex.o ABSOLUTE
    ..\Drivers\STM32F0xx_HAL_Driver\Src\stm32f0xx_hal_tim.c 0x00000000   Number         0  stm32f0xx_hal_tim.o ABSOLUTE
    ..\Drivers\STM32F0xx_HAL_Driver\Src\stm32f0xx_hal_tim_ex.c 0x00000000   Number         0  stm32f0xx_hal_tim_ex.o ABSOLUTE
    ..\Drivers\STM32F0xx_HAL_Driver\Src\stm32f0xx_hal_tsc.c 0x00000000   Number         0  stm32f0xx_hal_tsc.o ABSOLUTE
    ..\Drivers\STMTouch_Driver\src\tsl.c     0x00000000   Number         0  tsl.o ABSOLUTE
    ..\Drivers\STMTouch_Driver\src\tsl_acq.c 0x00000000   Number         0  tsl_acq.o ABSOLUTE
    ..\Drivers\STMTouch_Driver\src\tsl_acq_stm32f0xx.c 0x00000000   Number         0  tsl_acq_stm32f0xx.o ABSOLUTE
    ..\Drivers\STMTouch_Driver\src\tsl_dxs.c 0x00000000   Number         0  tsl_dxs.o ABSOLUTE
    ..\Drivers\STMTouch_Driver\src\tsl_ecs.c 0x00000000   Number         0  tsl_ecs.o ABSOLUTE
    ..\Drivers\STMTouch_Driver\src\tsl_filter.c 0x00000000   Number         0  tsl_filter.o ABSOLUTE
    ..\Drivers\STMTouch_Driver\src\tsl_globals.c 0x00000000   Number         0  tsl_globals.o ABSOLUTE
    ..\Drivers\STMTouch_Driver\src\tsl_linrot.c 0x00000000   Number         0  tsl_linrot.o ABSOLUTE
    ..\Drivers\STMTouch_Driver\src\tsl_object.c 0x00000000   Number         0  tsl_object.o ABSOLUTE
    ..\Drivers\STMTouch_Driver\src\tsl_time.c 0x00000000   Number         0  tsl_time.o ABSOLUTE
    ..\Drivers\STMTouch_Driver\src\tsl_time_stm32f0xx.c 0x00000000   Number         0  tsl_time_stm32f0xx.o ABSOLUTE
    ..\Drivers\STMTouch_Driver\src\tsl_touchkey.c 0x00000000   Number         0  tsl_touchkey.o ABSOLUTE
    ..\Src\Screen.cpp                        0x00000000   Number         0  screen.o ABSOLUTE
    ..\Src\alarms_events.cpp                 0x00000000   Number         0  alarms_events.o ABSOLUTE
    ..\Src\eeprom.c                          0x00000000   Number         0  eeprom.o ABSOLUTE
    ..\Src\eeprom_user.cpp                   0x00000000   Number         0  eeprom_user.o ABSOLUTE
    ..\Src\help.cpp                          0x00000000   Number         0  help.o ABSOLUTE
    ..\Src\keyboard.cpp                      0x00000000   Number         0  keyboard.o ABSOLUTE
    ..\Src\main.c                            0x00000000   Number         0  main_1.o ABSOLUTE
    ..\Src\main_state_machine.cpp            0x00000000   Number         0  main_state_machine.o ABSOLUTE
    ..\Src\menu.cpp                          0x00000000   Number         0  menu.o ABSOLUTE
    ..\Src\observer.cpp                      0x00000000   Number         0  observer.o ABSOLUTE
    ..\Src\stm32f0xx_hal_msp.c               0x00000000   Number         0  stm32f0xx_hal_msp.o ABSOLUTE
    ..\Src\stm32f0xx_it.c                    0x00000000   Number         0  stm32f0xx_it.o ABSOLUTE
    ..\Src\system_stm32f0xx.c                0x00000000   Number         0  system_stm32f0xx.o ABSOLUTE
    ..\Src\tsl_user.c                        0x00000000   Number         0  tsl_user.o ABSOLUTE
    ..\Src\voltage_acq.cpp                   0x00000000   Number         0  voltage_acq.o ABSOLUTE
    ..\Src\voltage_relay.cpp                 0x00000000   Number         0  voltage_relay.o ABSOLUTE
    ..\\Drivers\\CMSIS\\DSP_Lib\\Source\\FilteringFunctions\\arm_fir_f32.c 0x00000000   Number         0  arm_fir_f32.o ABSOLUTE
    ..\\Drivers\\CMSIS\\DSP_Lib\\Source\\FilteringFunctions\\arm_fir_init_f32.c 0x00000000   Number         0  arm_fir_init_f32.o ABSOLUTE
    ..\\Drivers\\STMTouch_Driver\\src\\tsl.c 0x00000000   Number         0  tsl.o ABSOLUTE
    ..\\Drivers\\STMTouch_Driver\\src\\tsl_acq.c 0x00000000   Number         0  tsl_acq.o ABSOLUTE
    ..\\Drivers\\STMTouch_Driver\\src\\tsl_acq_stm32f0xx.c 0x00000000   Number         0  tsl_acq_stm32f0xx.o ABSOLUTE
    ..\\Drivers\\STMTouch_Driver\\src\\tsl_dxs.c 0x00000000   Number         0  tsl_dxs.o ABSOLUTE
    ..\\Drivers\\STMTouch_Driver\\src\\tsl_ecs.c 0x00000000   Number         0  tsl_ecs.o ABSOLUTE
    ..\\Drivers\\STMTouch_Driver\\src\\tsl_filter.c 0x00000000   Number         0  tsl_filter.o ABSOLUTE
    ..\\Drivers\\STMTouch_Driver\\src\\tsl_globals.c 0x00000000   Number         0  tsl_globals.o ABSOLUTE
    ..\\Drivers\\STMTouch_Driver\\src\\tsl_linrot.c 0x00000000   Number         0  tsl_linrot.o ABSOLUTE
    ..\\Drivers\\STMTouch_Driver\\src\\tsl_object.c 0x00000000   Number         0  tsl_object.o ABSOLUTE
    ..\\Drivers\\STMTouch_Driver\\src\\tsl_time.c 0x00000000   Number         0  tsl_time.o ABSOLUTE
    ..\\Drivers\\STMTouch_Driver\\src\\tsl_time_stm32f0xx.c 0x00000000   Number         0  tsl_time_stm32f0xx.o ABSOLUTE
    ..\\Drivers\\STMTouch_Driver\\src\\tsl_touchkey.c 0x00000000   Number         0  tsl_touchkey.o ABSOLUTE
    ..\\Src\\Screen.cpp                      0x00000000   Number         0  screen.o ABSOLUTE
    ..\\Src\\alarms_events.cpp               0x00000000   Number         0  alarms_events.o ABSOLUTE
    ..\\Src\\eeprom.c                        0x00000000   Number         0  eeprom.o ABSOLUTE
    ..\\Src\\eeprom_user.cpp                 0x00000000   Number         0  eeprom_user.o ABSOLUTE
    ..\\Src\\help.cpp                        0x00000000   Number         0  help.o ABSOLUTE
    ..\\Src\\keyboard.cpp                    0x00000000   Number         0  keyboard.o ABSOLUTE
    ..\\Src\\main_state_machine.cpp          0x00000000   Number         0  main_state_machine.o ABSOLUTE
    ..\\Src\\menu.cpp                        0x00000000   Number         0  menu.o ABSOLUTE
    ..\\Src\\observer.cpp                    0x00000000   Number         0  observer.o ABSOLUTE
    ..\\Src\\tsl_user.c                      0x00000000   Number         0  tsl_user.o ABSOLUTE
    ..\\Src\\voltage_acq.cpp                 0x00000000   Number         0  voltage_acq.o ABSOLUTE
    ..\\Src\\voltage_relay.cpp               0x00000000   Number         0  voltage_relay.o ABSOLUTE
    dc.s                                     0x00000000   Number         0  dc.o ABSOLUTE
    startup_stm32f071xb.s                    0x00000000   Number         0  startup_stm32f071xb.o ABSOLUTE
    RESET                                    0x08000000   Section      188  startup_stm32f071xb.o(RESET)
    !!!main                                  0x080000bc   Section        8  __main.o(!!!main)
    !!!scatter                               0x080000c4   Section       60  __scatter.o(!!!scatter)
    !!handler_zi                             0x08000100   Section       28  __scatter_zi.o(!!handler_zi)
    .ARM.Collect$$libinit$$00000000          0x0800011c   Section        2  libinit.o(.ARM.Collect$$libinit$$00000000)
    .ARM.Collect$$libinit$$00000002          0x0800011e   Section        0  libinit2.o(.ARM.Collect$$libinit$$00000002)
    .ARM.Collect$$libinit$$00000004          0x0800011e   Section        0  libinit2.o(.ARM.Collect$$libinit$$00000004)
    .ARM.Collect$$libinit$$00000005          0x0800011e   Section        8  libinit2.o(.ARM.Collect$$libinit$$00000005)
    .ARM.Collect$$libinit$$0000000A          0x08000126   Section        0  libinit2.o(.ARM.Collect$$libinit$$0000000A)
    .ARM.Collect$$libinit$$0000000C          0x08000126   Section        0  libinit2.o(.ARM.Collect$$libinit$$0000000C)
    .ARM.Collect$$libinit$$0000000E          0x08000126   Section        0  libinit2.o(.ARM.Collect$$libinit$$0000000E)
    .ARM.Collect$$libinit$$00000011          0x08000126   Section        0  libinit2.o(.ARM.Collect$$libinit$$00000011)
    .ARM.Collect$$libinit$$00000013          0x08000126   Section        0  libinit2.o(.ARM.Collect$$libinit$$00000013)
    .ARM.Collect$$libinit$$00000015          0x08000126   Section        0  libinit2.o(.ARM.Collect$$libinit$$00000015)
    .ARM.Collect$$libinit$$00000017          0x08000126   Section        0  libinit2.o(.ARM.Collect$$libinit$$00000017)
    .ARM.Collect$$libinit$$00000019          0x08000126   Section        0  libinit2.o(.ARM.Collect$$libinit$$00000019)
    .ARM.Collect$$libinit$$0000001B          0x08000126   Section        0  libinit2.o(.ARM.Collect$$libinit$$0000001B)
    .ARM.Collect$$libinit$$0000001D          0x08000126   Section        0  libinit2.o(.ARM.Collect$$libinit$$0000001D)
    .ARM.Collect$$libinit$$0000001F          0x08000126   Section        0  libinit2.o(.ARM.Collect$$libinit$$0000001F)
    .ARM.Collect$$libinit$$00000021          0x08000126   Section        0  libinit2.o(.ARM.Collect$$libinit$$00000021)
    .ARM.Collect$$libinit$$00000023          0x08000126   Section        0  libinit2.o(.ARM.Collect$$libinit$$00000023)
    .ARM.Collect$$libinit$$00000025          0x08000126   Section        0  libinit2.o(.ARM.Collect$$libinit$$00000025)
    .ARM.Collect$$libinit$$0000002C          0x08000126   Section        0  libinit2.o(.ARM.Collect$$libinit$$0000002C)
    .ARM.Collect$$libinit$$0000002E          0x08000126   Section        0  libinit2.o(.ARM.Collect$$libinit$$0000002E)
    .ARM.Collect$$libinit$$00000030          0x08000126   Section        0  libinit2.o(.ARM.Collect$$libinit$$00000030)
    .ARM.Collect$$libinit$$00000031          0x08000126   Section        4  libinit2.o(.ARM.Collect$$libinit$$00000031)
    .ARM.Collect$$libinit$$00000032          0x0800012a   Section        0  libinit2.o(.ARM.Collect$$libinit$$00000032)
    .ARM.Collect$$libinit$$00000033          0x0800012a   Section        2  libinit2.o(.ARM.Collect$$libinit$$00000033)
    .ARM.Collect$$libshutdown$$00000000      0x0800012c   Section        2  libshutdown.o(.ARM.Collect$$libshutdown$$00000000)
    .ARM.Collect$$libshutdown$$00000001      0x0800012e   Section        6  libshutdown2.o(.ARM.Collect$$libshutdown$$00000001)
    .ARM.Collect$$libshutdown$$00000002      0x08000134   Section        0  libshutdown2.o(.ARM.Collect$$libshutdown$$00000002)
    .ARM.Collect$$libshutdown$$00000004      0x08000134   Section        0  libshutdown2.o(.ARM.Collect$$libshutdown$$00000004)
    .ARM.Collect$$libshutdown$$00000007      0x08000134   Section        0  libshutdown2.o(.ARM.Collect$$libshutdown$$00000007)
    .ARM.Collect$$libshutdown$$0000000A      0x08000134   Section        0  libshutdown2.o(.ARM.Collect$$libshutdown$$0000000A)
    .ARM.Collect$$libshutdown$$0000000C      0x08000134   Section        0  libshutdown2.o(.ARM.Collect$$libshutdown$$0000000C)
    .ARM.Collect$$libshutdown$$0000000F      0x08000134   Section        0  libshutdown2.o(.ARM.Collect$$libshutdown$$0000000F)
    .ARM.Collect$$libshutdown$$00000010      0x08000134   Section        2  libshutdown2.o(.ARM.Collect$$libshutdown$$00000010)
    .ARM.Collect$$rtentry$$00000000          0x08000136   Section        0  __rtentry.o(.ARM.Collect$$rtentry$$00000000)
    .ARM.Collect$$rtentry$$00000002          0x08000136   Section        0  __rtentry2.o(.ARM.Collect$$rtentry$$00000002)
    .ARM.Collect$$rtentry$$00000004          0x08000136   Section        6  __rtentry4.o(.ARM.Collect$$rtentry$$00000004)
    .ARM.Collect$$rtentry$$00000009          0x0800013c   Section        0  __rtentry2.o(.ARM.Collect$$rtentry$$00000009)
    .ARM.Collect$$rtentry$$0000000A          0x0800013c   Section        4  __rtentry2.o(.ARM.Collect$$rtentry$$0000000A)
    .ARM.Collect$$rtentry$$0000000C          0x08000140   Section        0  __rtentry2.o(.ARM.Collect$$rtentry$$0000000C)
    .ARM.Collect$$rtentry$$0000000D          0x08000140   Section        8  __rtentry2.o(.ARM.Collect$$rtentry$$0000000D)
    .ARM.Collect$$rtexit$$00000000           0x08000148   Section        2  rtexit.o(.ARM.Collect$$rtexit$$00000000)
    .ARM.Collect$$rtexit$$00000002           0x0800014a   Section        0  rtexit2.o(.ARM.Collect$$rtexit$$00000002)
    .ARM.Collect$$rtexit$$00000003           0x0800014a   Section        4  rtexit2.o(.ARM.Collect$$rtexit$$00000003)
    .ARM.Collect$$rtexit$$00000004           0x0800014e   Section        6  rtexit2.o(.ARM.Collect$$rtexit$$00000004)
    .emb_text                                0x08000154   Section       56  rt_memcpy.o(.emb_text)
    .emb_text                                0x0800018c   Section        0  maybetermalloc1.o(.emb_text)
    .text                                    0x0800018c   Section       56  startup_stm32f071xb.o(.text)
    .text                                    0x080001c4   Section        0  llushr.o(.text)
    .text                                    0x080001e6   Section        0  aeabi_atexit.o(.text)
    .text                                    0x08000210   Section        0  strlen.o(.text)
    .text                                    0x08000254   Section        0  strncmp.o(.text)
    .text                                    0x080002f4   Section        0  rt_memcpy.o(.text)
    .text                                    0x08000376   Section        0  rt_memmove.o(.text)
    .text                                    0x0800040c   Section        0  rt_memclr.o(.text)
    .text                                    0x0800044c   Section      346  aeabi_sdiv.o(.text)
    .text                                    0x080005a6   Section        0  heapauxi.o(.text)
    .text                                    0x080005ac   Section        0  init_aeabi.o(.text)
    .text                                    0x080005d0   Section        0  d2f.o(.text)
    .text                                    0x0800064c   Section        0  dmul.o(.text)
    .text                                    0x08000894   Section        0  f2d.o(.text)
    .text                                    0x080008e8   Section        0  fdiv.o(.text)
    .text                                    0x08000a48   Section        0  ffixui.o(.text)
    .text                                    0x08000a78   Section        0  fflti.o(.text)
    .text                                    0x08000ad8   Section        8  rt_new_handler_addr_intlibspace.o(.text)
    .text                                    0x08000ae0   Section        8  rt_ddtor_pointer_addr_intlibspace.o(.text)
    .text                                    0x08000ae8   Section        0  h1_alloc.o(.text)
    .text                                    0x08000b4a   Section        0  h1_free.o(.text)
    .text                                    0x08000b96   Section        0  _rserrno.o(.text)
    .text                                    0x08000bac   Section        0  cxa_finalize.o(.text)
    .text                                    0x08000bee   Section        0  defsig_pvfn_outer.o(.text)
    .text                                    0x08000bfa   Section        0  arm_newhandler_noexceptions.o(.text)
    .text                                    0x08000c04   Section        0  fsqrt.o(.text)
    .text                                    0x08000c94   Section        8  libspace.o(.text)
    .text                                    0x08000c9c   Section        8  rt_heap_descriptor_intlibspace.o(.text)
    .text                                    0x08000ca4   Section        8  rt_errno_addr_intlibspace.o(.text)
    .text                                    0x08000cac   Section        0  hguard.o(.text)
    .text                                    0x08000cb0   Section        0  init_alloc.o(.text)
    .text                                    0x08000d38   Section        0  h1_init.o(.text)
    .text                                    0x08000d46   Section        0  defsig_exit.o(.text)
    .text                                    0x08000d54   Section        0  defsig_pvfn_inner.o(.text)
    .text                                    0x08000d84   Section        0  arm_exceptions_terminate.o(.text)
    .text                                    0x08000da0   Section        0  arm_exceptions_globs.o(.text)
    [local to arm_exceptions_c]::__default_terminate_handler() 0x08000da1   Thumb Code     6  arm_exceptions_globs.o(.text)
    .text                                    0x08000df4   Section        0  sys_exit.o(.text)
    .text                                    0x08000e00   Section       62  sys_stackheap_outer.o(.text)
    .text                                    0x08000e40   Section        8  rt_eh_globals_addr_intlibspace.o(.text)
    .text                                    0x08000e48   Section        0  h1_extend.o(.text)
    .text                                    0x08000e7c   Section        0  exit.o(.text)
    .text                                    0x08000e8c   Section        0  abort.o(.text)
    .text                                    0x08000ea0   Section        0  defsig_general.o(.text)
    .text                                    0x08000ed4   Section        0  defsig_rtmem_outer.o(.text)
    .text                                    0x08000ee0   Section        0  arm_exceptions_mem.o(.text)
    .text                                    0x08000f22   Section        0  sys_wrch.o(.text)
    .text                                    0x08000f2e   Section        2  use_no_semi.o(.text)
    .text                                    0x08000f30   Section        0  indicate_semi.o(.text)
    .text                                    0x08000f30   Section        0  defsig_abrt_outer.o(.text)
    .text                                    0x08000f3c   Section        0  defsig_rtmem_inner.o(.text)
    .text                                    0x08000f8c   Section        0  defsig_abrt_inner.o(.text)
    .text                                    0x08000fbc   Section        0  __dczerorl2.o(.text)
    i.DMA1_Channel1_IRQHandler               0x08001014   Section        0  stm32f0xx_it.o(i.DMA1_Channel1_IRQHandler)
    i.FLASH_WaitForLastOperation             0x08001054   Section        0  stm32f0xx_hal_flash.o(i.FLASH_WaitForLastOperation)
    i.HAL_ADCEx_Calibration_Start            0x080010a4   Section        0  stm32f0xx_hal_adc_ex.o(i.HAL_ADCEx_Calibration_Start)
    i.HAL_ADC_ConfigChannel                  0x0800114c   Section        0  stm32f0xx_hal_adc.o(i.HAL_ADC_ConfigChannel)
    i.HAL_ADC_ConvCpltCallback               0x08001270   Section        0  stm32f0xx_hal_adc.o(i.HAL_ADC_ConvCpltCallback)
    i.HAL_ADC_ErrorCallback                  0x08001272   Section        0  stm32f0xx_hal_adc.o(i.HAL_ADC_ErrorCallback)
    i.HAL_ADC_Init                           0x08001274   Section        0  stm32f0xx_hal_adc.o(i.HAL_ADC_Init)
    i.HAL_ADC_MspInit                        0x080013e8   Section        0  stm32f0xx_hal_msp.o(i.HAL_ADC_MspInit)
    i.HAL_ADC_Start_DMA                      0x08001480   Section        0  stm32f0xx_hal_adc.o(i.HAL_ADC_Start_DMA)
    i.HAL_ADC_Stop                           0x08001514   Section        0  stm32f0xx_hal_adc.o(i.HAL_ADC_Stop)
    i.HAL_ADC_Stop_DMA                       0x0800154e   Section        0  stm32f0xx_hal_adc.o(i.HAL_ADC_Stop_DMA)
    i.HAL_DMA_Abort                          0x080015ba   Section        0  stm32f0xx_hal_dma.o(i.HAL_DMA_Abort)
    i.HAL_DMA_IRQHandler                     0x080015e4   Section        0  stm32f0xx_hal_dma.o(i.HAL_DMA_IRQHandler)
    i.HAL_DMA_Init                           0x0800167c   Section        0  stm32f0xx_hal_dma.o(i.HAL_DMA_Init)
    i.HAL_DMA_Start_IT                       0x080016d0   Section        0  stm32f0xx_hal_dma.o(i.HAL_DMA_Start_IT)
    i.HAL_FLASHEx_Erase                      0x08001734   Section        0  stm32f0xx_hal_flash_ex.o(i.HAL_FLASHEx_Erase)
    i.HAL_FLASH_Lock                         0x080017d4   Section        0  stm32f0xx_hal_flash.o(i.HAL_FLASH_Lock)
    i.HAL_FLASH_Program                      0x080017e8   Section        0  stm32f0xx_hal_flash.o(i.HAL_FLASH_Program)
    i.HAL_FLASH_Unlock                       0x08001864   Section        0  stm32f0xx_hal_flash.o(i.HAL_FLASH_Unlock)
    i.HAL_GPIO_Init                          0x08001888   Section        0  stm32f0xx_hal_gpio.o(i.HAL_GPIO_Init)
    i.HAL_GPIO_WritePin                      0x080019dc   Section        0  stm32f0xx_hal_gpio.o(i.HAL_GPIO_WritePin)
    i.HAL_GetTick                            0x080019e8   Section        0  stm32f0xx_hal.o(i.HAL_GetTick)
    i.HAL_IncTick                            0x080019f4   Section        0  stm32f0xx_hal.o(i.HAL_IncTick)
    i.HAL_Init                               0x08001a04   Section        0  stm32f0xx_hal.o(i.HAL_Init)
    i.HAL_InitTick                           0x08001a24   Section        0  stm32f0xx_hal.o(i.HAL_InitTick)
    i.HAL_MspInit                            0x08001a48   Section        0  stm32f0xx_hal_msp.o(i.HAL_MspInit)
    i.HAL_NVIC_EnableIRQ                     0x08001a80   Section        0  stm32f0xx_hal_cortex.o(i.HAL_NVIC_EnableIRQ)
    i.HAL_NVIC_SetPriority                   0x08001a94   Section        0  stm32f0xx_hal_cortex.o(i.HAL_NVIC_SetPriority)
    i.HAL_PWR_ConfigPVD                      0x08001a9c   Section        0  stm32f0xx_hal_pwr_ex.o(i.HAL_PWR_ConfigPVD)
    i.HAL_PWR_EnablePVD                      0x08001b04   Section        0  stm32f0xx_hal_pwr_ex.o(i.HAL_PWR_EnablePVD)
    i.HAL_RCC_ClockConfig                    0x08001b14   Section        0  stm32f0xx_hal_rcc.o(i.HAL_RCC_ClockConfig)
    i.HAL_RCC_GetHCLKFreq                    0x08001c68   Section        0  stm32f0xx_hal_rcc.o(i.HAL_RCC_GetHCLKFreq)
    i.HAL_RCC_GetSysClockFreq                0x08001c74   Section        0  stm32f0xx_hal_rcc.o(i.HAL_RCC_GetSysClockFreq)
    i.HAL_RCC_OscConfig                      0x08001cfc   Section        0  stm32f0xx_hal_rcc.o(i.HAL_RCC_OscConfig)
    i.HAL_SYSTICK_CLKSourceConfig            0x080020d0   Section        0  stm32f0xx_hal_cortex.o(i.HAL_SYSTICK_CLKSourceConfig)
    i.HAL_SYSTICK_Callback                   0x080020e8   Section        0  stm32f0xx_hal_cortex.o(i.HAL_SYSTICK_Callback)
    i.HAL_SYSTICK_Config                     0x080020ec   Section        0  stm32f0xx_hal_cortex.o(i.HAL_SYSTICK_Config)
    i.HAL_SYSTICK_IRQHandler                 0x0800211c   Section        0  stm32f0xx_hal_cortex.o(i.HAL_SYSTICK_IRQHandler)
    i.HAL_TIMEx_BreakCallback                0x08002124   Section        0  stm32f0xx_hal_tim_ex.o(i.HAL_TIMEx_BreakCallback)
    i.HAL_TIMEx_CommutationCallback          0x08002126   Section        0  stm32f0xx_hal_tim_ex.o(i.HAL_TIMEx_CommutationCallback)
    i.HAL_TIMEx_MasterConfigSynchronization  0x08002128   Section        0  stm32f0xx_hal_tim_ex.o(i.HAL_TIMEx_MasterConfigSynchronization)
    i.HAL_TIM_Base_Init                      0x0800216e   Section        0  stm32f0xx_hal_tim.o(i.HAL_TIM_Base_Init)
    i.HAL_TIM_Base_MspInit                   0x080021a0   Section        0  stm32f0xx_hal_msp.o(i.HAL_TIM_Base_MspInit)
    i.HAL_TIM_Base_Start_IT                  0x080021f0   Section        0  stm32f0xx_hal_tim.o(i.HAL_TIM_Base_Start_IT)
    i.HAL_TIM_Base_Stop_IT                   0x08002208   Section        0  stm32f0xx_hal_tim.o(i.HAL_TIM_Base_Stop_IT)
    i.HAL_TIM_ConfigClockSource              0x08002234   Section        0  stm32f0xx_hal_tim.o(i.HAL_TIM_ConfigClockSource)
    i.HAL_TIM_IC_CaptureCallback             0x0800231c   Section        0  stm32f0xx_hal_tim.o(i.HAL_TIM_IC_CaptureCallback)
    i.HAL_TIM_IRQHandler                     0x0800231e   Section        0  stm32f0xx_hal_tim.o(i.HAL_TIM_IRQHandler)
    i.HAL_TIM_OC_DelayElapsedCallback        0x08002480   Section        0  stm32f0xx_hal_tim.o(i.HAL_TIM_OC_DelayElapsedCallback)
    i.HAL_TIM_PWM_PulseFinishedCallback      0x08002482   Section        0  stm32f0xx_hal_tim.o(i.HAL_TIM_PWM_PulseFinishedCallback)
    i.HAL_TIM_PeriodElapsedCallback          0x08002484   Section        0  stm32f0xx_it.o(i.HAL_TIM_PeriodElapsedCallback)
    i.HAL_TIM_TriggerCallback                0x08002490   Section        0  stm32f0xx_hal_tim.o(i.HAL_TIM_TriggerCallback)
    i.HAL_TSC_ConvCpltCallback               0x08002492   Section        0  stm32f0xx_hal_tsc.o(i.HAL_TSC_ConvCpltCallback)
    i.HAL_TSC_ErrorCallback                  0x08002494   Section        0  stm32f0xx_hal_tsc.o(i.HAL_TSC_ErrorCallback)
    i.HAL_TSC_IRQHandler                     0x08002496   Section        0  stm32f0xx_hal_tsc.o(i.HAL_TSC_IRQHandler)
    i.HAL_TSC_Init                           0x080024c8   Section        0  stm32f0xx_hal_tsc.o(i.HAL_TSC_Init)
    i.HAL_TSC_MspInit                        0x08002568   Section        0  stm32f0xx_hal_msp.o(i.HAL_TSC_MspInit)
    i.HAL_TSC_Start_IT                       0x080025f4   Section        0  stm32f0xx_hal_tsc.o(i.HAL_TSC_Start_IT)
    i.HardFault_Handler                      0x0800264c   Section        0  stm32f0xx_it.o(i.HardFault_Handler)
    i.NMI_Handler                            0x0800264e   Section        0  stm32f0xx_it.o(i.NMI_Handler)
    i.PendSV_Handler                         0x08002650   Section        0  stm32f0xx_it.o(i.PendSV_Handler)
    i.SVC_Handler                            0x08002652   Section        0  stm32f0xx_it.o(i.SVC_Handler)
    i.SysTick_Handler                        0x08002654   Section        0  stm32f0xx_it.o(i.SysTick_Handler)
    i.SystemInit                             0x08002678   Section        0  system_stm32f0xx.o(i.SystemInit)
    i.TIM1_BRK_UP_TRG_COM_IRQHandler         0x080026d4   Section        0  stm32f0xx_it.o(i.TIM1_BRK_UP_TRG_COM_IRQHandler)
    i.TIM6_DAC_IRQHandler                    0x08002710   Section        0  stm32f0xx_it.o(i.TIM6_DAC_IRQHandler)
    i.TIM_Base_SetConfig                     0x08002720   Section        0  stm32f0xx_hal_tim.o(i.TIM_Base_SetConfig)
    i.TIM_ETR_SetConfig                      0x080027b4   Section        0  stm32f0xx_hal_tim.o(i.TIM_ETR_SetConfig)
    i.TSC_IRQHandler                         0x080027cc   Section        0  stm32f0xx_it.o(i.TSC_IRQHandler)
    i._Error_Handler                         0x080027f4   Section        0  main_1.o(i._Error_Handler)
    i._Z10Screen_outv                        0x08002804   Section        0  screen.o(i._Z10Screen_outv)
    i._Z10_MAIN_FUNCv                        0x080028a0   Section        0  main_1.o(i._Z10_MAIN_FUNCv)
    i._Z11Dig_num_outRKcb                    0x080028b0   Section        0  screen.o(i._Z11Dig_num_outRKcb)
    i._Z12TSL_acq_Initv                      0x080028ec   Section        0  tsl_acq_stm32f0xx.o(i._Z12TSL_acq_Initv)
    i._Z12TSL_tim_Initv                      0x08002918   Section        0  tsl_time_stm32f0xx.o(i._Z12TSL_tim_Initv)
    i._Z12time_elapsedthh                    0x08002964   Section        0  help.o(i._Z12time_elapsedthh)
    i._Z12time_to_charRSt2tmPc               0x08002982   Section        0  screen.o(i._Z12time_to_charRSt2tmPc)
    i._Z13TSL_ecs_CalcKP17TSL_ObjectGroup_Ttt 0x080029d8   Section        0  tsl_ecs.o(i._Z13TSL_ecs_CalcKP17TSL_ObjectGroup_Ttt)
    i._Z13TSL_tkey_Initv                     0x08002a68   Section        0  tsl_touchkey.o(i._Z13TSL_tkey_Initv)
    i._Z13TSL_user_Initv                     0x08002ac0   Section        0  tsl_user.o(i._Z13TSL_user_Initv)
    i._Z13clearSegmentsv                     0x08002adc   Section        0  screen.o(i._Z13clearSegmentsv)
    i._Z15Call_Error_Menuv                   0x08002b24   Section        0  menu.o(i._Z15Call_Error_Menuv)
    i._Z15EE_ReadVariabletPt                 0x08002b44   Section        0  eeprom.o(i._Z15EE_ReadVariabletPt)
    i._Z15FLASH_PageErasej                   0x08002b88   Section        0  stm32f0xx_hal_flash_ex.o(i._Z15FLASH_PageErasej)
    i._Z15TSL_acq_GetMeash                   0x08002bac   Section        0  tsl_acq_stm32f0xx.o(i._Z15TSL_acq_GetMeash)
    i._Z15TSL_ecs_ProcessP17TSL_ObjectGroup_T 0x08002bbc   Section        0  tsl_ecs.o(i._Z15TSL_ecs_ProcessP17TSL_ObjectGroup_T)
    i._Z15TSL_user_Actionv                   0x08002c3c   Section        0  tsl_user.o(i._Z15TSL_user_Actionv)
    i._Z16EE_WriteVariablett                 0x08002cac   Section        0  eeprom.o(i._Z16EE_WriteVariablett)
    i._Z16Renew_EEpromDataP10Flash_Data      0x08002cdc   Section        0  eeprom_user.o(i._Z16Renew_EEpromDataP10Flash_Data)
    i._Z16TSL_dxs_FirstObjPK17TSL_ObjectGroup_T 0x08002d04   Section        0  tsl_dxs.o(i._Z16TSL_dxs_FirstObjPK17TSL_ObjectGroup_T)
    i._Z16TSL_ecs_ProcessKP17TSL_ObjectGroup_Tt 0x08002d08   Section        0  tsl_ecs.o(i._Z16TSL_ecs_ProcessKP17TSL_ObjectGroup_Tt)
    i._Z16TSL_tkey_Processv                  0x08002db0   Section        0  tsl_touchkey.o(i._Z16TSL_tkey_Processv)
    i._Z16utoa_builtin_divjPc                0x08002e04   Section        0  screen.o(i._Z16utoa_builtin_divjPc)
    i._Z17EEprom_Write_DataP10Flash_Datat    0x08002e30   Section        0  eeprom_user.o(i._Z17EEprom_Write_DataP10Flash_Datat)
    i._Z17TSL_acq_UseFilterP17TSL_ChannelData_T 0x08002e74   Section        0  tsl_acq_stm32f0xx.o(i._Z17TSL_acq_UseFilterP17TSL_ChannelData_T)
    i._Z17TSL_obj_GroupInitP17TSL_ObjectGroup_T 0x08002e78   Section        0  tsl_object.o(i._Z17TSL_obj_GroupInitP17TSL_ObjectGroup_T)
    i._Z17TSL_tim_ProcessITv                 0x08002ed4   Section        0  tsl_time.o(i._Z17TSL_tim_ProcessITv)
    i._Z17time_elapsed_uinttRKSt2tmtt        0x08002f28   Section        0  help.o(i._Z17time_elapsed_uinttRKSt2tmtt)
    i._Z18SystemClock_Configv                0x08002f5c   Section        0  main_1.o(i._Z18SystemClock_Configv)
    i._Z18TSL_acq_BankConfigh                0x08002fe4   Section        0  tsl_acq_stm32f0xx.o(i._Z18TSL_acq_BankConfigh)
    i._Z18TSL_acq_CheckNoisev                0x08003044   Section        0  tsl_acq_stm32f0xx.o(i._Z18TSL_acq_CheckNoisev)
    i._Z18Write_Default_DataP10Flash_Data    0x08003048   Section        0  eeprom_user.o(i._Z18Write_Default_DataP10Flash_Data)
    i._Z19TSL_acq_ComputeMeasts              0x08003078   Section        0  tsl_acq_stm32f0xx.o(i._Z19TSL_acq_ComputeMeasts)
    i._Z20TSL_acq_BankStartAcqv              0x08003080   Section        0  tsl_acq_stm32f0xx.o(i._Z20TSL_acq_BankStartAcqv)
    i._Z20TSL_acq_ComputeDeltatt             0x080030a8   Section        0  tsl_acq_stm32f0xx.o(i._Z20TSL_acq_ComputeDeltatt)
    i._Z20TSL_obj_GroupProcessP17TSL_ObjectGroup_T 0x080030b0   Section        0  tsl_object.o(i._Z20TSL_obj_GroupProcessP17TSL_ObjectGroup_T)
    i._Z20TSL_obj_SetGlobalObjPK12TSL_Object_T 0x0800310c   Section        0  tsl_object.o(i._Z20TSL_obj_SetGlobalObjPK12TSL_Object_T)
    i._Z21TSL_acq_BankGetResulthPFtttEPFssE  0x08003124   Section        0  tsl_acq.o(i._Z21TSL_acq_BankGetResulthPFtttEPFssE)
    i._Z21TSL_tim_CheckDelay_mstPVt          0x08003254   Section        0  tsl_time.o(i._Z21TSL_tim_CheckDelay_mstPVt)
    i._Z21TSL_tkey_GetStateMaskv             0x080032ac   Section        0  tsl_touchkey.o(i._Z21TSL_tkey_GetStateMaskv)
    i._Z22TSL_user_SetThresholdsv            0x080032cc   Section        0  tsl_user.o(i._Z22TSL_user_SetThresholdsv)
    i._Z23MyTKeys_OffStateProcessv           0x080032e4   Section        0  tsl_user.o(i._Z23MyTKeys_OffStateProcessv)
    i._Z25MyTKeys_ErrorStateProcessv         0x080032e8   Section        0  tsl_user.o(i._Z25MyTKeys_ErrorStateProcessv)
    i._Z25TSL_tkey_ProxStateProcessv         0x080032fc   Section        0  tsl_touchkey.o(i._Z25TSL_tkey_ProxStateProcessv)
    i._Z26TSL_tkey_TouchStateProcessv        0x08003368   Section        0  tsl_touchkey.o(i._Z26TSL_tkey_TouchStateProcessv)
    i._Z27TSL_tkey_DetectStateProcessv       0x080033d4   Section        0  tsl_touchkey.o(i._Z27TSL_tkey_DetectStateProcessv)
    i._Z28TSL_tkey_DebProxStateProcessv      0x08003440   Section        0  tsl_touchkey.o(i._Z28TSL_tkey_DebProxStateProcessv)
    i._Z28TSL_tkey_ReleaseStateProcessv      0x080034a4   Section        0  tsl_touchkey.o(i._Z28TSL_tkey_ReleaseStateProcessv)
    i._Z28TSL_tkey_SetStateCalibrationh      0x08003534   Section        0  tsl_touchkey.o(i._Z28TSL_tkey_SetStateCalibrationh)
    i._Z29TSL_tkey_DebErrorStateProcessv     0x08003598   Section        0  tsl_touchkey.o(i._Z29TSL_tkey_DebErrorStateProcessv)
    i._Z30TSL_tkey_DebDetectStateProcessv    0x080035fc   Section        0  tsl_touchkey.o(i._Z30TSL_tkey_DebDetectStateProcessv)
    i._Z31TSL_acq_TestReferenceOutOfRangeP17TSL_ChannelData_T 0x08003660   Section        0  tsl_acq_stm32f0xx.o(i._Z31TSL_acq_TestReferenceOutOfRangeP17TSL_ChannelData_T)
    i._Z32TSL_tkey_CalibrationStateProcessv  0x08003664   Section        0  tsl_touchkey.o(i._Z32TSL_tkey_CalibrationStateProcessv)
    i._Z33TSL_acq_TestFirstReferenceIsValidP17TSL_ChannelData_Tt 0x08003714   Section        0  tsl_acq_stm32f0xx.o(i._Z33TSL_acq_TestFirstReferenceIsValidP17TSL_ChannelData_Tt)
    i._Z33TSL_tkey_DebProxTouchStateProcessv 0x08003718   Section        0  tsl_touchkey.o(i._Z33TSL_tkey_DebProxTouchStateProcessv)
    i._Z34TSL_tkey_DebProxDetectStateProcessv 0x0800377c   Section        0  tsl_touchkey.o(i._Z34TSL_tkey_DebProxDetectStateProcessv)
    i._Z35TSL_tkey_DebCalibrationStateProcessv 0x080037e0   Section        0  tsl_touchkey.o(i._Z35TSL_tkey_DebCalibrationStateProcessv)
    i._Z35TSL_tkey_DebReleaseProxStateProcessv 0x08003828   Section        0  tsl_touchkey.o(i._Z35TSL_tkey_DebReleaseProxStateProcessv)
    i._Z36TSL_tkey_DebReleaseTouchStateProcessv 0x08003870   Section        0  tsl_touchkey.o(i._Z36TSL_tkey_DebReleaseTouchStateProcessv)
    i._Z37TSL_tkey_DebReleaseDetectStateProcessv 0x080038c4   Section        0  tsl_touchkey.o(i._Z37TSL_tkey_DebReleaseDetectStateProcessv)
    i._Z5num_0v                              0x08003918   Section        0  screen.o(i._Z5num_0v)
    i._Z5num_1v                              0x08003950   Section        0  screen.o(i._Z5num_1v)
    i._Z5num_2v                              0x08003968   Section        0  screen.o(i._Z5num_2v)
    i._Z5num_3v                              0x08003998   Section        0  screen.o(i._Z5num_3v)
    i._Z5num_4v                              0x080039c8   Section        0  screen.o(i._Z5num_4v)
    i._Z5num_5v                              0x080039f0   Section        0  screen.o(i._Z5num_5v)
    i._Z5num_6v                              0x08003a20   Section        0  screen.o(i._Z5num_6v)
    i._Z5num_7v                              0x08003a58   Section        0  screen.o(i._Z5num_7v)
    i._Z5num_8v                              0x08003a78   Section        0  screen.o(i._Z5num_8v)
    i._Z5num_9v                              0x08003ab8   Section        0  screen.o(i._Z5num_9v)
    i._Z5pointv                              0x08003af0   Section        0  screen.o(i._Z5pointv)
    i._Z5powerv                              0x08003b00   Section        0  main_1.o(i._Z5powerv)
    i._Z7EE_Initv                            0x08003b18   Section        0  eeprom.o(i._Z7EE_Initv)
    i._Z7do_Menuv                            0x08003c78   Section        0  menu.o(i._Z7do_Menuv)
    i._Z8TSL_InitPK10TSL_Bank_T              0x08003cc8   Section        0  tsl.o(i._Z8TSL_InitPK10TSL_Bank_T)
    i._Z8letter_Av                           0x08003ce0   Section        0  screen.o(i._Z8letter_Av)
    i._Z8letter_Cv                           0x08003d18   Section        0  screen.o(i._Z8letter_Cv)
    i._Z8letter_Ev                           0x08003d40   Section        0  screen.o(i._Z8letter_Ev)
    i._Z8letter_Lv                           0x08003d70   Section        0  screen.o(i._Z8letter_Lv)
    i._Z8letter_Ov                           0x08003d90   Section        0  screen.o(i._Z8letter_Ov)
    i._Z8letter_av                           0x08003dc8   Section        0  screen.o(i._Z8letter_av)
    i._Z8letter_bv                           0x08003e00   Section        0  screen.o(i._Z8letter_bv)
    i._Z8letter_cv                           0x08003e30   Section        0  screen.o(i._Z8letter_cv)
    i._Z8letter_dv                           0x08003e50   Section        0  screen.o(i._Z8letter_dv)
    i._Z8letter_fv                           0x08003e80   Section        0  screen.o(i._Z8letter_fv)
    i._Z8letter_hv                           0x08003ea8   Section        0  screen.o(i._Z8letter_hv)
    i._Z8letter_nv                           0x08003ed0   Section        0  screen.o(i._Z8letter_nv)
    i._Z8letter_ov                           0x08003ef0   Section        0  screen.o(i._Z8letter_ov)
    i._Z8letter_rv                           0x08003f18   Section        0  screen.o(i._Z8letter_rv)
    i._Z8letter_tv                           0x08003f30   Section        0  screen.o(i._Z8letter_tv)
    i._Z9EE_WritesP10Flash_Datat             0x08003f58   Section        0  eeprom_user.o(i._Z9EE_WritesP10Flash_Datat)
    i._Z9SoftDelayj                          0x08003fc4   Section        0  tsl_acq_stm32f0xx.o(i._Z9SoftDelayj)
    i._Z9clear_bufR6Screen                   0x08003fce   Section        0  screen.o(i._Z9clear_bufR6Screen)
    i._ZN10Flash_Data10check_dataEt          0x08003fe0   Section        0  eeprom_user.o(i._ZN10Flash_Data10check_dataEt)
    i._ZN10Flash_Data10write_dataEt          0x08003ff4   Section        0  eeprom_user.o(i._ZN10Flash_Data10write_dataEt)
    i._ZN10Flash_Data9find_dataEv            0x08004030   Section        0  eeprom_user.o(i._ZN10Flash_Data9find_dataEv)
    i._ZN10Flash_DataC1Etttt                 0x0800404a   Section        0  eeprom_user.o(i._ZN10Flash_DataC1Etttt)
    i._ZN10Menu_Error6actionEv               0x08004058   Section        0  menu.o(i._ZN10Menu_Error6actionEv)
    i._ZN10Menu_Error8menu_scrEv             0x08004088   Section        0  menu.o(i._ZN10Menu_Error8menu_scrEv)
    i._ZN10Menu_ErrorD1Ev                    0x08004098   Section        0  menu.o(i._ZN10Menu_ErrorD1Ev)
    i._ZN11voltage_acq14filter_voltageEv     0x0800409a   Section        0  voltage_acq.o(i._ZN11voltage_acq14filter_voltageEv)
    i._ZN11voltage_acq7get_ptrEv             0x080040aa   Section        0  voltage_acq.o(i._ZN11voltage_acq7get_ptrEv)
    i._ZN11voltage_acq9calculateEv           0x080040b0   Section        0  voltage_acq.o(i._ZN11voltage_acq9calculateEv)
    i._ZN13Menu_flash_rw11change_dataEv      0x0800411c   Section        0  menu.o(i._ZN13Menu_flash_rw11change_dataEv)
    i._ZN13Menu_flash_rw6actionEv            0x0800417c   Section        0  menu.o(i._ZN13Menu_flash_rw6actionEv)
    i._ZN13Menu_flash_rw8menu_scrEv          0x08004218   Section        0  menu.o(i._ZN13Menu_flash_rw8menu_scrEv)
    i._ZN13Menu_flash_rwC1EPKcR10Flash_DataP9Menu_Base 0x08004234   Section        0  menu.o(i._ZN13Menu_flash_rwC1EPKcR10Flash_DataP9Menu_Base)
    i._ZN13Menu_flash_rwD1Ev                 0x0800424c   Section        0  menu.o(i._ZN13Menu_flash_rwD1Ev)
    i._ZN13voltage_relay11get_arr_ptrEv      0x0800424e   Section        0  voltage_relay.o(i._ZN13voltage_relay11get_arr_ptrEv)
    i._ZN13voltage_relay11reset_alarmEv      0x08004258   Section        0  voltage_relay.o(i._ZN13voltage_relay11reset_alarmEv)
    i._ZN13voltage_relay14generate_alarmEv   0x08004278   Section        0  voltage_relay.o(i._ZN13voltage_relay14generate_alarmEv)
    i._ZN13voltage_relay16status_detectionEv 0x08004298   Section        0  voltage_relay.o(i._ZN13voltage_relay16status_detectionEv)
    i._ZN13voltage_relay21get_voltage_to_screenEv 0x0800437c   Section        0  voltage_relay.o(i._ZN13voltage_relay21get_voltage_to_screenEv)
    i._ZN13voltage_relay6updateEv            0x08004386   Section        0  voltage_relay.o(i._ZN13voltage_relay6updateEv)
    i._ZN13voltage_relay7executeEv           0x080043a8   Section        0  voltage_relay.o(i._ZN13voltage_relay7executeEv)
    i._ZN13voltage_relayC1EP10Flash_Data     0x080043b0   Section        0  voltage_relay.o(i._ZN13voltage_relayC1EP10Flash_Data)
    i._ZN13voltage_relayD1Ev                 0x08004464   Section        0  voltage_relay.o(i._ZN13voltage_relayD1Ev)
    i._ZN15low_pass_filter14execute_filterEf 0x080044a0   Section        0  voltage_acq.o(i._ZN15low_pass_filter14execute_filterEf)
    i._ZN18Event_EEprom_Write12execute_taskEv 0x080044e8   Section        0  alarms_events.o(i._ZN18Event_EEprom_Write12execute_taskEv)
    i._ZN18Event_EEprom_Write8set_taskERPFvP10Flash_DatatES1_t 0x080044f2   Section        0  alarms_events.o(i._ZN18Event_EEprom_Write8set_taskERPFvP10Flash_DatatES1_t)
    i._ZN18Event_EEprom_WriteD1Ev            0x080044fc   Section        0  alarms_events.o(i._ZN18Event_EEprom_WriteD1Ev)
    i._ZN18Menu_Voltage_Relay6actionEv       0x080044fe   Section        0  menu.o(i._ZN18Menu_Voltage_Relay6actionEv)
    i._ZN18Menu_Voltage_Relay8menu_scrEv     0x08004504   Section        0  menu.o(i._ZN18Menu_Voltage_Relay8menu_scrEv)
    i._ZN18Menu_Voltage_RelayD1Ev            0x0800451c   Section        0  menu.o(i._ZN18Menu_Voltage_RelayD1Ev)
    i._ZN22Voltage_Relay_Executor3popEv      0x0800451e   Section        0  main_state_machine.o(i._ZN22Voltage_Relay_Executor3popEv)
    i._ZN22Voltage_Relay_Executor4pushEP14OPERATION_BASE 0x08004538   Section        0  main_state_machine.o(i._ZN22Voltage_Relay_Executor4pushEP14OPERATION_BASE)
    i._ZN22Voltage_Relay_Executor8run_taskEv 0x08004568   Section        0  main_state_machine.o(i._ZN22Voltage_Relay_Executor8run_taskEv)
    i._ZN22Voltage_Relay_ExecutorD1Ev        0x08004588   Section        0  main_state_machine.o(i._ZN22Voltage_Relay_ExecutorD1Ev)
    i._ZN27_INTERNAL_6_main_c_484a10ab11MX_ADC_InitEv 0x080045a4   Section        0  main_1.o(i._ZN27_INTERNAL_6_main_c_484a10ab11MX_ADC_InitEv)
    [local to main_c]::MX_ADC_Init()         0x080045a5   Thumb Code   102  main_1.o(i._ZN27_INTERNAL_6_main_c_484a10ab11MX_ADC_InitEv)
    i._ZN27_INTERNAL_6_main_c_484a10ab11MX_TSC_InitEv 0x08004628   Section        0  main_1.o(i._ZN27_INTERNAL_6_main_c_484a10ab11MX_TSC_InitEv)
    [local to main_c]::MX_TSC_Init()         0x08004629   Thumb Code    74  main_1.o(i._ZN27_INTERNAL_6_main_c_484a10ab11MX_TSC_InitEv)
    i._ZN27_INTERNAL_6_main_c_484a10ab12MX_GPIO_InitEv 0x08004688   Section        0  main_1.o(i._ZN27_INTERNAL_6_main_c_484a10ab12MX_GPIO_InitEv)
    [local to main_c]::MX_GPIO_Init()        0x08004689   Thumb Code   118  main_1.o(i._ZN27_INTERNAL_6_main_c_484a10ab12MX_GPIO_InitEv)
    i._ZN27_INTERNAL_6_main_c_484a10ab12MX_TIM1_InitEv 0x0800470c   Section        0  main_1.o(i._ZN27_INTERNAL_6_main_c_484a10ab12MX_TIM1_InitEv)
    [local to main_c]::MX_TIM1_Init()        0x0800470d   Thumb Code   114  main_1.o(i._ZN27_INTERNAL_6_main_c_484a10ab12MX_TIM1_InitEv)
    i._ZN27_INTERNAL_6_main_c_484a10ab12MX_TIM6_InitEv 0x080047a0   Section        0  main_1.o(i._ZN27_INTERNAL_6_main_c_484a10ab12MX_TIM6_InitEv)
    [local to main_c]::MX_TIM6_Init()        0x080047a1   Thumb Code    76  main_1.o(i._ZN27_INTERNAL_6_main_c_484a10ab12MX_TIM6_InitEv)
    i._ZN28_INTERNAL_8_eeprom_c_DataVar10Erase_PageEj 0x080047fc   Section        0  eeprom.o(i._ZN28_INTERNAL_8_eeprom_c_DataVar10Erase_PageEj)
    [local to eeprom_c]::Erase_Page(unsigned) 0x080047fd   Thumb Code    38  eeprom.o(i._ZN28_INTERNAL_8_eeprom_c_DataVar10Erase_PageEj)
    i._ZN28_INTERNAL_8_eeprom_c_DataVar13page_is_blankEj 0x08004828   Section        0  eeprom.o(i._ZN28_INTERNAL_8_eeprom_c_DataVar13page_is_blankEj)
    [local to eeprom_c]::page_is_blank(unsigned) 0x08004829   Thumb Code    32  eeprom.o(i._ZN28_INTERNAL_8_eeprom_c_DataVar13page_is_blankEj)
    i._ZN28_INTERNAL_8_eeprom_c_DataVar15EE_PageTransferEtt 0x0800484c   Section        0  eeprom.o(i._ZN28_INTERNAL_8_eeprom_c_DataVar15EE_PageTransferEtt)
    [local to eeprom_c]::EE_PageTransfer(unsigned short, unsigned short) 0x0800484d   Thumb Code   202  eeprom.o(i._ZN28_INTERNAL_8_eeprom_c_DataVar15EE_PageTransferEtt)
    i._ZN28_INTERNAL_8_eeprom_c_DataVar16EE_FindValidPageEh 0x0800492c   Section        0  eeprom.o(i._ZN28_INTERNAL_8_eeprom_c_DataVar16EE_FindValidPageEh)
    [local to eeprom_c]::EE_FindValidPage(unsigned char) 0x0800492d   Thumb Code    60  eeprom.o(i._ZN28_INTERNAL_8_eeprom_c_DataVar16EE_FindValidPageEh)
    i._ZN28_INTERNAL_8_eeprom_c_DataVar30EE_VerifyPageFullWriteVariableEtt 0x08004974   Section        0  eeprom.o(i._ZN28_INTERNAL_8_eeprom_c_DataVar30EE_VerifyPageFullWriteVariableEtt)
    [local to eeprom_c]::EE_VerifyPageFullWriteVariable(unsigned short, unsigned short) 0x08004975   Thumb Code    98  eeprom.o(i._ZN28_INTERNAL_8_eeprom_c_DataVar30EE_VerifyPageFullWriteVariableEtt)
    i._ZN28_INTERNAL_8_eeprom_c_DataVar9EE_FormatEv 0x080049e0   Section        0  eeprom.o(i._ZN28_INTERNAL_8_eeprom_c_DataVar9EE_FormatEv)
    [local to eeprom_c]::EE_Format()         0x080049e1   Thumb Code    52  eeprom.o(i._ZN28_INTERNAL_8_eeprom_c_DataVar9EE_FormatEv)
    i._ZN35_INTERNAL_17_voltage_relay_cpp_vptr11Alarm_ResetEv 0x08004a1c   Section        0  voltage_relay.o(i._ZN35_INTERNAL_17_voltage_relay_cpp_vptr11Alarm_ResetEv)
    [local to voltage_relay_cpp]::Alarm_Reset() 0x08004a1d   Thumb Code    22  voltage_relay.o(i._ZN35_INTERNAL_17_voltage_relay_cpp_vptr11Alarm_ResetEv)
    i._ZN35_INTERNAL_17_voltage_relay_cpp_vptr13Alarm_HandlerEv 0x08004a3c   Section        0  voltage_relay.o(i._ZN35_INTERNAL_17_voltage_relay_cpp_vptr13Alarm_HandlerEv)
    [local to voltage_relay_cpp]::Alarm_Handler() 0x08004a3d   Thumb Code    22  voltage_relay.o(i._ZN35_INTERNAL_17_voltage_relay_cpp_vptr13Alarm_HandlerEv)
    i._ZN35_INTERNAL_17_voltage_relay_cpp_vptr19Voltage_CalculationEv 0x08004a5c   Section        0  voltage_relay.o(i._ZN35_INTERNAL_17_voltage_relay_cpp_vptr19Voltage_CalculationEv)
    [local to voltage_relay_cpp]::Voltage_Calculation() 0x08004a5d   Thumb Code    24  voltage_relay.o(i._ZN35_INTERNAL_17_voltage_relay_cpp_vptr19Voltage_CalculationEv)
    i._ZN41_INTERNAL_19_stm32f0xx_hal_adc_c_52ef8f5010ADC_EnableEP17ADC_HandleTypeDef 0x08004a80   Section        0  stm32f0xx_hal_adc.o(i._ZN41_INTERNAL_19_stm32f0xx_hal_adc_c_52ef8f5010ADC_EnableEP17ADC_HandleTypeDef)
    [local to stm32f0xx_hal_adc_c]::ADC_Enable(ADC_HandleTypeDef*) 0x08004a81   Thumb Code   120  stm32f0xx_hal_adc.o(i._ZN41_INTERNAL_19_stm32f0xx_hal_adc_c_52ef8f5010ADC_EnableEP17ADC_HandleTypeDef)
    i._ZN41_INTERNAL_19_stm32f0xx_hal_adc_c_52ef8f5011ADC_DisableEP17ADC_HandleTypeDef 0x08004b04   Section        0  stm32f0xx_hal_adc.o(i._ZN41_INTERNAL_19_stm32f0xx_hal_adc_c_52ef8f5011ADC_DisableEP17ADC_HandleTypeDef)
    [local to stm32f0xx_hal_adc_c]::ADC_Disable(ADC_HandleTypeDef*) 0x08004b05   Thumb Code   102  stm32f0xx_hal_adc.o(i._ZN41_INTERNAL_19_stm32f0xx_hal_adc_c_52ef8f5011ADC_DisableEP17ADC_HandleTypeDef)
    i._ZN41_INTERNAL_19_stm32f0xx_hal_adc_c_52ef8f5012ADC_DMAErrorEP19__DMA_HandleTypeDef 0x08004b6a   Section        0  stm32f0xx_hal_adc.o(i._ZN41_INTERNAL_19_stm32f0xx_hal_adc_c_52ef8f5012ADC_DMAErrorEP19__DMA_HandleTypeDef)
    [local to stm32f0xx_hal_adc_c]::ADC_DMAError(__DMA_HandleTypeDef*) 0x08004b6b   Thumb Code    26  stm32f0xx_hal_adc.o(i._ZN41_INTERNAL_19_stm32f0xx_hal_adc_c_52ef8f5012ADC_DMAErrorEP19__DMA_HandleTypeDef)
    i._ZN41_INTERNAL_19_stm32f0xx_hal_adc_c_52ef8f5015ADC_DMAConvCpltEP19__DMA_HandleTypeDef 0x08004b84   Section        0  stm32f0xx_hal_adc.o(i._ZN41_INTERNAL_19_stm32f0xx_hal_adc_c_52ef8f5015ADC_DMAConvCpltEP19__DMA_HandleTypeDef)
    [local to stm32f0xx_hal_adc_c]::ADC_DMAConvCplt(__DMA_HandleTypeDef*) 0x08004b85   Thumb Code   108  stm32f0xx_hal_adc.o(i._ZN41_INTERNAL_19_stm32f0xx_hal_adc_c_52ef8f5015ADC_DMAConvCpltEP19__DMA_HandleTypeDef)
    i._ZN41_INTERNAL_19_stm32f0xx_hal_adc_c_52ef8f5018ADC_ConversionStopEP17ADC_HandleTypeDef 0x08004bf0   Section        0  stm32f0xx_hal_adc.o(i._ZN41_INTERNAL_19_stm32f0xx_hal_adc_c_52ef8f5018ADC_ConversionStopEP17ADC_HandleTypeDef)
    [local to stm32f0xx_hal_adc_c]::ADC_ConversionStop(ADC_HandleTypeDef*) 0x08004bf1   Thumb Code    82  stm32f0xx_hal_adc.o(i._ZN41_INTERNAL_19_stm32f0xx_hal_adc_c_52ef8f5018ADC_ConversionStopEP17ADC_HandleTypeDef)
    i._ZN41_INTERNAL_19_stm32f0xx_hal_dma_c_c25f65ec13DMA_SetConfigEP19__DMA_HandleTypeDefjjj 0x08004c42   Section        0  stm32f0xx_hal_dma.o(i._ZN41_INTERNAL_19_stm32f0xx_hal_dma_c_c25f65ec13DMA_SetConfigEP19__DMA_HandleTypeDefjjj)
    [local to stm32f0xx_hal_dma_c]::DMA_SetConfig(__DMA_HandleTypeDef*, unsigned, unsigned, unsigned) 0x08004c43   Thumb Code    40  stm32f0xx_hal_dma.o(i._ZN41_INTERNAL_19_stm32f0xx_hal_dma_c_c25f65ec13DMA_SetConfigEP19__DMA_HandleTypeDefjjj)
    i._ZN41_INTERNAL_19_stm32f0xx_hal_dma_c_c25f65ec23DMA_CalcBaseAndBitshiftEP19__DMA_HandleTypeDef 0x08004c6c   Section        0  stm32f0xx_hal_dma.o(i._ZN41_INTERNAL_19_stm32f0xx_hal_dma_c_c25f65ec23DMA_CalcBaseAndBitshiftEP19__DMA_HandleTypeDef)
    [local to stm32f0xx_hal_dma_c]::DMA_CalcBaseAndBitshift(__DMA_HandleTypeDef*) 0x08004c6d   Thumb Code    26  stm32f0xx_hal_dma.o(i._ZN41_INTERNAL_19_stm32f0xx_hal_dma_c_c25f65ec23DMA_CalcBaseAndBitshiftEP19__DMA_HandleTypeDef)
    i._ZN41_INTERNAL_19_stm32f0xx_hal_tim_c_a9d95b5218TIM_ITRx_SetConfigEP11TIM_TypeDeft 0x08004c90   Section        0  stm32f0xx_hal_tim.o(i._ZN41_INTERNAL_19_stm32f0xx_hal_tim_c_a9d95b5218TIM_ITRx_SetConfigEP11TIM_TypeDeft)
    [local to stm32f0xx_hal_tim_c]::TIM_ITRx_SetConfig(TIM_TypeDef*, unsigned short) 0x08004c91   Thumb Code    16  stm32f0xx_hal_tim.o(i._ZN41_INTERNAL_19_stm32f0xx_hal_tim_c_a9d95b5218TIM_ITRx_SetConfigEP11TIM_TypeDeft)
    i._ZN41_INTERNAL_19_stm32f0xx_hal_tim_c_a9d95b5224TIM_TI1_ConfigInputStageEP11TIM_TypeDefjj 0x08004ca0   Section        0  stm32f0xx_hal_tim.o(i._ZN41_INTERNAL_19_stm32f0xx_hal_tim_c_a9d95b5224TIM_TI1_ConfigInputStageEP11TIM_TypeDefjj)
    [local to stm32f0xx_hal_tim_c]::TIM_TI1_ConfigInputStage(TIM_TypeDef*, unsigned, unsigned) 0x08004ca1   Thumb Code    34  stm32f0xx_hal_tim.o(i._ZN41_INTERNAL_19_stm32f0xx_hal_tim_c_a9d95b5224TIM_TI1_ConfigInputStageEP11TIM_TypeDefjj)
    i._ZN41_INTERNAL_19_stm32f0xx_hal_tim_c_a9d95b5224TIM_TI2_ConfigInputStageEP11TIM_TypeDefjj 0x08004cc2   Section        0  stm32f0xx_hal_tim.o(i._ZN41_INTERNAL_19_stm32f0xx_hal_tim_c_a9d95b5224TIM_TI2_ConfigInputStageEP11TIM_TypeDefjj)
    [local to stm32f0xx_hal_tim_c]::TIM_TI2_ConfigInputStage(TIM_TypeDef*, unsigned, unsigned) 0x08004cc3   Thumb Code    38  stm32f0xx_hal_tim.o(i._ZN41_INTERNAL_19_stm32f0xx_hal_tim_c_a9d95b5224TIM_TI2_ConfigInputStageEP11TIM_TypeDefjj)
    i._ZN41_INTERNAL_19_stm32f0xx_hal_tsc_c_c4cd125f18TSC_extract_groupsEj 0x08004ce8   Section        0  stm32f0xx_hal_tsc.o(i._ZN41_INTERNAL_19_stm32f0xx_hal_tsc_c_c4cd125f18TSC_extract_groupsEj)
    [local to stm32f0xx_hal_tsc_c]::TSC_extract_groups(unsigned) 0x08004ce9   Thumb Code    36  stm32f0xx_hal_tsc.o(i._ZN41_INTERNAL_19_stm32f0xx_hal_tsc_c_c4cd125f18TSC_extract_groupsEj)
    i._ZN43_INTERNAL_21_stm32f0xx_hal_flash_c_48aa8f3e18FLASH_SetErrorCodeEv 0x08004d0c   Section        0  stm32f0xx_hal_flash.o(i._ZN43_INTERNAL_21_stm32f0xx_hal_flash_c_48aa8f3e18FLASH_SetErrorCodeEv)
    [local to stm32f0xx_hal_flash_c]::FLASH_SetErrorCode() 0x08004d0d   Thumb Code    46  stm32f0xx_hal_flash.o(i._ZN43_INTERNAL_21_stm32f0xx_hal_flash_c_48aa8f3e18FLASH_SetErrorCodeEv)
    i._ZN43_INTERNAL_21_stm32f0xx_hal_flash_c_48aa8f3e22FLASH_Program_HalfWordEjt 0x08004d44   Section        0  stm32f0xx_hal_flash.o(i._ZN43_INTERNAL_21_stm32f0xx_hal_flash_c_48aa8f3e22FLASH_Program_HalfWordEjt)
    [local to stm32f0xx_hal_flash_c]::FLASH_Program_HalfWord(unsigned, unsigned short) 0x08004d45   Thumb Code    22  stm32f0xx_hal_flash.o(i._ZN43_INTERNAL_21_stm32f0xx_hal_flash_c_48aa8f3e22FLASH_Program_HalfWordEjt)
    i._ZN44_INTERNAL_22_stm32f0xx_hal_cortex_c_910ac08716NVIC_SetPriorityE9IRQn_Typej 0x08004d64   Section        0  stm32f0xx_hal_cortex.o(i._ZN44_INTERNAL_22_stm32f0xx_hal_cortex_c_910ac08716NVIC_SetPriorityE9IRQn_Typej)
    [local to stm32f0xx_hal_cortex_c]::NVIC_SetPriority(IRQn_Type, unsigned) 0x08004d65   Thumb Code    60  stm32f0xx_hal_cortex.o(i._ZN44_INTERNAL_22_stm32f0xx_hal_cortex_c_910ac08716NVIC_SetPriorityE9IRQn_Typej)
    i._ZN46_INTERNAL_24_stm32f0xx_hal_flash_ex_c_6648b60e15FLASH_MassEraseEv 0x08004da8   Section        0  stm32f0xx_hal_flash_ex.o(i._ZN46_INTERNAL_24_stm32f0xx_hal_flash_ex_c_6648b60e15FLASH_MassEraseEv)
    [local to stm32f0xx_hal_flash_ex_c]::FLASH_MassErase() 0x08004da9   Thumb Code    26  stm32f0xx_hal_flash_ex.o(i._ZN46_INTERNAL_24_stm32f0xx_hal_flash_ex_c_6648b60e15FLASH_MassEraseEv)
    i._ZN5Alarm12execute_taskEv              0x08004dcc   Section        0  alarms_events.o(i._ZN5Alarm12execute_taskEv)
    i._ZN5Alarm8set_taskERPFvvE              0x08004dd0   Section        0  alarms_events.o(i._ZN5Alarm8set_taskERPFvvE)
    i._ZN5AlarmD1Ev                          0x08004dd6   Section        0  alarms_events.o(i._ZN5AlarmD1Ev)
    i._ZN5Digit8BSRR_OffEv                   0x08004dd8   Section        0  screen.o(i._ZN5Digit8BSRR_OffEv)
    i._ZN5DigitC1EP12GPIO_TypeDeft           0x08004de6   Section        0  screen.o(i._ZN5DigitC1EP12GPIO_TypeDeft)
    i._ZN5Event12execute_taskEv              0x08004df6   Section        0  alarms_events.o(i._ZN5Event12execute_taskEv)
    i._ZN5EventD1Ev                          0x08004dfa   Section        0  alarms_events.o(i._ZN5EventD1Ev)
    i._ZN5EventaSERKS_                       0x08004dfc   Section        0  alarms_events.o(i._ZN5EventaSERKS_)
    i._ZN6Screen8delete_pEPc                 0x08004e02   Section        0  screen.o(i._ZN6Screen8delete_pEPc)
    i._ZN7Segment7BSRR_OnEv                  0x08004e12   Section        0  screen.o(i._ZN7Segment7BSRR_OnEv)
    i._ZN7Segment8BSRR_OffEv                 0x08004e20   Section        0  screen.o(i._ZN7Segment8BSRR_OffEv)
    i._ZN7SegmentC1EP12GPIO_TypeDeft         0x08004e2e   Section        0  screen.o(i._ZN7SegmentC1EP12GPIO_TypeDeft)
    i._ZN7Subject6attachEP8Observer          0x08004e3e   Section        0  observer.o(i._ZN7Subject6attachEP8Observer)
    i._ZN7Subject6notifyEv                   0x08004e4e   Section        0  observer.o(i._ZN7Subject6notifyEv)
    i._ZN8keyboard15any_key_pressedEv        0x08004e6e   Section        0  keyboard.o(i._ZN8keyboard15any_key_pressedEv)
    i._ZN8keyboard9get_stateE11SENSOR_NAME12SENSOR_STATE 0x08004e88   Section        0  keyboard.o(i._ZN8keyboard9get_stateE11SENSOR_NAME12SENSOR_STATE)
    i._ZN9Menu_BaseC2EPKc                    0x08004f50   Section        0  menu.o(i._ZN9Menu_BaseC2EPKc)
    i._ZN9Menu_Time6actionEv                 0x08004f5c   Section        0  menu.o(i._ZN9Menu_Time6actionEv)
    i._ZN9Menu_Time8menu_scrEv               0x08004ff0   Section        0  menu.o(i._ZN9Menu_Time8menu_scrEv)
    i._ZN9Menu_TimeC1EPKcR10Flash_DataP9Menu_Base 0x08005044   Section        0  menu.o(i._ZN9Menu_TimeC1EPKcR10Flash_DataP9Menu_Base)
    i._ZN9Menu_TimeD1Ev                      0x08005054   Section        0  menu.o(i._ZN9Menu_TimeD1Ev)
    i._ZN9Menu_item6actionEv                 0x08005058   Section        0  menu.o(i._ZN9Menu_item6actionEv)
    i._ZN9Menu_item8menu_scrEv               0x080050d8   Section        0  menu.o(i._ZN9Menu_item8menu_scrEv)
    i._ZN9Menu_itemC1EPKchz                  0x0800510c   Section        0  menu.o(i._ZN9Menu_itemC1EPKchz)
    i._ZN9Menu_itemD1Ev                      0x08005154   Section        0  menu.o(i._ZN9Menu_itemD1Ev)
    i._ZNK10Flash_Data9get_valueEv           0x0800516c   Section        0  eeprom_user.o(i._ZNK10Flash_Data9get_valueEv)
    i._ZNK11voltage_acq11get_voltageEv       0x08005170   Section        0  voltage_acq.o(i._ZNK11voltage_acq11get_voltageEv)
    i._ZNK11voltage_acq18get_screen_voltageEv 0x08005174   Section        0  voltage_acq.o(i._ZNK11voltage_acq18get_screen_voltageEv)
    i._ZdaPv                                 0x080051a0   Section        0  array_del.o(i._ZdaPv)
    i._ZdlPv                                 0x080051a8   Section        0  delete.o(i._ZdlPv)
    i._ZlsR6ScreenPKc                        0x080051b0   Section        0  screen.o(i._ZlsR6ScreenPKc)
    i._ZlsR6ScreenRKt                        0x080051ce   Section        0  screen.o(i._ZlsR6ScreenRKt)
    i._ZlsR6ScreenSt2tm                      0x080051ec   Section        0  screen.o(i._ZlsR6ScreenSt2tm)
    i._Znaj                                  0x08005210   Section        0  array_new.o(i._Znaj)
    i._Znwj                                  0x08005218   Section        0  new.o(i._Znwj)
    i.__ARM_common_switch8                   0x08005240   Section        0  stm32f0xx_hal_dma.o(i.__ARM_common_switch8)
    i.__cxa_pure_virtual                     0x0800525a   Section        0  pure_virt.o(i.__cxa_pure_virtual)
    i.__sti___10_Screen_cpp_scr              0x08005264   Section        0  screen.o(i.__sti___10_Screen_cpp_scr)
    __sti___10_Screen_cpp_scr                0x08005265   Thumb Code   218  screen.o(i.__sti___10_Screen_cpp_scr)
    i.__sti___15_eeprom_user_cpp_93c2cf2d    0x0800534c   Section        0  eeprom_user.o(i.__sti___15_eeprom_user_cpp_93c2cf2d)
    __sti___15_eeprom_user_cpp_93c2cf2d      0x0800534d   Thumb Code   178  eeprom_user.o(i.__sti___15_eeprom_user_cpp_93c2cf2d)
    i.__sti___17_alarms_events_cpp_5ed0bfbf  0x0800540c   Section        0  alarms_events.o(i.__sti___17_alarms_events_cpp_5ed0bfbf)
    __sti___17_alarms_events_cpp_5ed0bfbf    0x0800540d   Thumb Code   108  alarms_events.o(i.__sti___17_alarms_events_cpp_5ed0bfbf)
    i.__sti___17_voltage_relay_cpp_vptr      0x080054b0   Section        0  voltage_relay.o(i.__sti___17_voltage_relay_cpp_vptr)
    __sti___17_voltage_relay_cpp_vptr        0x080054b1   Thumb Code    32  voltage_relay.o(i.__sti___17_voltage_relay_cpp_vptr)
    i.__sti___22_main_state_machine_cpp_c044dce6 0x080054e8   Section        0  main_state_machine.o(i.__sti___22_main_state_machine_cpp_c044dce6)
    __sti___22_main_state_machine_cpp_c044dce6 0x080054e9   Thumb Code    46  main_state_machine.o(i.__sti___22_main_state_machine_cpp_c044dce6)
    i.__sti___8_eeprom_c_DataVar             0x08005524   Section        0  eeprom.o(i.__sti___8_eeprom_c_DataVar)
    __sti___8_eeprom_c_DataVar               0x08005525   Thumb Code    14  eeprom.o(i.__sti___8_eeprom_c_DataVar)
    i.__sti___8_menu_cpp_6e0c3973            0x08005538   Section        0  menu.o(i.__sti___8_menu_cpp_6e0c3973)
    __sti___8_menu_cpp_6e0c3973              0x08005539   Thumb Code   252  menu.o(i.__sti___8_menu_cpp_6e0c3973)
    i.arm_fir_f32                            0x08005688   Section        0  arm_fir_f32.o(i.arm_fir_f32)
    i.arm_fir_init_f32                       0x08005708   Section        0  arm_fir_init_f32.o(i.arm_fir_init_f32)
    i.main                                   0x08005724   Section        0  main_1.o(i.main)
    i.sqrtf                                  0x080057cc   Section        0  sqrtf.o(i.sqrtf)
    t._ZN11Event_CheckI13voltage_relayMS0_FvvEE12execute_taskEv 0x080057f8   Section        0  alarms_events.o(t._ZN11Event_CheckI13voltage_relayMS0_FvvEE12execute_taskEv)
    t._ZN11Event_CheckI13voltage_relayMS0_FvvEED1Ev 0x08005810   Section        0  alarms_events.o(t._ZN11Event_CheckI13voltage_relayMS0_FvvEED1Ev)
    t._ZN5StackIP14OPERATION_BASEE3getEv     0x08005812   Section        0  main_state_machine.o(t._ZN5StackIP14OPERATION_BASEE3getEv)
    x$fpl$fadd                               0x0800581c   Section      140  faddsub.o(x$fpl$fadd)
    _fadd1                                   0x08005829   Thumb Code     0  faddsub.o(x$fpl$fadd)
    x$fpl$fmul                               0x080058a8   Section      176  fmul.o(x$fpl$fmul)
    x$fpl$fsub                               0x08005958   Section      208  faddsub.o(x$fpl$fsub)
    _fsub1                                   0x08005965   Thumb Code     0  faddsub.o(x$fpl$fsub)
    .constdata                               0x08005a28   Section       16  system_stm32f0xx.o(.constdata)
    x$fpl$usenofp                            0x08005a28   Section        0  usenofp.o(x$fpl$usenofp)
    .constdata                               0x08005a38   Section       60  tsl_user.o(.constdata)
    MyChannels_Src                           0x08005a38   Data          60  tsl_user.o(.constdata)
    .constdata                               0x08005a74   Section       10  tsl_user.o(.constdata)
    MyChannels_Dest                          0x08005a74   Data          10  tsl_user.o(.constdata)
    .constdata                               0x08005a80   Section      120  tsl_user.o(.constdata)
    .constdata                               0x08005af8   Section      160  tsl_user.o(.constdata)
    MyTKeys_StateMachine                     0x08005af8   Data         160  tsl_user.o(.constdata)
    .constdata                               0x08005b98   Section        8  tsl_user.o(.constdata)
    MyTKeys_Methods                          0x08005b98   Data           8  tsl_user.o(.constdata)
    .constdata                               0x08005ba0   Section      100  tsl_user.o(.constdata)
    .constdata                               0x08005c04   Section       40  tsl_user.o(.constdata)
    .constdata                               0x08005c2c   Section       64  fdiv.o(.constdata)
    fdiv_tab                                 0x08005c2c   Data          64  fdiv.o(.constdata)
    .constdata__ZTV10Menu_Error              0x08005c6c   Section       24  menu.o(.constdata__ZTV10Menu_Error)
    .constdata__ZTV11Event_CheckI13voltage_relayMS0_FvvEE 0x08005c84   Section       20  alarms_events.o(.constdata__ZTV11Event_CheckI13voltage_relayMS0_FvvEE)
    .constdata__ZTV13Menu_flash_rw           0x08005c98   Section       24  menu.o(.constdata__ZTV13Menu_flash_rw)
    .constdata__ZTV13voltage_relay           0x08005cb0   Section       12  voltage_relay.o(.constdata__ZTV13voltage_relay)
    .constdata__ZTV18Event_EEprom_Write      0x08005cbc   Section       20  alarms_events.o(.constdata__ZTV18Event_EEprom_Write)
    .constdata__ZTV18Menu_Voltage_Relay      0x08005cd0   Section       24  menu.o(.constdata__ZTV18Menu_Voltage_Relay)
    .constdata__ZTV5Alarm                    0x08005ce8   Section       20  alarms_events.o(.constdata__ZTV5Alarm)
    .constdata__ZTV5Event                    0x08005cfc   Section       20  alarms_events.o(.constdata__ZTV5Event)
    .constdata__ZTV9Menu_Base                0x08005d10   Section       24  menu.o(.constdata__ZTV9Menu_Base)
    .constdata__ZTV9Menu_Time                0x08005d28   Section       24  menu.o(.constdata__ZTV9Menu_Time)
    .constdata__ZTV9Menu_item                0x08005d40   Section       24  menu.o(.constdata__ZTV9Menu_item)
    .constdata__ZZN18Menu_Voltage_RelayC1ER13voltage_relayP9Menu_BaseEs 0x08005d58   Section        1  menu.o(.constdata__ZZN18Menu_Voltage_RelayC1ER13voltage_relayP9Menu_BaseEs)
    .init_array                              0x08005d7c   Section        4  screen.o(.init_array)
    .init_array                              0x08005d80   Section        4  eeprom.o(.init_array)
    .init_array                              0x08005d84   Section        4  eeprom_user.o(.init_array)
    .init_array                              0x08005d88   Section        4  voltage_relay.o(.init_array)
    .init_array                              0x08005d8c   Section        4  main_state_machine.o(.init_array)
    .init_array                              0x08005d90   Section        4  alarms_events.o(.init_array)
    .init_array                              0x08005d94   Section        4  menu.o(.init_array)
    .init_array                              0x08005d98   Section        0  init_aeabi.o(.init_array)
    .data                                    0x20000000   Section        4  stm32f0xx_hal.o(.data)
    .data                                    0x20000004   Section        4  system_stm32f0xx.o(.data)
    .data                                    0x20000008   Section      416  screen.o(.data)
    Screen_out()::bf                         0x20000008   Data           1  screen.o(.data)
    .data                                    0x200001a8   Section       32  tsl_user.o(.data)
    TSL_user_Action()::idx_bank              0x200001ac   Data           4  tsl_user.o(.data)
    TSL_user_Action()::config_done           0x200001b0   Data           4  tsl_user.o(.data)
    .data                                    0x200001c8   Section       16  tsl_user.o(.data)
    .data                                    0x200001d8   Section        4  tsl_user.o(.data)
    .data                                    0x200001dc   Section       22  eeprom.o(.data)
    .data                                    0x200001f4   Section        4  eeprom_user.o(.data)
    .data                                    0x200001f8   Section        4  eeprom_user.o(.data)
    .data                                    0x200001fc   Section       36  voltage_acq.o(.data)
    .data                                    0x20000220   Section        1  voltage_acq.o(.data)
    voltage_acq::get_screen_voltage() const::tick 0x20000220   Data           1  voltage_acq.o(.data)
    .data                                    0x20000224   Section        8  voltage_relay.o(.data)
    .data                                    0x2000022c   Section       24  voltage_relay.o(.data)
    .data                                    0x20000244   Section        4  voltage_relay.o(.data)
    .data                                    0x20000248   Section        4  main_state_machine.o(.data)
    .data                                    0x2000024c   Section       24  alarms_events.o(.data)
    .data                                    0x20000264   Section        4  main_1.o(.data)
    .data                                    0x20000268   Section        4  menu.o(.data)
    .data                                    0x2000026c   Section       16  menu.o(.data)
    Menu_flash_read::action()::enter         0x2000026c   Data           1  menu.o(.data)
    [local to menu_cpp]::back_to_main(Menu_item&)::time_s 0x2000026e   Data           2  menu.o(.data)
    .data                                    0x2000027c   Section        4  tsl_acq_stm32f0xx.o(.data)
    .data                                    0x20000280   Section        2  tsl_time.o(.data)
    TSL_tim_ProcessIT()::count_1s            0x20000280   Data           2  tsl_time.o(.data)
    .data                                    0x20000282   Section        2  tsl_touchkey.o(.data)
    CalibDiv                                 0x20000282   Data           2  tsl_touchkey.o(.data)
    .bss                                     0x20000288   Section       32  stm32f0xx_hal_flash.o(.bss)
    .bss                                     0x200002a8   Section       44  help.o(.bss)
    .bss                                     0x200002d4   Section       32  screen.o(.bss)
    .bss                                     0x200002f4   Section       60  tsl_user.o(.bss)
    .bss                                     0x20000330   Section       40  tsl_user.o(.bss)
    .bss                                     0x20000358   Section       50  tsl_user.o(.bss)
    .bss                                     0x2000038c   Section       24  keyboard.o(.bss)
    .bss                                     0x200003a4   Section       70  eeprom_user.o(.bss)
    .bss                                     0x200003ec   Section       80  voltage_acq.o(.bss)
    .bss                                     0x2000043c   Section       32  voltage_relay.o(.bss)
    .bss                                     0x2000045c   Section       32  alarms_events.o(.bss)
    .bss                                     0x2000047c   Section      280  main_1.o(.bss)
    .bss                                     0x20000594   Section       72  main_1.o(.bss)
    .bss                                     0x200005dc   Section      304  menu.o(.bss)
    v_h_1                                    0x200005dc   Data          28  menu.o(.bss)
    v_h_2                                    0x200005f8   Data          28  menu.o(.bss)
    v_l_1                                    0x20000614   Data          28  menu.o(.bss)
    v_l_2                                    0x20000630   Data          28  menu.o(.bss)
    t_hl_1                                   0x2000064c   Data          72  menu.o(.bss)
    t_hl_2                                   0x20000694   Data          72  menu.o(.bss)
    Voltage                                  0x200006dc   Data          16  menu.o(.bss)
    .bss                                     0x2000070c   Section       20  tsl_globals.o(.bss)
    .bss                                     0x20000720   Section       96  libspace.o(.bss)
    HEAP                                     0x20000780   Section     1024  startup_stm32f071xb.o(HEAP)
    Heap_Mem                                 0x20000780   Data        1024  startup_stm32f071xb.o(HEAP)
    STACK                                    0x20000b80   Section     2048  startup_stm32f071xb.o(STACK)
    Stack_Mem                                0x20000b80   Data        2048  startup_stm32f071xb.o(STACK)
    __initial_sp                             0x20001380   Data           0  startup_stm32f071xb.o(STACK)

    Global Symbols

    Symbol Name                              Value     Ov Type        Size  Object(Section)

    BuildAttributes$$THM_ISAv3M$S$PE$A:L22$X:L11$S22$IEEE1$IW$USESV6$~STKCKD$USESV7$ENUMINT$~SHL$OTIME$ROPI$IEEEJ$EBA8$UX$STANDARDLIB$REQ8$PRES8$EABIv2 0x00000000   Number         0  anon$$obj.o ABSOLUTE
    __ARM_use_no_argv                        0x00000000   Number         0  main_1.o ABSOLUTE
    _printf_flags                            0x00000000   Number         0  printf_stubs.o ABSOLUTE
    _printf_return_value                     0x00000000   Number         0  printf_stubs.o ABSOLUTE
    _printf_sizespec                         0x00000000   Number         0  printf_stubs.o ABSOLUTE
    _printf_widthprec                        0x00000000   Number         0  printf_stubs.o ABSOLUTE
    SHT$$ARM_EXIDX$$Base                      - Undefined Reference
    SHT$$ARM_EXIDX$$Limit                     - Undefined Reference
    __ARM::default_unexpected_handler()       - Undefined Weak Reference
    __ARM_exceptions_buffer_required          - Undefined Weak Reference
    __ARM_exceptions_init                     - Undefined Weak Reference
    __aeabi_unwind_cpp_pr1                    - Undefined Weak Reference
    __aeabi_unwind_cpp_pr2                    - Undefined Weak Reference
    __alloca_initialize                       - Undefined Weak Reference
    __arm_preinit_                            - Undefined Weak Reference
    __cxa_begin_cleanup                       - Undefined Weak Reference
    __cxa_type_match                          - Undefined Weak Reference
    __sigvec_lookup                           - Undefined Weak Reference
    __user_heap_extent                        - Undefined Weak Reference
    _atexit_init                              - Undefined Weak Reference
    _call_atexit_fns                          - Undefined Weak Reference
    _clock_init                               - Undefined Weak Reference
    _fp_trap_init                             - Undefined Weak Reference
    _fp_trap_shutdown                         - Undefined Weak Reference
    _get_lc_collate                           - Undefined Weak Reference
    _get_lc_ctype                             - Undefined Weak Reference
    _get_lc_monetary                          - Undefined Weak Reference
    _get_lc_time                              - Undefined Weak Reference
    _getenv_init                              - Undefined Weak Reference
    _handle_redirection                       - Undefined Weak Reference
    _initio                                   - Undefined Weak Reference
    _mutex_acquire                            - Undefined Weak Reference
    _mutex_free                               - Undefined Weak Reference
    _mutex_release                            - Undefined Weak Reference
    _rand_init                                - Undefined Weak Reference
    _signal_finish                            - Undefined Weak Reference
    _signal_init                              - Undefined Weak Reference
    _terminateio                              - Undefined Weak Reference
    __Vectors_Size                           0x000000bc   Number         0  startup_stm32f071xb.o ABSOLUTE
    __Vectors                                0x08000000   Data           4  startup_stm32f071xb.o(RESET)
    __dso_handle                             0x08000000   Number         0  startup_stm32f071xb.o(RESET)
    __Vectors_End                            0x080000bc   Data           0  startup_stm32f071xb.o(RESET)
    __main                                   0x080000bd   Thumb Code     8  __main.o(!!!main)
    __scatterload                            0x080000c5   Thumb Code     0  __scatter.o(!!!scatter)
    __scatterload_rt2                        0x080000c5   Thumb Code    52  __scatter.o(!!!scatter)
    __scatterload_rt2_thumb_only             0x080000c5   Thumb Code     0  __scatter.o(!!!scatter)
    __scatterload_null                       0x080000d5   Thumb Code     0  __scatter.o(!!!scatter)
    __scatterload_zeroinit                   0x08000101   Thumb Code    28  __scatter_zi.o(!!handler_zi)
    __rt_lib_init                            0x0800011d   Thumb Code     0  libinit.o(.ARM.Collect$$libinit$$00000000)
    __rt_lib_init_fp_1                       0x0800011f   Thumb Code     0  libinit2.o(.ARM.Collect$$libinit$$00000002)
    __rt_lib_init_heap_2                     0x0800011f   Thumb Code     0  libinit2.o(.ARM.Collect$$libinit$$00000005)
    __rt_lib_init_preinit_1                  0x0800011f   Thumb Code     0  libinit2.o(.ARM.Collect$$libinit$$00000004)
    __rt_lib_init_alloca_1                   0x08000127   Thumb Code     0  libinit2.o(.ARM.Collect$$libinit$$0000002E)
    __rt_lib_init_argv_1                     0x08000127   Thumb Code     0  libinit2.o(.ARM.Collect$$libinit$$0000002C)
    __rt_lib_init_atexit_1                   0x08000127   Thumb Code     0  libinit2.o(.ARM.Collect$$libinit$$0000001B)
    __rt_lib_init_clock_1                    0x08000127   Thumb Code     0  libinit2.o(.ARM.Collect$$libinit$$00000021)
    __rt_lib_init_cpp_2                      0x08000127   Thumb Code     0  libinit2.o(.ARM.Collect$$libinit$$00000031)
    __rt_lib_init_exceptions_1               0x08000127   Thumb Code     0  libinit2.o(.ARM.Collect$$libinit$$00000030)
    __rt_lib_init_fp_trap_1                  0x08000127   Thumb Code     0  libinit2.o(.ARM.Collect$$libinit$$0000001F)
    __rt_lib_init_getenv_1                   0x08000127   Thumb Code     0  libinit2.o(.ARM.Collect$$libinit$$00000023)
    __rt_lib_init_heap_1                     0x08000127   Thumb Code     0  libinit2.o(.ARM.Collect$$libinit$$0000000A)
    __rt_lib_init_lc_collate_1               0x08000127   Thumb Code     0  libinit2.o(.ARM.Collect$$libinit$$00000011)
    __rt_lib_init_lc_ctype_1                 0x08000127   Thumb Code     0  libinit2.o(.ARM.Collect$$libinit$$00000013)
    __rt_lib_init_lc_monetary_1              0x08000127   Thumb Code     0  libinit2.o(.ARM.Collect$$libinit$$00000015)
    __rt_lib_init_lc_numeric_1               0x08000127   Thumb Code     0  libinit2.o(.ARM.Collect$$libinit$$00000017)
    __rt_lib_init_lc_time_1                  0x08000127   Thumb Code     0  libinit2.o(.ARM.Collect$$libinit$$00000019)
    __rt_lib_init_rand_1                     0x08000127   Thumb Code     0  libinit2.o(.ARM.Collect$$libinit$$0000000E)
    __rt_lib_init_signal_1                   0x08000127   Thumb Code     0  libinit2.o(.ARM.Collect$$libinit$$0000001D)
    __rt_lib_init_stdio_1                    0x08000127   Thumb Code     0  libinit2.o(.ARM.Collect$$libinit$$00000025)
    __rt_lib_init_user_alloc_1               0x08000127   Thumb Code     0  libinit2.o(.ARM.Collect$$libinit$$0000000C)
    __rt_lib_init_cpp_1                      0x0800012b   Thumb Code     0  libinit2.o(.ARM.Collect$$libinit$$00000032)
    __rt_lib_init_return                     0x0800012b   Thumb Code     0  libinit2.o(.ARM.Collect$$libinit$$00000033)
    __rt_lib_shutdown                        0x0800012d   Thumb Code     0  libshutdown.o(.ARM.Collect$$libshutdown$$00000000)
    __rt_lib_shutdown_cpp_2                  0x0800012f   Thumb Code     0  libshutdown2.o(.ARM.Collect$$libshutdown$$00000001)
    __rt_lib_shutdown_cpp_1                  0x08000135   Thumb Code     0  libshutdown2.o(.ARM.Collect$$libshutdown$$00000002)
    __rt_lib_shutdown_fp_trap_1              0x08000135   Thumb Code     0  libshutdown2.o(.ARM.Collect$$libshutdown$$00000007)
    __rt_lib_shutdown_heap_1                 0x08000135   Thumb Code     0  libshutdown2.o(.ARM.Collect$$libshutdown$$0000000F)
    __rt_lib_shutdown_return                 0x08000135   Thumb Code     0  libshutdown2.o(.ARM.Collect$$libshutdown$$00000010)
    __rt_lib_shutdown_signal_1               0x08000135   Thumb Code     0  libshutdown2.o(.ARM.Collect$$libshutdown$$0000000A)
    __rt_lib_shutdown_stdio_1                0x08000135   Thumb Code     0  libshutdown2.o(.ARM.Collect$$libshutdown$$00000004)
    __rt_lib_shutdown_user_alloc_1           0x08000135   Thumb Code     0  libshutdown2.o(.ARM.Collect$$libshutdown$$0000000C)
    __rt_entry                               0x08000137   Thumb Code     0  __rtentry.o(.ARM.Collect$$rtentry$$00000000)
    __rt_entry_presh_1                       0x08000137   Thumb Code     0  __rtentry2.o(.ARM.Collect$$rtentry$$00000002)
    __rt_entry_sh                            0x08000137   Thumb Code     0  __rtentry4.o(.ARM.Collect$$rtentry$$00000004)
    __rt_entry_li                            0x0800013d   Thumb Code     0  __rtentry2.o(.ARM.Collect$$rtentry$$0000000A)
    __rt_entry_postsh_1                      0x0800013d   Thumb Code     0  __rtentry2.o(.ARM.Collect$$rtentry$$00000009)
    __rt_entry_main                          0x08000141   Thumb Code     0  __rtentry2.o(.ARM.Collect$$rtentry$$0000000D)
    __rt_entry_postli_1                      0x08000141   Thumb Code     0  __rtentry2.o(.ARM.Collect$$rtentry$$0000000C)
    __rt_exit                                0x08000149   Thumb Code     0  rtexit.o(.ARM.Collect$$rtexit$$00000000)
    __rt_exit_ls                             0x0800014b   Thumb Code     0  rtexit2.o(.ARM.Collect$$rtexit$$00000003)
    __rt_exit_prels_1                        0x0800014b   Thumb Code     0  rtexit2.o(.ARM.Collect$$rtexit$$00000002)
    __rt_exit_exit                           0x0800014f   Thumb Code     0  rtexit2.o(.ARM.Collect$$rtexit$$00000004)
    __aeabi_memcpy4                          0x08000155   Thumb Code    56  rt_memcpy.o(.emb_text)
    __aeabi_memcpy8                          0x08000155   Thumb Code     0  rt_memcpy.o(.emb_text)
    Reset_Handler                            0x0800018d   Thumb Code     8  startup_stm32f071xb.o(.text)
    _maybe_terminate_alloc                   0x0800018d   Thumb Code     0  maybetermalloc1.o(.emb_text)
    ADC1_COMP_IRQHandler                     0x0800019f   Thumb Code     0  startup_stm32f071xb.o(.text)
    CEC_IRQHandler                           0x0800019f   Thumb Code     0  startup_stm32f071xb.o(.text)
    DMA1_Channel2_3_IRQHandler               0x0800019f   Thumb Code     0  startup_stm32f071xb.o(.text)
    DMA1_Channel4_5_6_7_IRQHandler           0x0800019f   Thumb Code     0  startup_stm32f071xb.o(.text)
    EXTI0_1_IRQHandler                       0x0800019f   Thumb Code     0  startup_stm32f071xb.o(.text)
    EXTI2_3_IRQHandler                       0x0800019f   Thumb Code     0  startup_stm32f071xb.o(.text)
    EXTI4_15_IRQHandler                      0x0800019f   Thumb Code     0  startup_stm32f071xb.o(.text)
    FLASH_IRQHandler                         0x0800019f   Thumb Code     0  startup_stm32f071xb.o(.text)
    I2C1_IRQHandler                          0x0800019f   Thumb Code     0  startup_stm32f071xb.o(.text)
    I2C2_IRQHandler                          0x0800019f   Thumb Code     0  startup_stm32f071xb.o(.text)
    PVD_VDDIO2_IRQHandler                    0x0800019f   Thumb Code     0  startup_stm32f071xb.o(.text)
    RCC_CRS_IRQHandler                       0x0800019f   Thumb Code     0  startup_stm32f071xb.o(.text)
    RTC_IRQHandler                           0x0800019f   Thumb Code     0  startup_stm32f071xb.o(.text)
    SPI1_IRQHandler                          0x0800019f   Thumb Code     0  startup_stm32f071xb.o(.text)
    SPI2_IRQHandler                          0x0800019f   Thumb Code     0  startup_stm32f071xb.o(.text)
    TIM14_IRQHandler                         0x0800019f   Thumb Code     0  startup_stm32f071xb.o(.text)
    TIM15_IRQHandler                         0x0800019f   Thumb Code     0  startup_stm32f071xb.o(.text)
    TIM16_IRQHandler                         0x0800019f   Thumb Code     0  startup_stm32f071xb.o(.text)
    TIM17_IRQHandler                         0x0800019f   Thumb Code     0  startup_stm32f071xb.o(.text)
    TIM1_CC_IRQHandler                       0x0800019f   Thumb Code     0  startup_stm32f071xb.o(.text)
    TIM2_IRQHandler                          0x0800019f   Thumb Code     0  startup_stm32f071xb.o(.text)
    TIM3_IRQHandler                          0x0800019f   Thumb Code     0  startup_stm32f071xb.o(.text)
    TIM7_IRQHandler                          0x0800019f   Thumb Code     0  startup_stm32f071xb.o(.text)
    USART1_IRQHandler                        0x0800019f   Thumb Code     0  startup_stm32f071xb.o(.text)
    USART2_IRQHandler                        0x0800019f   Thumb Code     0  startup_stm32f071xb.o(.text)
    USART3_4_IRQHandler                      0x0800019f   Thumb Code     0  startup_stm32f071xb.o(.text)
    WWDG_IRQHandler                          0x0800019f   Thumb Code     0  startup_stm32f071xb.o(.text)
    __user_initial_stackheap                 0x080001a1   Thumb Code     0  startup_stm32f071xb.o(.text)
    __aeabi_llsr                             0x080001c5   Thumb Code    34  llushr.o(.text)
    _ll_ushift_r                             0x080001c5   Thumb Code     0  llushr.o(.text)
    __aeabi_atexit                           0x080001e7   Thumb Code    42  aeabi_atexit.o(.text)
    strlen                                   0x08000211   Thumb Code    62  strlen.o(.text)
    strncmp                                  0x08000255   Thumb Code   154  strncmp.o(.text)
    __aeabi_memcpy                           0x080002f5   Thumb Code   130  rt_memcpy.o(.text)
    __rt_memcpy                              0x080002f5   Thumb Code     0  rt_memcpy.o(.text)
    __aeabi_memmove4                         0x08000377   Thumb Code    70  rt_memmove.o(.text)
    __aeabi_memmove8                         0x08000377   Thumb Code     0  rt_memmove.o(.text)
    __aeabi_memmove                          0x080003bd   Thumb Code    80  rt_memmove.o(.text)
    __rt_memmove                             0x080003bd   Thumb Code     0  rt_memmove.o(.text)
    _memset_w                                0x0800040d   Thumb Code    26  rt_memclr.o(.text)
    _memset                                  0x08000427   Thumb Code    30  rt_memclr.o(.text)
    __aeabi_memclr                           0x08000445   Thumb Code     4  rt_memclr.o(.text)
    __rt_memclr                              0x08000445   Thumb Code     0  rt_memclr.o(.text)
    __aeabi_memclr4                          0x08000449   Thumb Code     0  rt_memclr.o(.text)
    __aeabi_memclr8                          0x08000449   Thumb Code     0  rt_memclr.o(.text)
    __rt_memclr_w                            0x08000449   Thumb Code     4  rt_memclr.o(.text)
    __aeabi_uidiv                            0x0800044d   Thumb Code     0  aeabi_sdiv.o(.text)
    __aeabi_uidivmod                         0x0800044d   Thumb Code    20  aeabi_sdiv.o(.text)
    __aeabi_idiv                             0x08000461   Thumb Code     0  aeabi_sdiv.o(.text)
    __aeabi_idivmod                          0x08000461   Thumb Code   326  aeabi_sdiv.o(.text)
    __use_two_region_memory                  0x080005a7   Thumb Code     2  heapauxi.o(.text)
    __rt_heap_escrow                         0x080005a9   Thumb Code     2  heapauxi.o(.text)
    __rt_heap_expand                         0x080005ab   Thumb Code     2  heapauxi.o(.text)
    __cpp_initialize__aeabi_                 0x080005ad   Thumb Code    26  init_aeabi.o(.text)
    __aeabi_d2f                              0x080005d1   Thumb Code     0  d2f.o(.text)
    _d2f                                     0x080005d1   Thumb Code   120  d2f.o(.text)
